TN:
SF:/usr/include/c++/10/bits/std_function.h
FN:87,_ZNSt9_Any_data9_M_accessEv
FNDA:781,_ZNSt9_Any_data9_M_accessEv
FN:88,_ZNKSt9_Any_data9_M_accessEv
FNDA:346,_ZNKSt9_Any_data9_M_accessEv
FN:92,_ZNSt9_Any_data9_M_accessIPZ4mainEUlP11HttpRequestP12HttpResponseE63_EERT_v
FNDA:0,_ZNSt9_Any_data9_M_accessIPZ4mainEUlP11HttpRequestP12HttpResponseE63_EERT_v
FN:92,_ZNSt9_Any_data9_M_accessIPZ4mainEUlP11HttpRequestP12HttpResponseE42_EERT_v
FNDA:0,_ZNSt9_Any_data9_M_accessIPZ4mainEUlP11HttpRequestP12HttpResponseE42_EERT_v
FN:92,_ZNSt9_Any_data9_M_accessIPZ4mainEUlP11HttpRequestP12HttpResponseE62_EERT_v
FNDA:0,_ZNSt9_Any_data9_M_accessIPZ4mainEUlP11HttpRequestP12HttpResponseE62_EERT_v
FN:92,_ZNSt9_Any_data9_M_accessIPZ4mainEUlP11HttpRequestP12HttpResponseE61_EERT_v
FNDA:0,_ZNSt9_Any_data9_M_accessIPZ4mainEUlP11HttpRequestP12HttpResponseE61_EERT_v
FN:92,_ZNSt9_Any_data9_M_accessIPZ4mainEUlP11HttpRequestP12HttpResponseE60_EERT_v
FNDA:0,_ZNSt9_Any_data9_M_accessIPZ4mainEUlP11HttpRequestP12HttpResponseE60_EERT_v
FN:92,_ZNSt9_Any_data9_M_accessIPZ4mainEUlP11HttpRequestP12HttpResponseE59_EERT_v
FNDA:0,_ZNSt9_Any_data9_M_accessIPZ4mainEUlP11HttpRequestP12HttpResponseE59_EERT_v
FN:92,_ZNSt9_Any_data9_M_accessIPZ4mainEUlP11HttpRequestP12HttpResponseE58_EERT_v
FNDA:0,_ZNSt9_Any_data9_M_accessIPZ4mainEUlP11HttpRequestP12HttpResponseE58_EERT_v
FN:92,_ZNSt9_Any_data9_M_accessIPZ4mainEUlP11HttpRequestP12HttpResponseE57_EERT_v
FNDA:0,_ZNSt9_Any_data9_M_accessIPZ4mainEUlP11HttpRequestP12HttpResponseE57_EERT_v
FN:92,_ZNSt9_Any_data9_M_accessIPZ4mainEUlP11HttpRequestP12HttpResponseE56_EERT_v
FNDA:0,_ZNSt9_Any_data9_M_accessIPZ4mainEUlP11HttpRequestP12HttpResponseE56_EERT_v
FN:92,_ZNSt9_Any_data9_M_accessIPZ4mainEUlP11HttpRequestP12HttpResponseE55_EERT_v
FNDA:0,_ZNSt9_Any_data9_M_accessIPZ4mainEUlP11HttpRequestP12HttpResponseE55_EERT_v
FN:92,_ZNSt9_Any_data9_M_accessIPZ4mainEUlP11HttpRequestP12HttpResponseE54_EERT_v
FNDA:0,_ZNSt9_Any_data9_M_accessIPZ4mainEUlP11HttpRequestP12HttpResponseE54_EERT_v
FN:92,_ZNSt9_Any_data9_M_accessIPZ4mainEUlP11HttpRequestP12HttpResponseE53_EERT_v
FNDA:0,_ZNSt9_Any_data9_M_accessIPZ4mainEUlP11HttpRequestP12HttpResponseE53_EERT_v
FN:92,_ZNSt9_Any_data9_M_accessIPZ4mainEUlP11HttpRequestP12HttpResponseE52_EERT_v
FNDA:0,_ZNSt9_Any_data9_M_accessIPZ4mainEUlP11HttpRequestP12HttpResponseE52_EERT_v
FN:92,_ZNSt9_Any_data9_M_accessIPZ4mainEUlP11HttpRequestP12HttpResponseE51_EERT_v
FNDA:0,_ZNSt9_Any_data9_M_accessIPZ4mainEUlP11HttpRequestP12HttpResponseE51_EERT_v
FN:92,_ZNSt9_Any_data9_M_accessIPZ4mainEUlP11HttpRequestP12HttpResponseE50_EERT_v
FNDA:0,_ZNSt9_Any_data9_M_accessIPZ4mainEUlP11HttpRequestP12HttpResponseE50_EERT_v
FN:92,_ZNSt9_Any_data9_M_accessIPZ4mainEUlP11HttpRequestP12HttpResponseE49_EERT_v
FNDA:0,_ZNSt9_Any_data9_M_accessIPZ4mainEUlP11HttpRequestP12HttpResponseE49_EERT_v
FN:92,_ZNSt9_Any_data9_M_accessIPZ4mainEUlP11HttpRequestP12HttpResponseE48_EERT_v
FNDA:0,_ZNSt9_Any_data9_M_accessIPZ4mainEUlP11HttpRequestP12HttpResponseE48_EERT_v
FN:92,_ZNSt9_Any_data9_M_accessIPZ4mainEUlP11HttpRequestP12HttpResponseE47_EERT_v
FNDA:0,_ZNSt9_Any_data9_M_accessIPZ4mainEUlP11HttpRequestP12HttpResponseE47_EERT_v
FN:92,_ZNSt9_Any_data9_M_accessIPZ4mainEUlP11HttpRequestP12HttpResponseE46_EERT_v
FNDA:0,_ZNSt9_Any_data9_M_accessIPZ4mainEUlP11HttpRequestP12HttpResponseE46_EERT_v
FN:92,_ZNSt9_Any_data9_M_accessIPZ4mainEUlP11HttpRequestP12HttpResponseE45_EERT_v
FNDA:0,_ZNSt9_Any_data9_M_accessIPZ4mainEUlP11HttpRequestP12HttpResponseE45_EERT_v
FN:92,_ZNSt9_Any_data9_M_accessIPZ4mainEUlP11HttpRequestP12HttpResponseE44_EERT_v
FNDA:0,_ZNSt9_Any_data9_M_accessIPZ4mainEUlP11HttpRequestP12HttpResponseE44_EERT_v
FN:92,_ZNSt9_Any_data9_M_accessIPZ4mainEUlP11HttpRequestP12HttpResponseE43_EERT_v
FNDA:0,_ZNSt9_Any_data9_M_accessIPZ4mainEUlP11HttpRequestP12HttpResponseE43_EERT_v
FN:92,_ZNSt9_Any_data9_M_accessIPZ4mainEUlP11HttpRequestP12HttpResponseE85_EERT_v
FNDA:0,_ZNSt9_Any_data9_M_accessIPZ4mainEUlP11HttpRequestP12HttpResponseE85_EERT_v
FN:92,_ZNSt9_Any_data9_M_accessIPZ4mainEUlP11HttpRequestP12HttpResponseE75_EERT_v
FNDA:0,_ZNSt9_Any_data9_M_accessIPZ4mainEUlP11HttpRequestP12HttpResponseE75_EERT_v
FN:92,_ZNSt9_Any_data9_M_accessIZ4mainEUlP11HttpRequestP12HttpResponseE84_EERT_v
FNDA:4,_ZNSt9_Any_data9_M_accessIZ4mainEUlP11HttpRequestP12HttpResponseE84_EERT_v
FN:92,_ZNSt9_Any_data9_M_accessIPZ4mainEUlP11HttpRequestP12HttpResponseE84_EERT_v
FNDA:0,_ZNSt9_Any_data9_M_accessIPZ4mainEUlP11HttpRequestP12HttpResponseE84_EERT_v
FN:92,_ZNSt9_Any_data9_M_accessIPZ4mainEUlP11HttpRequestP12HttpResponseE83_EERT_v
FNDA:0,_ZNSt9_Any_data9_M_accessIPZ4mainEUlP11HttpRequestP12HttpResponseE83_EERT_v
FN:92,_ZNSt9_Any_data9_M_accessIPZ4mainEUlP11HttpRequestP12HttpResponseE82_EERT_v
FNDA:0,_ZNSt9_Any_data9_M_accessIPZ4mainEUlP11HttpRequestP12HttpResponseE82_EERT_v
FN:92,_ZNSt9_Any_data9_M_accessIPZ4mainEUlP11HttpRequestP12HttpResponseE81_EERT_v
FNDA:0,_ZNSt9_Any_data9_M_accessIPZ4mainEUlP11HttpRequestP12HttpResponseE81_EERT_v
FN:92,_ZNSt9_Any_data9_M_accessIPZ4mainEUlP11HttpRequestP12HttpResponseE80_EERT_v
FNDA:0,_ZNSt9_Any_data9_M_accessIPZ4mainEUlP11HttpRequestP12HttpResponseE80_EERT_v
FN:92,_ZNSt9_Any_data9_M_accessIPZ4mainEUlP11HttpRequestP12HttpResponseE79_EERT_v
FNDA:0,_ZNSt9_Any_data9_M_accessIPZ4mainEUlP11HttpRequestP12HttpResponseE79_EERT_v
FN:92,_ZNSt9_Any_data9_M_accessIPZ4mainEUlP11HttpRequestP12HttpResponseE78_EERT_v
FNDA:0,_ZNSt9_Any_data9_M_accessIPZ4mainEUlP11HttpRequestP12HttpResponseE78_EERT_v
FN:92,_ZNSt9_Any_data9_M_accessIPZ4mainEUlP11HttpRequestP12HttpResponseE77_EERT_v
FNDA:0,_ZNSt9_Any_data9_M_accessIPZ4mainEUlP11HttpRequestP12HttpResponseE77_EERT_v
FN:92,_ZNSt9_Any_data9_M_accessIPZ4mainEUlP11HttpRequestP12HttpResponseE76_EERT_v
FNDA:0,_ZNSt9_Any_data9_M_accessIPZ4mainEUlP11HttpRequestP12HttpResponseE76_EERT_v
FN:92,_ZNSt9_Any_data9_M_accessIPZ4mainEUlP11HttpRequestP12HttpResponseE64_EERT_v
FNDA:0,_ZNSt9_Any_data9_M_accessIPZ4mainEUlP11HttpRequestP12HttpResponseE64_EERT_v
FN:92,_ZNSt9_Any_data9_M_accessIPZ4mainEUlP11HttpRequestP12HttpResponseE74_EERT_v
FNDA:0,_ZNSt9_Any_data9_M_accessIPZ4mainEUlP11HttpRequestP12HttpResponseE74_EERT_v
FN:92,_ZNSt9_Any_data9_M_accessIPZ4mainEUlP11HttpRequestP12HttpResponseE73_EERT_v
FNDA:0,_ZNSt9_Any_data9_M_accessIPZ4mainEUlP11HttpRequestP12HttpResponseE73_EERT_v
FN:92,_ZNSt9_Any_data9_M_accessIPZ4mainEUlP11HttpRequestP12HttpResponseE72_EERT_v
FNDA:0,_ZNSt9_Any_data9_M_accessIPZ4mainEUlP11HttpRequestP12HttpResponseE72_EERT_v
FN:92,_ZNSt9_Any_data9_M_accessIPZ4mainEUlP11HttpRequestP12HttpResponseE71_EERT_v
FNDA:0,_ZNSt9_Any_data9_M_accessIPZ4mainEUlP11HttpRequestP12HttpResponseE71_EERT_v
FN:92,_ZNSt9_Any_data9_M_accessIPZ4mainEUlP11HttpRequestP12HttpResponseE70_EERT_v
FNDA:0,_ZNSt9_Any_data9_M_accessIPZ4mainEUlP11HttpRequestP12HttpResponseE70_EERT_v
FN:92,_ZNSt9_Any_data9_M_accessIPZ4mainEUlP11HttpRequestP12HttpResponseE69_EERT_v
FNDA:0,_ZNSt9_Any_data9_M_accessIPZ4mainEUlP11HttpRequestP12HttpResponseE69_EERT_v
FN:92,_ZNSt9_Any_data9_M_accessIPZ4mainEUlP11HttpRequestP12HttpResponseE68_EERT_v
FNDA:0,_ZNSt9_Any_data9_M_accessIPZ4mainEUlP11HttpRequestP12HttpResponseE68_EERT_v
FN:92,_ZNSt9_Any_data9_M_accessIPZ4mainEUlP11HttpRequestP12HttpResponseE67_EERT_v
FNDA:0,_ZNSt9_Any_data9_M_accessIPZ4mainEUlP11HttpRequestP12HttpResponseE67_EERT_v
FN:92,_ZNSt9_Any_data9_M_accessIPZ4mainEUlP11HttpRequestP12HttpResponseE66_EERT_v
FNDA:0,_ZNSt9_Any_data9_M_accessIPZ4mainEUlP11HttpRequestP12HttpResponseE66_EERT_v
FN:92,_ZNSt9_Any_data9_M_accessIPZ4mainEUlP11HttpRequestP12HttpResponseE65_EERT_v
FNDA:0,_ZNSt9_Any_data9_M_accessIPZ4mainEUlP11HttpRequestP12HttpResponseE65_EERT_v
FN:92,_ZNSt9_Any_data9_M_accessIPZ4mainEUlP11HttpRequestP12HttpResponseE8_EERT_v
FNDA:0,_ZNSt9_Any_data9_M_accessIPZ4mainEUlP11HttpRequestP12HttpResponseE8_EERT_v
FN:92,_ZNSt9_Any_data9_M_accessIPZ4mainEUlP11HttpRequestP12HttpResponseE18_EERT_v
FNDA:0,_ZNSt9_Any_data9_M_accessIPZ4mainEUlP11HttpRequestP12HttpResponseE18_EERT_v
FN:92,_ZNSt9_Any_data9_M_accessIPZ4mainEUlP11HttpRequestP12HttpResponseE17_EERT_v
FNDA:0,_ZNSt9_Any_data9_M_accessIPZ4mainEUlP11HttpRequestP12HttpResponseE17_EERT_v
FN:92,_ZNSt9_Any_data9_M_accessIPZ4mainEUlP11HttpRequestP12HttpResponseE16_EERT_v
FNDA:0,_ZNSt9_Any_data9_M_accessIPZ4mainEUlP11HttpRequestP12HttpResponseE16_EERT_v
FN:92,_ZNSt9_Any_data9_M_accessIPZ4mainEUlP11HttpRequestP12HttpResponseE15_EERT_v
FNDA:0,_ZNSt9_Any_data9_M_accessIPZ4mainEUlP11HttpRequestP12HttpResponseE15_EERT_v
FN:92,_ZNSt9_Any_data9_M_accessIPZ4mainEUlP11HttpRequestP12HttpResponseE14_EERT_v
FNDA:0,_ZNSt9_Any_data9_M_accessIPZ4mainEUlP11HttpRequestP12HttpResponseE14_EERT_v
FN:92,_ZNSt9_Any_data9_M_accessIPZ4mainEUlP11HttpRequestP12HttpResponseE13_EERT_v
FNDA:0,_ZNSt9_Any_data9_M_accessIPZ4mainEUlP11HttpRequestP12HttpResponseE13_EERT_v
FN:92,_ZNSt9_Any_data9_M_accessIPZ4mainEUlP11HttpRequestP12HttpResponseE12_EERT_v
FNDA:0,_ZNSt9_Any_data9_M_accessIPZ4mainEUlP11HttpRequestP12HttpResponseE12_EERT_v
FN:92,_ZNSt9_Any_data9_M_accessIPZ4mainEUlP11HttpRequestP12HttpResponseE11_EERT_v
FNDA:0,_ZNSt9_Any_data9_M_accessIPZ4mainEUlP11HttpRequestP12HttpResponseE11_EERT_v
FN:92,_ZNSt9_Any_data9_M_accessIPZ4mainEUlP11HttpRequestP12HttpResponseE10_EERT_v
FNDA:0,_ZNSt9_Any_data9_M_accessIPZ4mainEUlP11HttpRequestP12HttpResponseE10_EERT_v
FN:92,_ZNSt9_Any_data9_M_accessIPZ4mainEUlP11HttpRequestP12HttpResponseE9_EERT_v
FNDA:0,_ZNSt9_Any_data9_M_accessIPZ4mainEUlP11HttpRequestP12HttpResponseE9_EERT_v
FN:92,_ZNSt9_Any_data9_M_accessIPZ4mainEUlP11HttpRequestP12HttpResponseE19_EERT_v
FNDA:0,_ZNSt9_Any_data9_M_accessIPZ4mainEUlP11HttpRequestP12HttpResponseE19_EERT_v
FN:92,_ZNSt9_Any_data9_M_accessIPZ4mainEUlP11HttpRequestP12HttpResponseE7_EERT_v
FNDA:0,_ZNSt9_Any_data9_M_accessIPZ4mainEUlP11HttpRequestP12HttpResponseE7_EERT_v
FN:92,_ZNSt9_Any_data9_M_accessIPZ4mainEUlP11HttpRequestP12HttpResponseE6_EERT_v
FNDA:0,_ZNSt9_Any_data9_M_accessIPZ4mainEUlP11HttpRequestP12HttpResponseE6_EERT_v
FN:92,_ZNSt9_Any_data9_M_accessIPZ4mainEUlP11HttpRequestP12HttpResponseE5_EERT_v
FNDA:0,_ZNSt9_Any_data9_M_accessIPZ4mainEUlP11HttpRequestP12HttpResponseE5_EERT_v
FN:92,_ZNSt9_Any_data9_M_accessIPZ4mainEUlP11HttpRequestP12HttpResponseE4_EERT_v
FNDA:0,_ZNSt9_Any_data9_M_accessIPZ4mainEUlP11HttpRequestP12HttpResponseE4_EERT_v
FN:92,_ZNSt9_Any_data9_M_accessIPZ4mainEUlP11HttpRequestP12HttpResponseE3_EERT_v
FNDA:0,_ZNSt9_Any_data9_M_accessIPZ4mainEUlP11HttpRequestP12HttpResponseE3_EERT_v
FN:92,_ZNSt9_Any_data9_M_accessIPZ4mainEUlP11HttpRequestP12HttpResponseE2_EERT_v
FNDA:0,_ZNSt9_Any_data9_M_accessIPZ4mainEUlP11HttpRequestP12HttpResponseE2_EERT_v
FN:92,_ZNSt9_Any_data9_M_accessIPZ4mainEUlP11HttpRequestP12HttpResponseE1_EERT_v
FNDA:0,_ZNSt9_Any_data9_M_accessIPZ4mainEUlP11HttpRequestP12HttpResponseE1_EERT_v
FN:92,_ZNSt9_Any_data9_M_accessIPZ4mainEUlP11HttpRequestP12HttpResponseE0_EERT_v
FNDA:0,_ZNSt9_Any_data9_M_accessIPZ4mainEUlP11HttpRequestP12HttpResponseE0_EERT_v
FN:92,_ZNSt9_Any_data9_M_accessIPZ4mainEUlP11HttpRequestP12HttpResponseE_EERT_v
FNDA:0,_ZNSt9_Any_data9_M_accessIPZ4mainEUlP11HttpRequestP12HttpResponseE_EERT_v
FN:92,_ZNSt9_Any_data9_M_accessIPKSt9type_infoEERT_v
FNDA:0,_ZNSt9_Any_data9_M_accessIPKSt9type_infoEERT_v
FN:92,_ZNSt9_Any_data9_M_accessIPZ4mainEUlP11HttpRequestP12HttpResponseE30_EERT_v
FNDA:0,_ZNSt9_Any_data9_M_accessIPZ4mainEUlP11HttpRequestP12HttpResponseE30_EERT_v
FN:92,_ZNSt9_Any_data9_M_accessIPZ4mainEUlP11HttpRequestP12HttpResponseE40_EERT_v
FNDA:0,_ZNSt9_Any_data9_M_accessIPZ4mainEUlP11HttpRequestP12HttpResponseE40_EERT_v
FN:92,_ZNSt9_Any_data9_M_accessIPZ4mainEUlP11HttpRequestP12HttpResponseE39_EERT_v
FNDA:0,_ZNSt9_Any_data9_M_accessIPZ4mainEUlP11HttpRequestP12HttpResponseE39_EERT_v
FN:92,_ZNSt9_Any_data9_M_accessIPZ4mainEUlP11HttpRequestP12HttpResponseE38_EERT_v
FNDA:0,_ZNSt9_Any_data9_M_accessIPZ4mainEUlP11HttpRequestP12HttpResponseE38_EERT_v
FN:92,_ZNSt9_Any_data9_M_accessIPZ4mainEUlP11HttpRequestP12HttpResponseE37_EERT_v
FNDA:0,_ZNSt9_Any_data9_M_accessIPZ4mainEUlP11HttpRequestP12HttpResponseE37_EERT_v
FN:92,_ZNSt9_Any_data9_M_accessIPZ4mainEUlP11HttpRequestP12HttpResponseE36_EERT_v
FNDA:0,_ZNSt9_Any_data9_M_accessIPZ4mainEUlP11HttpRequestP12HttpResponseE36_EERT_v
FN:92,_ZNSt9_Any_data9_M_accessIPZ4mainEUlP11HttpRequestP12HttpResponseE35_EERT_v
FNDA:0,_ZNSt9_Any_data9_M_accessIPZ4mainEUlP11HttpRequestP12HttpResponseE35_EERT_v
FN:92,_ZNSt9_Any_data9_M_accessIPZ4mainEUlP11HttpRequestP12HttpResponseE34_EERT_v
FNDA:0,_ZNSt9_Any_data9_M_accessIPZ4mainEUlP11HttpRequestP12HttpResponseE34_EERT_v
FN:92,_ZNSt9_Any_data9_M_accessIPZ4mainEUlP11HttpRequestP12HttpResponseE33_EERT_v
FNDA:0,_ZNSt9_Any_data9_M_accessIPZ4mainEUlP11HttpRequestP12HttpResponseE33_EERT_v
FN:92,_ZNSt9_Any_data9_M_accessIPZ4mainEUlP11HttpRequestP12HttpResponseE32_EERT_v
FNDA:0,_ZNSt9_Any_data9_M_accessIPZ4mainEUlP11HttpRequestP12HttpResponseE32_EERT_v
FN:92,_ZNSt9_Any_data9_M_accessIPZ4mainEUlP11HttpRequestP12HttpResponseE31_EERT_v
FNDA:0,_ZNSt9_Any_data9_M_accessIPZ4mainEUlP11HttpRequestP12HttpResponseE31_EERT_v
FN:92,_ZNSt9_Any_data9_M_accessIPZ4mainEUlP11HttpRequestP12HttpResponseE41_EERT_v
FNDA:0,_ZNSt9_Any_data9_M_accessIPZ4mainEUlP11HttpRequestP12HttpResponseE41_EERT_v
FN:92,_ZNSt9_Any_data9_M_accessIPZ4mainEUlP11HttpRequestP12HttpResponseE29_EERT_v
FNDA:0,_ZNSt9_Any_data9_M_accessIPZ4mainEUlP11HttpRequestP12HttpResponseE29_EERT_v
FN:92,_ZNSt9_Any_data9_M_accessIPZ4mainEUlP11HttpRequestP12HttpResponseE28_EERT_v
FNDA:0,_ZNSt9_Any_data9_M_accessIPZ4mainEUlP11HttpRequestP12HttpResponseE28_EERT_v
FN:92,_ZNSt9_Any_data9_M_accessIPZ4mainEUlP11HttpRequestP12HttpResponseE27_EERT_v
FNDA:0,_ZNSt9_Any_data9_M_accessIPZ4mainEUlP11HttpRequestP12HttpResponseE27_EERT_v
FN:92,_ZNSt9_Any_data9_M_accessIPZ4mainEUlP11HttpRequestP12HttpResponseE26_EERT_v
FNDA:0,_ZNSt9_Any_data9_M_accessIPZ4mainEUlP11HttpRequestP12HttpResponseE26_EERT_v
FN:92,_ZNSt9_Any_data9_M_accessIPZ4mainEUlP11HttpRequestP12HttpResponseE25_EERT_v
FNDA:0,_ZNSt9_Any_data9_M_accessIPZ4mainEUlP11HttpRequestP12HttpResponseE25_EERT_v
FN:92,_ZNSt9_Any_data9_M_accessIPZ4mainEUlP11HttpRequestP12HttpResponseE24_EERT_v
FNDA:0,_ZNSt9_Any_data9_M_accessIPZ4mainEUlP11HttpRequestP12HttpResponseE24_EERT_v
FN:92,_ZNSt9_Any_data9_M_accessIPZ4mainEUlP11HttpRequestP12HttpResponseE23_EERT_v
FNDA:0,_ZNSt9_Any_data9_M_accessIPZ4mainEUlP11HttpRequestP12HttpResponseE23_EERT_v
FN:92,_ZNSt9_Any_data9_M_accessIPZ4mainEUlP11HttpRequestP12HttpResponseE22_EERT_v
FNDA:0,_ZNSt9_Any_data9_M_accessIPZ4mainEUlP11HttpRequestP12HttpResponseE22_EERT_v
FN:92,_ZNSt9_Any_data9_M_accessIPZ4mainEUlP11HttpRequestP12HttpResponseE21_EERT_v
FNDA:0,_ZNSt9_Any_data9_M_accessIPZ4mainEUlP11HttpRequestP12HttpResponseE21_EERT_v
FN:92,_ZNSt9_Any_data9_M_accessIPZ4mainEUlP11HttpRequestP12HttpResponseE20_EERT_v
FNDA:0,_ZNSt9_Any_data9_M_accessIPZ4mainEUlP11HttpRequestP12HttpResponseE20_EERT_v
FN:92,_ZNSt9_Any_data9_M_accessIZ4mainEUlP11HttpRequestP12HttpResponseE31_EERT_v
FNDA:4,_ZNSt9_Any_data9_M_accessIZ4mainEUlP11HttpRequestP12HttpResponseE31_EERT_v
FN:92,_ZNSt9_Any_data9_M_accessIZ4mainEUlP11HttpRequestP12HttpResponseE21_EERT_v
FNDA:4,_ZNSt9_Any_data9_M_accessIZ4mainEUlP11HttpRequestP12HttpResponseE21_EERT_v
FN:92,_ZNSt9_Any_data9_M_accessIZ4mainEUlP11HttpRequestP12HttpResponseE22_EERT_v
FNDA:4,_ZNSt9_Any_data9_M_accessIZ4mainEUlP11HttpRequestP12HttpResponseE22_EERT_v
FN:92,_ZNSt9_Any_data9_M_accessIZ4mainEUlP11HttpRequestP12HttpResponseE23_EERT_v
FNDA:4,_ZNSt9_Any_data9_M_accessIZ4mainEUlP11HttpRequestP12HttpResponseE23_EERT_v
FN:92,_ZNSt9_Any_data9_M_accessIZ4mainEUlP11HttpRequestP12HttpResponseE24_EERT_v
FNDA:4,_ZNSt9_Any_data9_M_accessIZ4mainEUlP11HttpRequestP12HttpResponseE24_EERT_v
FN:92,_ZNSt9_Any_data9_M_accessIZ4mainEUlP11HttpRequestP12HttpResponseE25_EERT_v
FNDA:4,_ZNSt9_Any_data9_M_accessIZ4mainEUlP11HttpRequestP12HttpResponseE25_EERT_v
FN:92,_ZNSt9_Any_data9_M_accessIZ4mainEUlP11HttpRequestP12HttpResponseE26_EERT_v
FNDA:4,_ZNSt9_Any_data9_M_accessIZ4mainEUlP11HttpRequestP12HttpResponseE26_EERT_v
FN:92,_ZNSt9_Any_data9_M_accessIZ4mainEUlP11HttpRequestP12HttpResponseE27_EERT_v
FNDA:4,_ZNSt9_Any_data9_M_accessIZ4mainEUlP11HttpRequestP12HttpResponseE27_EERT_v
FN:92,_ZNSt9_Any_data9_M_accessIZ4mainEUlP11HttpRequestP12HttpResponseE28_EERT_v
FNDA:3,_ZNSt9_Any_data9_M_accessIZ4mainEUlP11HttpRequestP12HttpResponseE28_EERT_v
FN:92,_ZNSt9_Any_data9_M_accessIZ4mainEUlP11HttpRequestP12HttpResponseE29_EERT_v
FNDA:4,_ZNSt9_Any_data9_M_accessIZ4mainEUlP11HttpRequestP12HttpResponseE29_EERT_v
FN:92,_ZNSt9_Any_data9_M_accessIZ4mainEUlP11HttpRequestP12HttpResponseE30_EERT_v
FNDA:4,_ZNSt9_Any_data9_M_accessIZ4mainEUlP11HttpRequestP12HttpResponseE30_EERT_v
FN:92,_ZNSt9_Any_data9_M_accessIZ4mainEUlP11HttpRequestP12HttpResponseE20_EERT_v
FNDA:4,_ZNSt9_Any_data9_M_accessIZ4mainEUlP11HttpRequestP12HttpResponseE20_EERT_v
FN:92,_ZNSt9_Any_data9_M_accessIZ4mainEUlP11HttpRequestP12HttpResponseE32_EERT_v
FNDA:4,_ZNSt9_Any_data9_M_accessIZ4mainEUlP11HttpRequestP12HttpResponseE32_EERT_v
FN:92,_ZNSt9_Any_data9_M_accessIZ4mainEUlP11HttpRequestP12HttpResponseE33_EERT_v
FNDA:4,_ZNSt9_Any_data9_M_accessIZ4mainEUlP11HttpRequestP12HttpResponseE33_EERT_v
FN:92,_ZNSt9_Any_data9_M_accessIZ4mainEUlP11HttpRequestP12HttpResponseE34_EERT_v
FNDA:4,_ZNSt9_Any_data9_M_accessIZ4mainEUlP11HttpRequestP12HttpResponseE34_EERT_v
FN:92,_ZNSt9_Any_data9_M_accessIZ4mainEUlP11HttpRequestP12HttpResponseE35_EERT_v
FNDA:4,_ZNSt9_Any_data9_M_accessIZ4mainEUlP11HttpRequestP12HttpResponseE35_EERT_v
FN:92,_ZNSt9_Any_data9_M_accessIZ4mainEUlP11HttpRequestP12HttpResponseE36_EERT_v
FNDA:4,_ZNSt9_Any_data9_M_accessIZ4mainEUlP11HttpRequestP12HttpResponseE36_EERT_v
FN:92,_ZNSt9_Any_data9_M_accessIZ4mainEUlP11HttpRequestP12HttpResponseE37_EERT_v
FNDA:5,_ZNSt9_Any_data9_M_accessIZ4mainEUlP11HttpRequestP12HttpResponseE37_EERT_v
FN:92,_ZNSt9_Any_data9_M_accessIZ4mainEUlP11HttpRequestP12HttpResponseE38_EERT_v
FNDA:4,_ZNSt9_Any_data9_M_accessIZ4mainEUlP11HttpRequestP12HttpResponseE38_EERT_v
FN:92,_ZNSt9_Any_data9_M_accessIZ4mainEUlP11HttpRequestP12HttpResponseE39_EERT_v
FNDA:4,_ZNSt9_Any_data9_M_accessIZ4mainEUlP11HttpRequestP12HttpResponseE39_EERT_v
FN:92,_ZNSt9_Any_data9_M_accessIZ4mainEUlP11HttpRequestP12HttpResponseE40_EERT_v
FNDA:4,_ZNSt9_Any_data9_M_accessIZ4mainEUlP11HttpRequestP12HttpResponseE40_EERT_v
FN:92,_ZNSt9_Any_data9_M_accessIZ4mainEUlP11HttpRequestP12HttpResponseE41_EERT_v
FNDA:4,_ZNSt9_Any_data9_M_accessIZ4mainEUlP11HttpRequestP12HttpResponseE41_EERT_v
FN:92,_ZNSt9_Any_data9_M_accessIZ4mainEUlP11HttpRequestP12HttpResponseE9_EERT_v
FNDA:4,_ZNSt9_Any_data9_M_accessIZ4mainEUlP11HttpRequestP12HttpResponseE9_EERT_v
FN:92,_ZNSt9_Any_data9_M_accessIZ4mainEUlP11HttpRequestP12HttpResponseE_EERT_v
FNDA:4,_ZNSt9_Any_data9_M_accessIZ4mainEUlP11HttpRequestP12HttpResponseE_EERT_v
FN:92,_ZNSt9_Any_data9_M_accessIZ4mainEUlP11HttpRequestP12HttpResponseE0_EERT_v
FNDA:4,_ZNSt9_Any_data9_M_accessIZ4mainEUlP11HttpRequestP12HttpResponseE0_EERT_v
FN:92,_ZNSt9_Any_data9_M_accessIZ4mainEUlP11HttpRequestP12HttpResponseE1_EERT_v
FNDA:4,_ZNSt9_Any_data9_M_accessIZ4mainEUlP11HttpRequestP12HttpResponseE1_EERT_v
FN:92,_ZNSt9_Any_data9_M_accessIZ4mainEUlP11HttpRequestP12HttpResponseE2_EERT_v
FNDA:4,_ZNSt9_Any_data9_M_accessIZ4mainEUlP11HttpRequestP12HttpResponseE2_EERT_v
FN:92,_ZNSt9_Any_data9_M_accessIZ4mainEUlP11HttpRequestP12HttpResponseE3_EERT_v
FNDA:4,_ZNSt9_Any_data9_M_accessIZ4mainEUlP11HttpRequestP12HttpResponseE3_EERT_v
FN:92,_ZNSt9_Any_data9_M_accessIZ4mainEUlP11HttpRequestP12HttpResponseE4_EERT_v
FNDA:4,_ZNSt9_Any_data9_M_accessIZ4mainEUlP11HttpRequestP12HttpResponseE4_EERT_v
FN:92,_ZNSt9_Any_data9_M_accessIZ4mainEUlP11HttpRequestP12HttpResponseE5_EERT_v
FNDA:4,_ZNSt9_Any_data9_M_accessIZ4mainEUlP11HttpRequestP12HttpResponseE5_EERT_v
FN:92,_ZNSt9_Any_data9_M_accessIZ4mainEUlP11HttpRequestP12HttpResponseE6_EERT_v
FNDA:4,_ZNSt9_Any_data9_M_accessIZ4mainEUlP11HttpRequestP12HttpResponseE6_EERT_v
FN:92,_ZNSt9_Any_data9_M_accessIZ4mainEUlP11HttpRequestP12HttpResponseE7_EERT_v
FNDA:4,_ZNSt9_Any_data9_M_accessIZ4mainEUlP11HttpRequestP12HttpResponseE7_EERT_v
FN:92,_ZNSt9_Any_data9_M_accessIZ4mainEUlP11HttpRequestP12HttpResponseE8_EERT_v
FNDA:4,_ZNSt9_Any_data9_M_accessIZ4mainEUlP11HttpRequestP12HttpResponseE8_EERT_v
FN:92,_ZNSt9_Any_data9_M_accessIZ4mainEUlP11HttpRequestP12HttpResponseE85_EERT_v
FNDA:4,_ZNSt9_Any_data9_M_accessIZ4mainEUlP11HttpRequestP12HttpResponseE85_EERT_v
FN:92,_ZNSt9_Any_data9_M_accessIZ4mainEUlP11HttpRequestP12HttpResponseE10_EERT_v
FNDA:4,_ZNSt9_Any_data9_M_accessIZ4mainEUlP11HttpRequestP12HttpResponseE10_EERT_v
FN:92,_ZNSt9_Any_data9_M_accessIZ4mainEUlP11HttpRequestP12HttpResponseE11_EERT_v
FNDA:4,_ZNSt9_Any_data9_M_accessIZ4mainEUlP11HttpRequestP12HttpResponseE11_EERT_v
FN:92,_ZNSt9_Any_data9_M_accessIZ4mainEUlP11HttpRequestP12HttpResponseE12_EERT_v
FNDA:4,_ZNSt9_Any_data9_M_accessIZ4mainEUlP11HttpRequestP12HttpResponseE12_EERT_v
FN:92,_ZNSt9_Any_data9_M_accessIZ4mainEUlP11HttpRequestP12HttpResponseE13_EERT_v
FNDA:4,_ZNSt9_Any_data9_M_accessIZ4mainEUlP11HttpRequestP12HttpResponseE13_EERT_v
FN:92,_ZNSt9_Any_data9_M_accessIZ4mainEUlP11HttpRequestP12HttpResponseE14_EERT_v
FNDA:4,_ZNSt9_Any_data9_M_accessIZ4mainEUlP11HttpRequestP12HttpResponseE14_EERT_v
FN:92,_ZNSt9_Any_data9_M_accessIZ4mainEUlP11HttpRequestP12HttpResponseE15_EERT_v
FNDA:5,_ZNSt9_Any_data9_M_accessIZ4mainEUlP11HttpRequestP12HttpResponseE15_EERT_v
FN:92,_ZNSt9_Any_data9_M_accessIZ4mainEUlP11HttpRequestP12HttpResponseE16_EERT_v
FNDA:4,_ZNSt9_Any_data9_M_accessIZ4mainEUlP11HttpRequestP12HttpResponseE16_EERT_v
FN:92,_ZNSt9_Any_data9_M_accessIZ4mainEUlP11HttpRequestP12HttpResponseE17_EERT_v
FNDA:4,_ZNSt9_Any_data9_M_accessIZ4mainEUlP11HttpRequestP12HttpResponseE17_EERT_v
FN:92,_ZNSt9_Any_data9_M_accessIZ4mainEUlP11HttpRequestP12HttpResponseE18_EERT_v
FNDA:4,_ZNSt9_Any_data9_M_accessIZ4mainEUlP11HttpRequestP12HttpResponseE18_EERT_v
FN:92,_ZNSt9_Any_data9_M_accessIZ4mainEUlP11HttpRequestP12HttpResponseE19_EERT_v
FNDA:4,_ZNSt9_Any_data9_M_accessIZ4mainEUlP11HttpRequestP12HttpResponseE19_EERT_v
FN:92,_ZNSt9_Any_data9_M_accessIZ4mainEUlP11HttpRequestP12HttpResponseE74_EERT_v
FNDA:4,_ZNSt9_Any_data9_M_accessIZ4mainEUlP11HttpRequestP12HttpResponseE74_EERT_v
FN:92,_ZNSt9_Any_data9_M_accessIZ4mainEUlP11HttpRequestP12HttpResponseE64_EERT_v
FNDA:4,_ZNSt9_Any_data9_M_accessIZ4mainEUlP11HttpRequestP12HttpResponseE64_EERT_v
FN:92,_ZNSt9_Any_data9_M_accessIZ4mainEUlP11HttpRequestP12HttpResponseE65_EERT_v
FNDA:4,_ZNSt9_Any_data9_M_accessIZ4mainEUlP11HttpRequestP12HttpResponseE65_EERT_v
FN:92,_ZNSt9_Any_data9_M_accessIZ4mainEUlP11HttpRequestP12HttpResponseE66_EERT_v
FNDA:4,_ZNSt9_Any_data9_M_accessIZ4mainEUlP11HttpRequestP12HttpResponseE66_EERT_v
FN:92,_ZNSt9_Any_data9_M_accessIZ4mainEUlP11HttpRequestP12HttpResponseE67_EERT_v
FNDA:4,_ZNSt9_Any_data9_M_accessIZ4mainEUlP11HttpRequestP12HttpResponseE67_EERT_v
FN:92,_ZNSt9_Any_data9_M_accessIZ4mainEUlP11HttpRequestP12HttpResponseE68_EERT_v
FNDA:4,_ZNSt9_Any_data9_M_accessIZ4mainEUlP11HttpRequestP12HttpResponseE68_EERT_v
FN:92,_ZNSt9_Any_data9_M_accessIZ4mainEUlP11HttpRequestP12HttpResponseE69_EERT_v
FNDA:4,_ZNSt9_Any_data9_M_accessIZ4mainEUlP11HttpRequestP12HttpResponseE69_EERT_v
FN:92,_ZNSt9_Any_data9_M_accessIZ4mainEUlP11HttpRequestP12HttpResponseE70_EERT_v
FNDA:4,_ZNSt9_Any_data9_M_accessIZ4mainEUlP11HttpRequestP12HttpResponseE70_EERT_v
FN:92,_ZNSt9_Any_data9_M_accessIZ4mainEUlP11HttpRequestP12HttpResponseE71_EERT_v
FNDA:4,_ZNSt9_Any_data9_M_accessIZ4mainEUlP11HttpRequestP12HttpResponseE71_EERT_v
FN:92,_ZNSt9_Any_data9_M_accessIZ4mainEUlP11HttpRequestP12HttpResponseE72_EERT_v
FNDA:4,_ZNSt9_Any_data9_M_accessIZ4mainEUlP11HttpRequestP12HttpResponseE72_EERT_v
FN:92,_ZNSt9_Any_data9_M_accessIZ4mainEUlP11HttpRequestP12HttpResponseE73_EERT_v
FNDA:4,_ZNSt9_Any_data9_M_accessIZ4mainEUlP11HttpRequestP12HttpResponseE73_EERT_v
FN:92,_ZNSt9_Any_data9_M_accessIZ4mainEUlP11HttpRequestP12HttpResponseE43_EERT_v
FNDA:4,_ZNSt9_Any_data9_M_accessIZ4mainEUlP11HttpRequestP12HttpResponseE43_EERT_v
FN:92,_ZNSt9_Any_data9_M_accessIZ4mainEUlP11HttpRequestP12HttpResponseE75_EERT_v
FNDA:4,_ZNSt9_Any_data9_M_accessIZ4mainEUlP11HttpRequestP12HttpResponseE75_EERT_v
FN:92,_ZNSt9_Any_data9_M_accessIZ4mainEUlP11HttpRequestP12HttpResponseE76_EERT_v
FNDA:4,_ZNSt9_Any_data9_M_accessIZ4mainEUlP11HttpRequestP12HttpResponseE76_EERT_v
FN:92,_ZNSt9_Any_data9_M_accessIZ4mainEUlP11HttpRequestP12HttpResponseE77_EERT_v
FNDA:4,_ZNSt9_Any_data9_M_accessIZ4mainEUlP11HttpRequestP12HttpResponseE77_EERT_v
FN:92,_ZNSt9_Any_data9_M_accessIZ4mainEUlP11HttpRequestP12HttpResponseE78_EERT_v
FNDA:4,_ZNSt9_Any_data9_M_accessIZ4mainEUlP11HttpRequestP12HttpResponseE78_EERT_v
FN:92,_ZNSt9_Any_data9_M_accessIZ4mainEUlP11HttpRequestP12HttpResponseE79_EERT_v
FNDA:4,_ZNSt9_Any_data9_M_accessIZ4mainEUlP11HttpRequestP12HttpResponseE79_EERT_v
FN:92,_ZNSt9_Any_data9_M_accessIZ4mainEUlP11HttpRequestP12HttpResponseE80_EERT_v
FNDA:4,_ZNSt9_Any_data9_M_accessIZ4mainEUlP11HttpRequestP12HttpResponseE80_EERT_v
FN:92,_ZNSt9_Any_data9_M_accessIZ4mainEUlP11HttpRequestP12HttpResponseE81_EERT_v
FNDA:4,_ZNSt9_Any_data9_M_accessIZ4mainEUlP11HttpRequestP12HttpResponseE81_EERT_v
FN:92,_ZNSt9_Any_data9_M_accessIZ4mainEUlP11HttpRequestP12HttpResponseE82_EERT_v
FNDA:4,_ZNSt9_Any_data9_M_accessIZ4mainEUlP11HttpRequestP12HttpResponseE82_EERT_v
FN:92,_ZNSt9_Any_data9_M_accessIZ4mainEUlP11HttpRequestP12HttpResponseE83_EERT_v
FNDA:4,_ZNSt9_Any_data9_M_accessIZ4mainEUlP11HttpRequestP12HttpResponseE83_EERT_v
FN:92,_ZNSt9_Any_data9_M_accessIZ4mainEUlP11HttpRequestP12HttpResponseE42_EERT_v
FNDA:4,_ZNSt9_Any_data9_M_accessIZ4mainEUlP11HttpRequestP12HttpResponseE42_EERT_v
FN:92,_ZNSt9_Any_data9_M_accessIZ4mainEUlP11HttpRequestP12HttpResponseE62_EERT_v
FNDA:4,_ZNSt9_Any_data9_M_accessIZ4mainEUlP11HttpRequestP12HttpResponseE62_EERT_v
FN:92,_ZNSt9_Any_data9_M_accessIZ4mainEUlP11HttpRequestP12HttpResponseE63_EERT_v
FNDA:4,_ZNSt9_Any_data9_M_accessIZ4mainEUlP11HttpRequestP12HttpResponseE63_EERT_v
FN:92,_ZNSt9_Any_data9_M_accessIZ4mainEUlP11HttpRequestP12HttpResponseE44_EERT_v
FNDA:4,_ZNSt9_Any_data9_M_accessIZ4mainEUlP11HttpRequestP12HttpResponseE44_EERT_v
FN:92,_ZNSt9_Any_data9_M_accessIZ4mainEUlP11HttpRequestP12HttpResponseE45_EERT_v
FNDA:4,_ZNSt9_Any_data9_M_accessIZ4mainEUlP11HttpRequestP12HttpResponseE45_EERT_v
FN:92,_ZNSt9_Any_data9_M_accessIZ4mainEUlP11HttpRequestP12HttpResponseE46_EERT_v
FNDA:4,_ZNSt9_Any_data9_M_accessIZ4mainEUlP11HttpRequestP12HttpResponseE46_EERT_v
FN:92,_ZNSt9_Any_data9_M_accessIZ4mainEUlP11HttpRequestP12HttpResponseE47_EERT_v
FNDA:3,_ZNSt9_Any_data9_M_accessIZ4mainEUlP11HttpRequestP12HttpResponseE47_EERT_v
FN:92,_ZNSt9_Any_data9_M_accessIZ4mainEUlP11HttpRequestP12HttpResponseE48_EERT_v
FNDA:4,_ZNSt9_Any_data9_M_accessIZ4mainEUlP11HttpRequestP12HttpResponseE48_EERT_v
FN:92,_ZNSt9_Any_data9_M_accessIZ4mainEUlP11HttpRequestP12HttpResponseE49_EERT_v
FNDA:4,_ZNSt9_Any_data9_M_accessIZ4mainEUlP11HttpRequestP12HttpResponseE49_EERT_v
FN:92,_ZNSt9_Any_data9_M_accessIZ4mainEUlP11HttpRequestP12HttpResponseE50_EERT_v
FNDA:4,_ZNSt9_Any_data9_M_accessIZ4mainEUlP11HttpRequestP12HttpResponseE50_EERT_v
FN:92,_ZNSt9_Any_data9_M_accessIZ4mainEUlP11HttpRequestP12HttpResponseE51_EERT_v
FNDA:4,_ZNSt9_Any_data9_M_accessIZ4mainEUlP11HttpRequestP12HttpResponseE51_EERT_v
FN:92,_ZNSt9_Any_data9_M_accessIZ4mainEUlP11HttpRequestP12HttpResponseE52_EERT_v
FNDA:4,_ZNSt9_Any_data9_M_accessIZ4mainEUlP11HttpRequestP12HttpResponseE52_EERT_v
FN:92,_ZNSt9_Any_data9_M_accessIZ4mainEUlP11HttpRequestP12HttpResponseE54_EERT_v
FNDA:4,_ZNSt9_Any_data9_M_accessIZ4mainEUlP11HttpRequestP12HttpResponseE54_EERT_v
FN:92,_ZNSt9_Any_data9_M_accessIZ4mainEUlP11HttpRequestP12HttpResponseE55_EERT_v
FNDA:4,_ZNSt9_Any_data9_M_accessIZ4mainEUlP11HttpRequestP12HttpResponseE55_EERT_v
FN:92,_ZNSt9_Any_data9_M_accessIZ4mainEUlP11HttpRequestP12HttpResponseE56_EERT_v
FNDA:4,_ZNSt9_Any_data9_M_accessIZ4mainEUlP11HttpRequestP12HttpResponseE56_EERT_v
FN:92,_ZNSt9_Any_data9_M_accessIZ4mainEUlP11HttpRequestP12HttpResponseE57_EERT_v
FNDA:4,_ZNSt9_Any_data9_M_accessIZ4mainEUlP11HttpRequestP12HttpResponseE57_EERT_v
FN:92,_ZNSt9_Any_data9_M_accessIZ4mainEUlP11HttpRequestP12HttpResponseE58_EERT_v
FNDA:4,_ZNSt9_Any_data9_M_accessIZ4mainEUlP11HttpRequestP12HttpResponseE58_EERT_v
FN:92,_ZNSt9_Any_data9_M_accessIZ4mainEUlP11HttpRequestP12HttpResponseE59_EERT_v
FNDA:4,_ZNSt9_Any_data9_M_accessIZ4mainEUlP11HttpRequestP12HttpResponseE59_EERT_v
FN:92,_ZNSt9_Any_data9_M_accessIZ4mainEUlP11HttpRequestP12HttpResponseE60_EERT_v
FNDA:4,_ZNSt9_Any_data9_M_accessIZ4mainEUlP11HttpRequestP12HttpResponseE60_EERT_v
FN:92,_ZNSt9_Any_data9_M_accessIZ4mainEUlP11HttpRequestP12HttpResponseE61_EERT_v
FNDA:4,_ZNSt9_Any_data9_M_accessIZ4mainEUlP11HttpRequestP12HttpResponseE61_EERT_v
FN:92,_ZNSt9_Any_data9_M_accessIZ4mainEUlP11HttpRequestP12HttpResponseE53_EERT_v
FNDA:4,_ZNSt9_Any_data9_M_accessIZ4mainEUlP11HttpRequestP12HttpResponseE53_EERT_v
FN:97,_ZNKSt9_Any_data9_M_accessIZ4mainEUlP11HttpRequestP12HttpResponseE29_EERKT_v
FNDA:4,_ZNKSt9_Any_data9_M_accessIZ4mainEUlP11HttpRequestP12HttpResponseE29_EERKT_v
FN:97,_ZNKSt9_Any_data9_M_accessIZ4mainEUlP11HttpRequestP12HttpResponseE28_EERKT_v
FNDA:3,_ZNKSt9_Any_data9_M_accessIZ4mainEUlP11HttpRequestP12HttpResponseE28_EERKT_v
FN:97,_ZNKSt9_Any_data9_M_accessIZ4mainEUlP11HttpRequestP12HttpResponseE27_EERKT_v
FNDA:4,_ZNKSt9_Any_data9_M_accessIZ4mainEUlP11HttpRequestP12HttpResponseE27_EERKT_v
FN:97,_ZNKSt9_Any_data9_M_accessIZ4mainEUlP11HttpRequestP12HttpResponseE26_EERKT_v
FNDA:4,_ZNKSt9_Any_data9_M_accessIZ4mainEUlP11HttpRequestP12HttpResponseE26_EERKT_v
FN:97,_ZNKSt9_Any_data9_M_accessIZ4mainEUlP11HttpRequestP12HttpResponseE25_EERKT_v
FNDA:4,_ZNKSt9_Any_data9_M_accessIZ4mainEUlP11HttpRequestP12HttpResponseE25_EERKT_v
FN:97,_ZNKSt9_Any_data9_M_accessIZ4mainEUlP11HttpRequestP12HttpResponseE24_EERKT_v
FNDA:4,_ZNKSt9_Any_data9_M_accessIZ4mainEUlP11HttpRequestP12HttpResponseE24_EERKT_v
FN:97,_ZNKSt9_Any_data9_M_accessIZ4mainEUlP11HttpRequestP12HttpResponseE23_EERKT_v
FNDA:4,_ZNKSt9_Any_data9_M_accessIZ4mainEUlP11HttpRequestP12HttpResponseE23_EERKT_v
FN:97,_ZNKSt9_Any_data9_M_accessIZ4mainEUlP11HttpRequestP12HttpResponseE22_EERKT_v
FNDA:4,_ZNKSt9_Any_data9_M_accessIZ4mainEUlP11HttpRequestP12HttpResponseE22_EERKT_v
FN:97,_ZNKSt9_Any_data9_M_accessIZ4mainEUlP11HttpRequestP12HttpResponseE21_EERKT_v
FNDA:4,_ZNKSt9_Any_data9_M_accessIZ4mainEUlP11HttpRequestP12HttpResponseE21_EERKT_v
FN:97,_ZNKSt9_Any_data9_M_accessIZ4mainEUlP11HttpRequestP12HttpResponseE20_EERKT_v
FNDA:4,_ZNKSt9_Any_data9_M_accessIZ4mainEUlP11HttpRequestP12HttpResponseE20_EERKT_v
FN:97,_ZNKSt9_Any_data9_M_accessIZ4mainEUlP11HttpRequestP12HttpResponseE19_EERKT_v
FNDA:4,_ZNKSt9_Any_data9_M_accessIZ4mainEUlP11HttpRequestP12HttpResponseE19_EERKT_v
FN:97,_ZNKSt9_Any_data9_M_accessIZ4mainEUlP11HttpRequestP12HttpResponseE30_EERKT_v
FNDA:4,_ZNKSt9_Any_data9_M_accessIZ4mainEUlP11HttpRequestP12HttpResponseE30_EERKT_v
FN:97,_ZNKSt9_Any_data9_M_accessIZ4mainEUlP11HttpRequestP12HttpResponseE31_EERKT_v
FNDA:4,_ZNKSt9_Any_data9_M_accessIZ4mainEUlP11HttpRequestP12HttpResponseE31_EERKT_v
FN:97,_ZNKSt9_Any_data9_M_accessIZ4mainEUlP11HttpRequestP12HttpResponseE32_EERKT_v
FNDA:4,_ZNKSt9_Any_data9_M_accessIZ4mainEUlP11HttpRequestP12HttpResponseE32_EERKT_v
FN:97,_ZNKSt9_Any_data9_M_accessIZ4mainEUlP11HttpRequestP12HttpResponseE33_EERKT_v
FNDA:4,_ZNKSt9_Any_data9_M_accessIZ4mainEUlP11HttpRequestP12HttpResponseE33_EERKT_v
FN:97,_ZNKSt9_Any_data9_M_accessIZ4mainEUlP11HttpRequestP12HttpResponseE34_EERKT_v
FNDA:4,_ZNKSt9_Any_data9_M_accessIZ4mainEUlP11HttpRequestP12HttpResponseE34_EERKT_v
FN:97,_ZNKSt9_Any_data9_M_accessIZ4mainEUlP11HttpRequestP12HttpResponseE35_EERKT_v
FNDA:4,_ZNKSt9_Any_data9_M_accessIZ4mainEUlP11HttpRequestP12HttpResponseE35_EERKT_v
FN:97,_ZNKSt9_Any_data9_M_accessIZ4mainEUlP11HttpRequestP12HttpResponseE36_EERKT_v
FNDA:4,_ZNKSt9_Any_data9_M_accessIZ4mainEUlP11HttpRequestP12HttpResponseE36_EERKT_v
FN:97,_ZNKSt9_Any_data9_M_accessIZ4mainEUlP11HttpRequestP12HttpResponseE37_EERKT_v
FNDA:4,_ZNKSt9_Any_data9_M_accessIZ4mainEUlP11HttpRequestP12HttpResponseE37_EERKT_v
FN:97,_ZNKSt9_Any_data9_M_accessIZ4mainEUlP11HttpRequestP12HttpResponseE38_EERKT_v
FNDA:4,_ZNKSt9_Any_data9_M_accessIZ4mainEUlP11HttpRequestP12HttpResponseE38_EERKT_v
FN:97,_ZNKSt9_Any_data9_M_accessIZ4mainEUlP11HttpRequestP12HttpResponseE39_EERKT_v
FNDA:4,_ZNKSt9_Any_data9_M_accessIZ4mainEUlP11HttpRequestP12HttpResponseE39_EERKT_v
FN:97,_ZNKSt9_Any_data9_M_accessIZ4mainEUlP11HttpRequestP12HttpResponseE40_EERKT_v
FNDA:4,_ZNKSt9_Any_data9_M_accessIZ4mainEUlP11HttpRequestP12HttpResponseE40_EERKT_v
FN:97,_ZNKSt9_Any_data9_M_accessIZ4mainEUlP11HttpRequestP12HttpResponseE7_EERKT_v
FNDA:4,_ZNKSt9_Any_data9_M_accessIZ4mainEUlP11HttpRequestP12HttpResponseE7_EERKT_v
FN:97,_ZNKSt9_Any_data9_M_accessIZ4mainEUlP11HttpRequestP12HttpResponseE84_EERKT_v
FNDA:4,_ZNKSt9_Any_data9_M_accessIZ4mainEUlP11HttpRequestP12HttpResponseE84_EERKT_v
FN:97,_ZNKSt9_Any_data9_M_accessIZ4mainEUlP11HttpRequestP12HttpResponseE85_EERKT_v
FNDA:4,_ZNKSt9_Any_data9_M_accessIZ4mainEUlP11HttpRequestP12HttpResponseE85_EERKT_v
FN:97,_ZNKSt9_Any_data9_M_accessIZ4mainEUlP11HttpRequestP12HttpResponseE_EERKT_v
FNDA:4,_ZNKSt9_Any_data9_M_accessIZ4mainEUlP11HttpRequestP12HttpResponseE_EERKT_v
FN:97,_ZNKSt9_Any_data9_M_accessIZ4mainEUlP11HttpRequestP12HttpResponseE0_EERKT_v
FNDA:4,_ZNKSt9_Any_data9_M_accessIZ4mainEUlP11HttpRequestP12HttpResponseE0_EERKT_v
FN:97,_ZNKSt9_Any_data9_M_accessIZ4mainEUlP11HttpRequestP12HttpResponseE1_EERKT_v
FNDA:4,_ZNKSt9_Any_data9_M_accessIZ4mainEUlP11HttpRequestP12HttpResponseE1_EERKT_v
FN:97,_ZNKSt9_Any_data9_M_accessIZ4mainEUlP11HttpRequestP12HttpResponseE2_EERKT_v
FNDA:4,_ZNKSt9_Any_data9_M_accessIZ4mainEUlP11HttpRequestP12HttpResponseE2_EERKT_v
FN:97,_ZNKSt9_Any_data9_M_accessIZ4mainEUlP11HttpRequestP12HttpResponseE3_EERKT_v
FNDA:4,_ZNKSt9_Any_data9_M_accessIZ4mainEUlP11HttpRequestP12HttpResponseE3_EERKT_v
FN:97,_ZNKSt9_Any_data9_M_accessIZ4mainEUlP11HttpRequestP12HttpResponseE4_EERKT_v
FNDA:4,_ZNKSt9_Any_data9_M_accessIZ4mainEUlP11HttpRequestP12HttpResponseE4_EERKT_v
FN:97,_ZNKSt9_Any_data9_M_accessIZ4mainEUlP11HttpRequestP12HttpResponseE5_EERKT_v
FNDA:4,_ZNKSt9_Any_data9_M_accessIZ4mainEUlP11HttpRequestP12HttpResponseE5_EERKT_v
FN:97,_ZNKSt9_Any_data9_M_accessIZ4mainEUlP11HttpRequestP12HttpResponseE6_EERKT_v
FNDA:4,_ZNKSt9_Any_data9_M_accessIZ4mainEUlP11HttpRequestP12HttpResponseE6_EERKT_v
FN:97,_ZNKSt9_Any_data9_M_accessIZ4mainEUlP11HttpRequestP12HttpResponseE18_EERKT_v
FNDA:4,_ZNKSt9_Any_data9_M_accessIZ4mainEUlP11HttpRequestP12HttpResponseE18_EERKT_v
FN:97,_ZNKSt9_Any_data9_M_accessIZ4mainEUlP11HttpRequestP12HttpResponseE8_EERKT_v
FNDA:4,_ZNKSt9_Any_data9_M_accessIZ4mainEUlP11HttpRequestP12HttpResponseE8_EERKT_v
FN:97,_ZNKSt9_Any_data9_M_accessIZ4mainEUlP11HttpRequestP12HttpResponseE9_EERKT_v
FNDA:4,_ZNKSt9_Any_data9_M_accessIZ4mainEUlP11HttpRequestP12HttpResponseE9_EERKT_v
FN:97,_ZNKSt9_Any_data9_M_accessIZ4mainEUlP11HttpRequestP12HttpResponseE10_EERKT_v
FNDA:4,_ZNKSt9_Any_data9_M_accessIZ4mainEUlP11HttpRequestP12HttpResponseE10_EERKT_v
FN:97,_ZNKSt9_Any_data9_M_accessIZ4mainEUlP11HttpRequestP12HttpResponseE11_EERKT_v
FNDA:4,_ZNKSt9_Any_data9_M_accessIZ4mainEUlP11HttpRequestP12HttpResponseE11_EERKT_v
FN:97,_ZNKSt9_Any_data9_M_accessIZ4mainEUlP11HttpRequestP12HttpResponseE12_EERKT_v
FNDA:4,_ZNKSt9_Any_data9_M_accessIZ4mainEUlP11HttpRequestP12HttpResponseE12_EERKT_v
FN:97,_ZNKSt9_Any_data9_M_accessIZ4mainEUlP11HttpRequestP12HttpResponseE13_EERKT_v
FNDA:4,_ZNKSt9_Any_data9_M_accessIZ4mainEUlP11HttpRequestP12HttpResponseE13_EERKT_v
FN:97,_ZNKSt9_Any_data9_M_accessIZ4mainEUlP11HttpRequestP12HttpResponseE14_EERKT_v
FNDA:4,_ZNKSt9_Any_data9_M_accessIZ4mainEUlP11HttpRequestP12HttpResponseE14_EERKT_v
FN:97,_ZNKSt9_Any_data9_M_accessIZ4mainEUlP11HttpRequestP12HttpResponseE15_EERKT_v
FNDA:4,_ZNKSt9_Any_data9_M_accessIZ4mainEUlP11HttpRequestP12HttpResponseE15_EERKT_v
FN:97,_ZNKSt9_Any_data9_M_accessIZ4mainEUlP11HttpRequestP12HttpResponseE16_EERKT_v
FNDA:4,_ZNKSt9_Any_data9_M_accessIZ4mainEUlP11HttpRequestP12HttpResponseE16_EERKT_v
FN:97,_ZNKSt9_Any_data9_M_accessIZ4mainEUlP11HttpRequestP12HttpResponseE17_EERKT_v
FNDA:4,_ZNKSt9_Any_data9_M_accessIZ4mainEUlP11HttpRequestP12HttpResponseE17_EERKT_v
FN:97,_ZNKSt9_Any_data9_M_accessIZ4mainEUlP11HttpRequestP12HttpResponseE53_EERKT_v
FNDA:4,_ZNKSt9_Any_data9_M_accessIZ4mainEUlP11HttpRequestP12HttpResponseE53_EERKT_v
FN:97,_ZNKSt9_Any_data9_M_accessIZ4mainEUlP11HttpRequestP12HttpResponseE78_EERKT_v
FNDA:4,_ZNKSt9_Any_data9_M_accessIZ4mainEUlP11HttpRequestP12HttpResponseE78_EERKT_v
FN:97,_ZNKSt9_Any_data9_M_accessIZ4mainEUlP11HttpRequestP12HttpResponseE61_EERKT_v
FNDA:4,_ZNKSt9_Any_data9_M_accessIZ4mainEUlP11HttpRequestP12HttpResponseE61_EERKT_v
FN:97,_ZNKSt9_Any_data9_M_accessIZ4mainEUlP11HttpRequestP12HttpResponseE45_EERKT_v
FNDA:4,_ZNKSt9_Any_data9_M_accessIZ4mainEUlP11HttpRequestP12HttpResponseE45_EERKT_v
FN:97,_ZNKSt9_Any_data9_M_accessIZ4mainEUlP11HttpRequestP12HttpResponseE77_EERKT_v
FNDA:4,_ZNKSt9_Any_data9_M_accessIZ4mainEUlP11HttpRequestP12HttpResponseE77_EERKT_v
FN:97,_ZNKSt9_Any_data9_M_accessIZ4mainEUlP11HttpRequestP12HttpResponseE55_EERKT_v
FNDA:4,_ZNKSt9_Any_data9_M_accessIZ4mainEUlP11HttpRequestP12HttpResponseE55_EERKT_v
FN:97,_ZNKSt9_Any_data9_M_accessIZ4mainEUlP11HttpRequestP12HttpResponseE62_EERKT_v
FNDA:4,_ZNKSt9_Any_data9_M_accessIZ4mainEUlP11HttpRequestP12HttpResponseE62_EERKT_v
FN:97,_ZNKSt9_Any_data9_M_accessIZ4mainEUlP11HttpRequestP12HttpResponseE76_EERKT_v
FNDA:4,_ZNKSt9_Any_data9_M_accessIZ4mainEUlP11HttpRequestP12HttpResponseE76_EERKT_v
FN:97,_ZNKSt9_Any_data9_M_accessIZ4mainEUlP11HttpRequestP12HttpResponseE46_EERKT_v
FNDA:4,_ZNKSt9_Any_data9_M_accessIZ4mainEUlP11HttpRequestP12HttpResponseE46_EERKT_v
FN:97,_ZNKSt9_Any_data9_M_accessIZ4mainEUlP11HttpRequestP12HttpResponseE54_EERKT_v
FNDA:4,_ZNKSt9_Any_data9_M_accessIZ4mainEUlP11HttpRequestP12HttpResponseE54_EERKT_v
FN:97,_ZNKSt9_Any_data9_M_accessIZ4mainEUlP11HttpRequestP12HttpResponseE75_EERKT_v
FNDA:4,_ZNKSt9_Any_data9_M_accessIZ4mainEUlP11HttpRequestP12HttpResponseE75_EERKT_v
FN:97,_ZNKSt9_Any_data9_M_accessIZ4mainEUlP11HttpRequestP12HttpResponseE63_EERKT_v
FNDA:4,_ZNKSt9_Any_data9_M_accessIZ4mainEUlP11HttpRequestP12HttpResponseE63_EERKT_v
FN:97,_ZNKSt9_Any_data9_M_accessIZ4mainEUlP11HttpRequestP12HttpResponseE47_EERKT_v
FNDA:3,_ZNKSt9_Any_data9_M_accessIZ4mainEUlP11HttpRequestP12HttpResponseE47_EERKT_v
FN:97,_ZNKSt9_Any_data9_M_accessIZ4mainEUlP11HttpRequestP12HttpResponseE74_EERKT_v
FNDA:4,_ZNKSt9_Any_data9_M_accessIZ4mainEUlP11HttpRequestP12HttpResponseE74_EERKT_v
FN:97,_ZNKSt9_Any_data9_M_accessIZ4mainEUlP11HttpRequestP12HttpResponseE64_EERKT_v
FNDA:4,_ZNKSt9_Any_data9_M_accessIZ4mainEUlP11HttpRequestP12HttpResponseE64_EERKT_v
FN:97,_ZNKSt9_Any_data9_M_accessIZ4mainEUlP11HttpRequestP12HttpResponseE41_EERKT_v
FNDA:4,_ZNKSt9_Any_data9_M_accessIZ4mainEUlP11HttpRequestP12HttpResponseE41_EERKT_v
FN:97,_ZNKSt9_Any_data9_M_accessIZ4mainEUlP11HttpRequestP12HttpResponseE73_EERKT_v
FNDA:4,_ZNKSt9_Any_data9_M_accessIZ4mainEUlP11HttpRequestP12HttpResponseE73_EERKT_v
FN:97,_ZNKSt9_Any_data9_M_accessIZ4mainEUlP11HttpRequestP12HttpResponseE65_EERKT_v
FNDA:4,_ZNKSt9_Any_data9_M_accessIZ4mainEUlP11HttpRequestP12HttpResponseE65_EERKT_v
FN:97,_ZNKSt9_Any_data9_M_accessIZ4mainEUlP11HttpRequestP12HttpResponseE48_EERKT_v
FNDA:4,_ZNKSt9_Any_data9_M_accessIZ4mainEUlP11HttpRequestP12HttpResponseE48_EERKT_v
FN:97,_ZNKSt9_Any_data9_M_accessIZ4mainEUlP11HttpRequestP12HttpResponseE72_EERKT_v
FNDA:4,_ZNKSt9_Any_data9_M_accessIZ4mainEUlP11HttpRequestP12HttpResponseE72_EERKT_v
FN:97,_ZNKSt9_Any_data9_M_accessIZ4mainEUlP11HttpRequestP12HttpResponseE66_EERKT_v
FNDA:4,_ZNKSt9_Any_data9_M_accessIZ4mainEUlP11HttpRequestP12HttpResponseE66_EERKT_v
FN:97,_ZNKSt9_Any_data9_M_accessIZ4mainEUlP11HttpRequestP12HttpResponseE52_EERKT_v
FNDA:4,_ZNKSt9_Any_data9_M_accessIZ4mainEUlP11HttpRequestP12HttpResponseE52_EERKT_v
FN:97,_ZNKSt9_Any_data9_M_accessIZ4mainEUlP11HttpRequestP12HttpResponseE71_EERKT_v
FNDA:4,_ZNKSt9_Any_data9_M_accessIZ4mainEUlP11HttpRequestP12HttpResponseE71_EERKT_v
FN:97,_ZNKSt9_Any_data9_M_accessIZ4mainEUlP11HttpRequestP12HttpResponseE49_EERKT_v
FNDA:4,_ZNKSt9_Any_data9_M_accessIZ4mainEUlP11HttpRequestP12HttpResponseE49_EERKT_v
FN:97,_ZNKSt9_Any_data9_M_accessIZ4mainEUlP11HttpRequestP12HttpResponseE67_EERKT_v
FNDA:4,_ZNKSt9_Any_data9_M_accessIZ4mainEUlP11HttpRequestP12HttpResponseE67_EERKT_v
FN:97,_ZNKSt9_Any_data9_M_accessIZ4mainEUlP11HttpRequestP12HttpResponseE70_EERKT_v
FNDA:4,_ZNKSt9_Any_data9_M_accessIZ4mainEUlP11HttpRequestP12HttpResponseE70_EERKT_v
FN:97,_ZNKSt9_Any_data9_M_accessIZ4mainEUlP11HttpRequestP12HttpResponseE51_EERKT_v
FNDA:4,_ZNKSt9_Any_data9_M_accessIZ4mainEUlP11HttpRequestP12HttpResponseE51_EERKT_v
FN:97,_ZNKSt9_Any_data9_M_accessIZ4mainEUlP11HttpRequestP12HttpResponseE50_EERKT_v
FNDA:4,_ZNKSt9_Any_data9_M_accessIZ4mainEUlP11HttpRequestP12HttpResponseE50_EERKT_v
FN:97,_ZNKSt9_Any_data9_M_accessIZ4mainEUlP11HttpRequestP12HttpResponseE68_EERKT_v
FNDA:4,_ZNKSt9_Any_data9_M_accessIZ4mainEUlP11HttpRequestP12HttpResponseE68_EERKT_v
FN:97,_ZNKSt9_Any_data9_M_accessIZ4mainEUlP11HttpRequestP12HttpResponseE69_EERKT_v
FNDA:4,_ZNKSt9_Any_data9_M_accessIZ4mainEUlP11HttpRequestP12HttpResponseE69_EERKT_v
FN:97,_ZNKSt9_Any_data9_M_accessIZ4mainEUlP11HttpRequestP12HttpResponseE83_EERKT_v
FNDA:4,_ZNKSt9_Any_data9_M_accessIZ4mainEUlP11HttpRequestP12HttpResponseE83_EERKT_v
FN:97,_ZNKSt9_Any_data9_M_accessIZ4mainEUlP11HttpRequestP12HttpResponseE80_EERKT_v
FNDA:4,_ZNKSt9_Any_data9_M_accessIZ4mainEUlP11HttpRequestP12HttpResponseE80_EERKT_v
FN:97,_ZNKSt9_Any_data9_M_accessIZ4mainEUlP11HttpRequestP12HttpResponseE58_EERKT_v
FNDA:4,_ZNKSt9_Any_data9_M_accessIZ4mainEUlP11HttpRequestP12HttpResponseE58_EERKT_v
FN:97,_ZNKSt9_Any_data9_M_accessIZ4mainEUlP11HttpRequestP12HttpResponseE59_EERKT_v
FNDA:4,_ZNKSt9_Any_data9_M_accessIZ4mainEUlP11HttpRequestP12HttpResponseE59_EERKT_v
FN:97,_ZNKSt9_Any_data9_M_accessIZ4mainEUlP11HttpRequestP12HttpResponseE42_EERKT_v
FNDA:4,_ZNKSt9_Any_data9_M_accessIZ4mainEUlP11HttpRequestP12HttpResponseE42_EERKT_v
FN:97,_ZNKSt9_Any_data9_M_accessIZ4mainEUlP11HttpRequestP12HttpResponseE82_EERKT_v
FNDA:4,_ZNKSt9_Any_data9_M_accessIZ4mainEUlP11HttpRequestP12HttpResponseE82_EERKT_v
FN:97,_ZNKSt9_Any_data9_M_accessIZ4mainEUlP11HttpRequestP12HttpResponseE43_EERKT_v
FNDA:4,_ZNKSt9_Any_data9_M_accessIZ4mainEUlP11HttpRequestP12HttpResponseE43_EERKT_v
FN:97,_ZNKSt9_Any_data9_M_accessIZ4mainEUlP11HttpRequestP12HttpResponseE79_EERKT_v
FNDA:4,_ZNKSt9_Any_data9_M_accessIZ4mainEUlP11HttpRequestP12HttpResponseE79_EERKT_v
FN:97,_ZNKSt9_Any_data9_M_accessIZ4mainEUlP11HttpRequestP12HttpResponseE44_EERKT_v
FNDA:4,_ZNKSt9_Any_data9_M_accessIZ4mainEUlP11HttpRequestP12HttpResponseE44_EERKT_v
FN:97,_ZNKSt9_Any_data9_M_accessIZ4mainEUlP11HttpRequestP12HttpResponseE60_EERKT_v
FNDA:4,_ZNKSt9_Any_data9_M_accessIZ4mainEUlP11HttpRequestP12HttpResponseE60_EERKT_v
FN:97,_ZNKSt9_Any_data9_M_accessIZ4mainEUlP11HttpRequestP12HttpResponseE81_EERKT_v
FNDA:4,_ZNKSt9_Any_data9_M_accessIZ4mainEUlP11HttpRequestP12HttpResponseE81_EERKT_v
FN:97,_ZNKSt9_Any_data9_M_accessIZ4mainEUlP11HttpRequestP12HttpResponseE57_EERKT_v
FNDA:4,_ZNKSt9_Any_data9_M_accessIZ4mainEUlP11HttpRequestP12HttpResponseE57_EERKT_v
FN:97,_ZNKSt9_Any_data9_M_accessIZ4mainEUlP11HttpRequestP12HttpResponseE56_EERKT_v
FNDA:4,_ZNKSt9_Any_data9_M_accessIZ4mainEUlP11HttpRequestP12HttpResponseE56_EERKT_v
FN:136,_ZNSt14_Function_base13_Base_managerIZ4mainEUlP11HttpRequestP12HttpResponseE53_E14_M_get_pointerERKSt9_Any_data
FNDA:0,_ZNSt14_Function_base13_Base_managerIZ4mainEUlP11HttpRequestP12HttpResponseE53_E14_M_get_pointerERKSt9_Any_data
FN:136,_ZNSt14_Function_base13_Base_managerIZ4mainEUlP11HttpRequestP12HttpResponseE49_E14_M_get_pointerERKSt9_Any_data
FNDA:0,_ZNSt14_Function_base13_Base_managerIZ4mainEUlP11HttpRequestP12HttpResponseE49_E14_M_get_pointerERKSt9_Any_data
FN:136,_ZNSt14_Function_base13_Base_managerIZ4mainEUlP11HttpRequestP12HttpResponseE52_E14_M_get_pointerERKSt9_Any_data
FNDA:0,_ZNSt14_Function_base13_Base_managerIZ4mainEUlP11HttpRequestP12HttpResponseE52_E14_M_get_pointerERKSt9_Any_data
FN:136,_ZNSt14_Function_base13_Base_managerIZ4mainEUlP11HttpRequestP12HttpResponseE80_E14_M_get_pointerERKSt9_Any_data
FNDA:0,_ZNSt14_Function_base13_Base_managerIZ4mainEUlP11HttpRequestP12HttpResponseE80_E14_M_get_pointerERKSt9_Any_data
FN:136,_ZNSt14_Function_base13_Base_managerIZ4mainEUlP11HttpRequestP12HttpResponseE51_E14_M_get_pointerERKSt9_Any_data
FNDA:0,_ZNSt14_Function_base13_Base_managerIZ4mainEUlP11HttpRequestP12HttpResponseE51_E14_M_get_pointerERKSt9_Any_data
FN:136,_ZNSt14_Function_base13_Base_managerIZ4mainEUlP11HttpRequestP12HttpResponseE74_E14_M_get_pointerERKSt9_Any_data
FNDA:0,_ZNSt14_Function_base13_Base_managerIZ4mainEUlP11HttpRequestP12HttpResponseE74_E14_M_get_pointerERKSt9_Any_data
FN:136,_ZNSt14_Function_base13_Base_managerIZ4mainEUlP11HttpRequestP12HttpResponseE50_E14_M_get_pointerERKSt9_Any_data
FNDA:0,_ZNSt14_Function_base13_Base_managerIZ4mainEUlP11HttpRequestP12HttpResponseE50_E14_M_get_pointerERKSt9_Any_data
FN:136,_ZNSt14_Function_base13_Base_managerIZ4mainEUlP11HttpRequestP12HttpResponseE75_E14_M_get_pointerERKSt9_Any_data
FNDA:0,_ZNSt14_Function_base13_Base_managerIZ4mainEUlP11HttpRequestP12HttpResponseE75_E14_M_get_pointerERKSt9_Any_data
FN:136,_ZNSt14_Function_base13_Base_managerIZ4mainEUlP11HttpRequestP12HttpResponseE56_E14_M_get_pointerERKSt9_Any_data
FNDA:0,_ZNSt14_Function_base13_Base_managerIZ4mainEUlP11HttpRequestP12HttpResponseE56_E14_M_get_pointerERKSt9_Any_data
FN:136,_ZNSt14_Function_base13_Base_managerIZ4mainEUlP11HttpRequestP12HttpResponseE48_E14_M_get_pointerERKSt9_Any_data
FNDA:0,_ZNSt14_Function_base13_Base_managerIZ4mainEUlP11HttpRequestP12HttpResponseE48_E14_M_get_pointerERKSt9_Any_data
FN:136,_ZNSt14_Function_base13_Base_managerIZ4mainEUlP11HttpRequestP12HttpResponseE76_E14_M_get_pointerERKSt9_Any_data
FNDA:0,_ZNSt14_Function_base13_Base_managerIZ4mainEUlP11HttpRequestP12HttpResponseE76_E14_M_get_pointerERKSt9_Any_data
FN:136,_ZNSt14_Function_base13_Base_managerIZ4mainEUlP11HttpRequestP12HttpResponseE47_E14_M_get_pointerERKSt9_Any_data
FNDA:0,_ZNSt14_Function_base13_Base_managerIZ4mainEUlP11HttpRequestP12HttpResponseE47_E14_M_get_pointerERKSt9_Any_data
FN:136,_ZNSt14_Function_base13_Base_managerIZ4mainEUlP11HttpRequestP12HttpResponseE79_E14_M_get_pointerERKSt9_Any_data
FNDA:0,_ZNSt14_Function_base13_Base_managerIZ4mainEUlP11HttpRequestP12HttpResponseE79_E14_M_get_pointerERKSt9_Any_data
FN:136,_ZNSt14_Function_base13_Base_managerIZ4mainEUlP11HttpRequestP12HttpResponseE46_E14_M_get_pointerERKSt9_Any_data
FNDA:0,_ZNSt14_Function_base13_Base_managerIZ4mainEUlP11HttpRequestP12HttpResponseE46_E14_M_get_pointerERKSt9_Any_data
FN:136,_ZNSt14_Function_base13_Base_managerIZ4mainEUlP11HttpRequestP12HttpResponseE45_E14_M_get_pointerERKSt9_Any_data
FNDA:0,_ZNSt14_Function_base13_Base_managerIZ4mainEUlP11HttpRequestP12HttpResponseE45_E14_M_get_pointerERKSt9_Any_data
FN:136,_ZNSt14_Function_base13_Base_managerIZ4mainEUlP11HttpRequestP12HttpResponseE77_E14_M_get_pointerERKSt9_Any_data
FNDA:0,_ZNSt14_Function_base13_Base_managerIZ4mainEUlP11HttpRequestP12HttpResponseE77_E14_M_get_pointerERKSt9_Any_data
FN:136,_ZNSt14_Function_base13_Base_managerIZ4mainEUlP11HttpRequestP12HttpResponseE78_E14_M_get_pointerERKSt9_Any_data
FNDA:0,_ZNSt14_Function_base13_Base_managerIZ4mainEUlP11HttpRequestP12HttpResponseE78_E14_M_get_pointerERKSt9_Any_data
FN:136,_ZNSt14_Function_base13_Base_managerIZ4mainEUlP11HttpRequestP12HttpResponseE44_E14_M_get_pointerERKSt9_Any_data
FNDA:0,_ZNSt14_Function_base13_Base_managerIZ4mainEUlP11HttpRequestP12HttpResponseE44_E14_M_get_pointerERKSt9_Any_data
FN:136,_ZNSt14_Function_base13_Base_managerIZ4mainEUlP11HttpRequestP12HttpResponseE71_E14_M_get_pointerERKSt9_Any_data
FNDA:0,_ZNSt14_Function_base13_Base_managerIZ4mainEUlP11HttpRequestP12HttpResponseE71_E14_M_get_pointerERKSt9_Any_data
FN:136,_ZNSt14_Function_base13_Base_managerIZ4mainEUlP11HttpRequestP12HttpResponseE67_E14_M_get_pointerERKSt9_Any_data
FNDA:0,_ZNSt14_Function_base13_Base_managerIZ4mainEUlP11HttpRequestP12HttpResponseE67_E14_M_get_pointerERKSt9_Any_data
FN:136,_ZNSt14_Function_base13_Base_managerIZ4mainEUlP11HttpRequestP12HttpResponseE68_E14_M_get_pointerERKSt9_Any_data
FNDA:0,_ZNSt14_Function_base13_Base_managerIZ4mainEUlP11HttpRequestP12HttpResponseE68_E14_M_get_pointerERKSt9_Any_data
FN:136,_ZNSt14_Function_base13_Base_managerIZ4mainEUlP11HttpRequestP12HttpResponseE66_E14_M_get_pointerERKSt9_Any_data
FNDA:0,_ZNSt14_Function_base13_Base_managerIZ4mainEUlP11HttpRequestP12HttpResponseE66_E14_M_get_pointerERKSt9_Any_data
FN:136,_ZNSt14_Function_base13_Base_managerIZ4mainEUlP11HttpRequestP12HttpResponseE85_E14_M_get_pointerERKSt9_Any_data
FNDA:0,_ZNSt14_Function_base13_Base_managerIZ4mainEUlP11HttpRequestP12HttpResponseE85_E14_M_get_pointerERKSt9_Any_data
FN:136,_ZNSt14_Function_base13_Base_managerIZ4mainEUlP11HttpRequestP12HttpResponseE65_E14_M_get_pointerERKSt9_Any_data
FNDA:0,_ZNSt14_Function_base13_Base_managerIZ4mainEUlP11HttpRequestP12HttpResponseE65_E14_M_get_pointerERKSt9_Any_data
FN:136,_ZNSt14_Function_base13_Base_managerIZ4mainEUlP11HttpRequestP12HttpResponseE69_E14_M_get_pointerERKSt9_Any_data
FNDA:0,_ZNSt14_Function_base13_Base_managerIZ4mainEUlP11HttpRequestP12HttpResponseE69_E14_M_get_pointerERKSt9_Any_data
FN:136,_ZNSt14_Function_base13_Base_managerIZ4mainEUlP11HttpRequestP12HttpResponseE64_E14_M_get_pointerERKSt9_Any_data
FNDA:0,_ZNSt14_Function_base13_Base_managerIZ4mainEUlP11HttpRequestP12HttpResponseE64_E14_M_get_pointerERKSt9_Any_data
FN:136,_ZNSt14_Function_base13_Base_managerIZ4mainEUlP11HttpRequestP12HttpResponseE63_E14_M_get_pointerERKSt9_Any_data
FNDA:0,_ZNSt14_Function_base13_Base_managerIZ4mainEUlP11HttpRequestP12HttpResponseE63_E14_M_get_pointerERKSt9_Any_data
FN:136,_ZNSt14_Function_base13_Base_managerIZ4mainEUlP11HttpRequestP12HttpResponseE83_E14_M_get_pointerERKSt9_Any_data
FNDA:0,_ZNSt14_Function_base13_Base_managerIZ4mainEUlP11HttpRequestP12HttpResponseE83_E14_M_get_pointerERKSt9_Any_data
FN:136,_ZNSt14_Function_base13_Base_managerIZ4mainEUlP11HttpRequestP12HttpResponseE70_E14_M_get_pointerERKSt9_Any_data
FNDA:0,_ZNSt14_Function_base13_Base_managerIZ4mainEUlP11HttpRequestP12HttpResponseE70_E14_M_get_pointerERKSt9_Any_data
FN:136,_ZNSt14_Function_base13_Base_managerIZ4mainEUlP11HttpRequestP12HttpResponseE62_E14_M_get_pointerERKSt9_Any_data
FNDA:0,_ZNSt14_Function_base13_Base_managerIZ4mainEUlP11HttpRequestP12HttpResponseE62_E14_M_get_pointerERKSt9_Any_data
FN:136,_ZNSt14_Function_base13_Base_managerIZ4mainEUlP11HttpRequestP12HttpResponseE54_E14_M_get_pointerERKSt9_Any_data
FNDA:0,_ZNSt14_Function_base13_Base_managerIZ4mainEUlP11HttpRequestP12HttpResponseE54_E14_M_get_pointerERKSt9_Any_data
FN:136,_ZNSt14_Function_base13_Base_managerIZ4mainEUlP11HttpRequestP12HttpResponseE61_E14_M_get_pointerERKSt9_Any_data
FNDA:0,_ZNSt14_Function_base13_Base_managerIZ4mainEUlP11HttpRequestP12HttpResponseE61_E14_M_get_pointerERKSt9_Any_data
FN:136,_ZNSt14_Function_base13_Base_managerIZ4mainEUlP11HttpRequestP12HttpResponseE60_E14_M_get_pointerERKSt9_Any_data
FNDA:0,_ZNSt14_Function_base13_Base_managerIZ4mainEUlP11HttpRequestP12HttpResponseE60_E14_M_get_pointerERKSt9_Any_data
FN:136,_ZNSt14_Function_base13_Base_managerIZ4mainEUlP11HttpRequestP12HttpResponseE82_E14_M_get_pointerERKSt9_Any_data
FNDA:0,_ZNSt14_Function_base13_Base_managerIZ4mainEUlP11HttpRequestP12HttpResponseE82_E14_M_get_pointerERKSt9_Any_data
FN:136,_ZNSt14_Function_base13_Base_managerIZ4mainEUlP11HttpRequestP12HttpResponseE59_E14_M_get_pointerERKSt9_Any_data
FNDA:0,_ZNSt14_Function_base13_Base_managerIZ4mainEUlP11HttpRequestP12HttpResponseE59_E14_M_get_pointerERKSt9_Any_data
FN:136,_ZNSt14_Function_base13_Base_managerIZ4mainEUlP11HttpRequestP12HttpResponseE58_E14_M_get_pointerERKSt9_Any_data
FNDA:0,_ZNSt14_Function_base13_Base_managerIZ4mainEUlP11HttpRequestP12HttpResponseE58_E14_M_get_pointerERKSt9_Any_data
FN:136,_ZNSt14_Function_base13_Base_managerIZ4mainEUlP11HttpRequestP12HttpResponseE57_E14_M_get_pointerERKSt9_Any_data
FNDA:0,_ZNSt14_Function_base13_Base_managerIZ4mainEUlP11HttpRequestP12HttpResponseE57_E14_M_get_pointerERKSt9_Any_data
FN:136,_ZNSt14_Function_base13_Base_managerIZ4mainEUlP11HttpRequestP12HttpResponseE72_E14_M_get_pointerERKSt9_Any_data
FNDA:0,_ZNSt14_Function_base13_Base_managerIZ4mainEUlP11HttpRequestP12HttpResponseE72_E14_M_get_pointerERKSt9_Any_data
FN:136,_ZNSt14_Function_base13_Base_managerIZ4mainEUlP11HttpRequestP12HttpResponseE73_E14_M_get_pointerERKSt9_Any_data
FNDA:0,_ZNSt14_Function_base13_Base_managerIZ4mainEUlP11HttpRequestP12HttpResponseE73_E14_M_get_pointerERKSt9_Any_data
FN:136,_ZNSt14_Function_base13_Base_managerIZ4mainEUlP11HttpRequestP12HttpResponseE84_E14_M_get_pointerERKSt9_Any_data
FNDA:0,_ZNSt14_Function_base13_Base_managerIZ4mainEUlP11HttpRequestP12HttpResponseE84_E14_M_get_pointerERKSt9_Any_data
FN:136,_ZNSt14_Function_base13_Base_managerIZ4mainEUlP11HttpRequestP12HttpResponseE55_E14_M_get_pointerERKSt9_Any_data
FNDA:0,_ZNSt14_Function_base13_Base_managerIZ4mainEUlP11HttpRequestP12HttpResponseE55_E14_M_get_pointerERKSt9_Any_data
FN:136,_ZNSt14_Function_base13_Base_managerIZ4mainEUlP11HttpRequestP12HttpResponseE81_E14_M_get_pointerERKSt9_Any_data
FNDA:0,_ZNSt14_Function_base13_Base_managerIZ4mainEUlP11HttpRequestP12HttpResponseE81_E14_M_get_pointerERKSt9_Any_data
FN:136,_ZNSt14_Function_base13_Base_managerIZ4mainEUlP11HttpRequestP12HttpResponseE19_E14_M_get_pointerERKSt9_Any_data
FNDA:0,_ZNSt14_Function_base13_Base_managerIZ4mainEUlP11HttpRequestP12HttpResponseE19_E14_M_get_pointerERKSt9_Any_data
FN:136,_ZNSt14_Function_base13_Base_managerIZ4mainEUlP11HttpRequestP12HttpResponseE28_E14_M_get_pointerERKSt9_Any_data
FNDA:0,_ZNSt14_Function_base13_Base_managerIZ4mainEUlP11HttpRequestP12HttpResponseE28_E14_M_get_pointerERKSt9_Any_data
FN:136,_ZNSt14_Function_base13_Base_managerIZ4mainEUlP11HttpRequestP12HttpResponseE26_E14_M_get_pointerERKSt9_Any_data
FNDA:0,_ZNSt14_Function_base13_Base_managerIZ4mainEUlP11HttpRequestP12HttpResponseE26_E14_M_get_pointerERKSt9_Any_data
FN:136,_ZNSt14_Function_base13_Base_managerIZ4mainEUlP11HttpRequestP12HttpResponseE25_E14_M_get_pointerERKSt9_Any_data
FNDA:0,_ZNSt14_Function_base13_Base_managerIZ4mainEUlP11HttpRequestP12HttpResponseE25_E14_M_get_pointerERKSt9_Any_data
FN:136,_ZNSt14_Function_base13_Base_managerIZ4mainEUlP11HttpRequestP12HttpResponseE24_E14_M_get_pointerERKSt9_Any_data
FNDA:0,_ZNSt14_Function_base13_Base_managerIZ4mainEUlP11HttpRequestP12HttpResponseE24_E14_M_get_pointerERKSt9_Any_data
FN:136,_ZNSt14_Function_base13_Base_managerIZ4mainEUlP11HttpRequestP12HttpResponseE23_E14_M_get_pointerERKSt9_Any_data
FNDA:0,_ZNSt14_Function_base13_Base_managerIZ4mainEUlP11HttpRequestP12HttpResponseE23_E14_M_get_pointerERKSt9_Any_data
FN:136,_ZNSt14_Function_base13_Base_managerIZ4mainEUlP11HttpRequestP12HttpResponseE5_E14_M_get_pointerERKSt9_Any_data
FNDA:0,_ZNSt14_Function_base13_Base_managerIZ4mainEUlP11HttpRequestP12HttpResponseE5_E14_M_get_pointerERKSt9_Any_data
FN:136,_ZNSt14_Function_base13_Base_managerIZ4mainEUlP11HttpRequestP12HttpResponseE22_E14_M_get_pointerERKSt9_Any_data
FNDA:0,_ZNSt14_Function_base13_Base_managerIZ4mainEUlP11HttpRequestP12HttpResponseE22_E14_M_get_pointerERKSt9_Any_data
FN:136,_ZNSt14_Function_base13_Base_managerIZ4mainEUlP11HttpRequestP12HttpResponseE6_E14_M_get_pointerERKSt9_Any_data
FNDA:0,_ZNSt14_Function_base13_Base_managerIZ4mainEUlP11HttpRequestP12HttpResponseE6_E14_M_get_pointerERKSt9_Any_data
FN:136,_ZNSt14_Function_base13_Base_managerIZ4mainEUlP11HttpRequestP12HttpResponseE21_E14_M_get_pointerERKSt9_Any_data
FNDA:0,_ZNSt14_Function_base13_Base_managerIZ4mainEUlP11HttpRequestP12HttpResponseE21_E14_M_get_pointerERKSt9_Any_data
FN:136,_ZNSt14_Function_base13_Base_managerIZ4mainEUlP11HttpRequestP12HttpResponseE20_E14_M_get_pointerERKSt9_Any_data
FNDA:0,_ZNSt14_Function_base13_Base_managerIZ4mainEUlP11HttpRequestP12HttpResponseE20_E14_M_get_pointerERKSt9_Any_data
FN:136,_ZNSt14_Function_base13_Base_managerIZ4mainEUlP11HttpRequestP12HttpResponseE7_E14_M_get_pointerERKSt9_Any_data
FNDA:0,_ZNSt14_Function_base13_Base_managerIZ4mainEUlP11HttpRequestP12HttpResponseE7_E14_M_get_pointerERKSt9_Any_data
FN:136,_ZNSt14_Function_base13_Base_managerIZ4mainEUlP11HttpRequestP12HttpResponseE27_E14_M_get_pointerERKSt9_Any_data
FNDA:0,_ZNSt14_Function_base13_Base_managerIZ4mainEUlP11HttpRequestP12HttpResponseE27_E14_M_get_pointerERKSt9_Any_data
FN:136,_ZNSt14_Function_base13_Base_managerIZ4mainEUlP11HttpRequestP12HttpResponseE18_E14_M_get_pointerERKSt9_Any_data
FNDA:0,_ZNSt14_Function_base13_Base_managerIZ4mainEUlP11HttpRequestP12HttpResponseE18_E14_M_get_pointerERKSt9_Any_data
FN:136,_ZNSt14_Function_base13_Base_managerIZ4mainEUlP11HttpRequestP12HttpResponseE17_E14_M_get_pointerERKSt9_Any_data
FNDA:0,_ZNSt14_Function_base13_Base_managerIZ4mainEUlP11HttpRequestP12HttpResponseE17_E14_M_get_pointerERKSt9_Any_data
FN:136,_ZNSt14_Function_base13_Base_managerIZ4mainEUlP11HttpRequestP12HttpResponseE8_E14_M_get_pointerERKSt9_Any_data
FNDA:0,_ZNSt14_Function_base13_Base_managerIZ4mainEUlP11HttpRequestP12HttpResponseE8_E14_M_get_pointerERKSt9_Any_data
FN:136,_ZNSt14_Function_base13_Base_managerIZ4mainEUlP11HttpRequestP12HttpResponseE16_E14_M_get_pointerERKSt9_Any_data
FNDA:0,_ZNSt14_Function_base13_Base_managerIZ4mainEUlP11HttpRequestP12HttpResponseE16_E14_M_get_pointerERKSt9_Any_data
FN:136,_ZNSt14_Function_base13_Base_managerIZ4mainEUlP11HttpRequestP12HttpResponseE15_E14_M_get_pointerERKSt9_Any_data
FNDA:0,_ZNSt14_Function_base13_Base_managerIZ4mainEUlP11HttpRequestP12HttpResponseE15_E14_M_get_pointerERKSt9_Any_data
FN:136,_ZNSt14_Function_base13_Base_managerIZ4mainEUlP11HttpRequestP12HttpResponseE14_E14_M_get_pointerERKSt9_Any_data
FNDA:0,_ZNSt14_Function_base13_Base_managerIZ4mainEUlP11HttpRequestP12HttpResponseE14_E14_M_get_pointerERKSt9_Any_data
FN:136,_ZNSt14_Function_base13_Base_managerIZ4mainEUlP11HttpRequestP12HttpResponseE9_E14_M_get_pointerERKSt9_Any_data
FNDA:0,_ZNSt14_Function_base13_Base_managerIZ4mainEUlP11HttpRequestP12HttpResponseE9_E14_M_get_pointerERKSt9_Any_data
FN:136,_ZNSt14_Function_base13_Base_managerIZ4mainEUlP11HttpRequestP12HttpResponseE13_E14_M_get_pointerERKSt9_Any_data
FNDA:0,_ZNSt14_Function_base13_Base_managerIZ4mainEUlP11HttpRequestP12HttpResponseE13_E14_M_get_pointerERKSt9_Any_data
FN:136,_ZNSt14_Function_base13_Base_managerIZ4mainEUlP11HttpRequestP12HttpResponseE12_E14_M_get_pointerERKSt9_Any_data
FNDA:0,_ZNSt14_Function_base13_Base_managerIZ4mainEUlP11HttpRequestP12HttpResponseE12_E14_M_get_pointerERKSt9_Any_data
FN:136,_ZNSt14_Function_base13_Base_managerIZ4mainEUlP11HttpRequestP12HttpResponseE11_E14_M_get_pointerERKSt9_Any_data
FNDA:0,_ZNSt14_Function_base13_Base_managerIZ4mainEUlP11HttpRequestP12HttpResponseE11_E14_M_get_pointerERKSt9_Any_data
FN:136,_ZNSt14_Function_base13_Base_managerIZ4mainEUlP11HttpRequestP12HttpResponseE10_E14_M_get_pointerERKSt9_Any_data
FNDA:0,_ZNSt14_Function_base13_Base_managerIZ4mainEUlP11HttpRequestP12HttpResponseE10_E14_M_get_pointerERKSt9_Any_data
FN:136,_ZNSt14_Function_base13_Base_managerIZ4mainEUlP11HttpRequestP12HttpResponseE35_E14_M_get_pointerERKSt9_Any_data
FNDA:0,_ZNSt14_Function_base13_Base_managerIZ4mainEUlP11HttpRequestP12HttpResponseE35_E14_M_get_pointerERKSt9_Any_data
FN:136,_ZNSt14_Function_base13_Base_managerIZ4mainEUlP11HttpRequestP12HttpResponseE43_E14_M_get_pointerERKSt9_Any_data
FNDA:0,_ZNSt14_Function_base13_Base_managerIZ4mainEUlP11HttpRequestP12HttpResponseE43_E14_M_get_pointerERKSt9_Any_data
FN:136,_ZNSt14_Function_base13_Base_managerIZ4mainEUlP11HttpRequestP12HttpResponseE42_E14_M_get_pointerERKSt9_Any_data
FNDA:0,_ZNSt14_Function_base13_Base_managerIZ4mainEUlP11HttpRequestP12HttpResponseE42_E14_M_get_pointerERKSt9_Any_data
FN:136,_ZNSt14_Function_base13_Base_managerIZ4mainEUlP11HttpRequestP12HttpResponseE41_E14_M_get_pointerERKSt9_Any_data
FNDA:0,_ZNSt14_Function_base13_Base_managerIZ4mainEUlP11HttpRequestP12HttpResponseE41_E14_M_get_pointerERKSt9_Any_data
FN:136,_ZNSt14_Function_base13_Base_managerIZ4mainEUlP11HttpRequestP12HttpResponseE_E14_M_get_pointerERKSt9_Any_data
FNDA:0,_ZNSt14_Function_base13_Base_managerIZ4mainEUlP11HttpRequestP12HttpResponseE_E14_M_get_pointerERKSt9_Any_data
FN:136,_ZNSt14_Function_base13_Base_managerIZ4mainEUlP11HttpRequestP12HttpResponseE40_E14_M_get_pointerERKSt9_Any_data
FNDA:0,_ZNSt14_Function_base13_Base_managerIZ4mainEUlP11HttpRequestP12HttpResponseE40_E14_M_get_pointerERKSt9_Any_data
FN:136,_ZNSt14_Function_base13_Base_managerIZ4mainEUlP11HttpRequestP12HttpResponseE39_E14_M_get_pointerERKSt9_Any_data
FNDA:0,_ZNSt14_Function_base13_Base_managerIZ4mainEUlP11HttpRequestP12HttpResponseE39_E14_M_get_pointerERKSt9_Any_data
FN:136,_ZNSt14_Function_base13_Base_managerIZ4mainEUlP11HttpRequestP12HttpResponseE38_E14_M_get_pointerERKSt9_Any_data
FNDA:0,_ZNSt14_Function_base13_Base_managerIZ4mainEUlP11HttpRequestP12HttpResponseE38_E14_M_get_pointerERKSt9_Any_data
FN:136,_ZNSt14_Function_base13_Base_managerIZ4mainEUlP11HttpRequestP12HttpResponseE37_E14_M_get_pointerERKSt9_Any_data
FNDA:0,_ZNSt14_Function_base13_Base_managerIZ4mainEUlP11HttpRequestP12HttpResponseE37_E14_M_get_pointerERKSt9_Any_data
FN:136,_ZNSt14_Function_base13_Base_managerIZ4mainEUlP11HttpRequestP12HttpResponseE36_E14_M_get_pointerERKSt9_Any_data
FNDA:0,_ZNSt14_Function_base13_Base_managerIZ4mainEUlP11HttpRequestP12HttpResponseE36_E14_M_get_pointerERKSt9_Any_data
FN:136,_ZNSt14_Function_base13_Base_managerIZ4mainEUlP11HttpRequestP12HttpResponseE0_E14_M_get_pointerERKSt9_Any_data
FNDA:0,_ZNSt14_Function_base13_Base_managerIZ4mainEUlP11HttpRequestP12HttpResponseE0_E14_M_get_pointerERKSt9_Any_data
FN:136,_ZNSt14_Function_base13_Base_managerIZ4mainEUlP11HttpRequestP12HttpResponseE4_E14_M_get_pointerERKSt9_Any_data
FNDA:0,_ZNSt14_Function_base13_Base_managerIZ4mainEUlP11HttpRequestP12HttpResponseE4_E14_M_get_pointerERKSt9_Any_data
FN:136,_ZNSt14_Function_base13_Base_managerIZ4mainEUlP11HttpRequestP12HttpResponseE1_E14_M_get_pointerERKSt9_Any_data
FNDA:0,_ZNSt14_Function_base13_Base_managerIZ4mainEUlP11HttpRequestP12HttpResponseE1_E14_M_get_pointerERKSt9_Any_data
FN:136,_ZNSt14_Function_base13_Base_managerIZ4mainEUlP11HttpRequestP12HttpResponseE34_E14_M_get_pointerERKSt9_Any_data
FNDA:0,_ZNSt14_Function_base13_Base_managerIZ4mainEUlP11HttpRequestP12HttpResponseE34_E14_M_get_pointerERKSt9_Any_data
FN:136,_ZNSt14_Function_base13_Base_managerIZ4mainEUlP11HttpRequestP12HttpResponseE33_E14_M_get_pointerERKSt9_Any_data
FNDA:0,_ZNSt14_Function_base13_Base_managerIZ4mainEUlP11HttpRequestP12HttpResponseE33_E14_M_get_pointerERKSt9_Any_data
FN:136,_ZNSt14_Function_base13_Base_managerIZ4mainEUlP11HttpRequestP12HttpResponseE32_E14_M_get_pointerERKSt9_Any_data
FNDA:0,_ZNSt14_Function_base13_Base_managerIZ4mainEUlP11HttpRequestP12HttpResponseE32_E14_M_get_pointerERKSt9_Any_data
FN:136,_ZNSt14_Function_base13_Base_managerIZ4mainEUlP11HttpRequestP12HttpResponseE2_E14_M_get_pointerERKSt9_Any_data
FNDA:0,_ZNSt14_Function_base13_Base_managerIZ4mainEUlP11HttpRequestP12HttpResponseE2_E14_M_get_pointerERKSt9_Any_data
FN:136,_ZNSt14_Function_base13_Base_managerIZ4mainEUlP11HttpRequestP12HttpResponseE31_E14_M_get_pointerERKSt9_Any_data
FNDA:0,_ZNSt14_Function_base13_Base_managerIZ4mainEUlP11HttpRequestP12HttpResponseE31_E14_M_get_pointerERKSt9_Any_data
FN:136,_ZNSt14_Function_base13_Base_managerIZ4mainEUlP11HttpRequestP12HttpResponseE30_E14_M_get_pointerERKSt9_Any_data
FNDA:0,_ZNSt14_Function_base13_Base_managerIZ4mainEUlP11HttpRequestP12HttpResponseE30_E14_M_get_pointerERKSt9_Any_data
FN:136,_ZNSt14_Function_base13_Base_managerIZ4mainEUlP11HttpRequestP12HttpResponseE29_E14_M_get_pointerERKSt9_Any_data
FNDA:0,_ZNSt14_Function_base13_Base_managerIZ4mainEUlP11HttpRequestP12HttpResponseE29_E14_M_get_pointerERKSt9_Any_data
FN:136,_ZNSt14_Function_base13_Base_managerIZ4mainEUlP11HttpRequestP12HttpResponseE3_E14_M_get_pointerERKSt9_Any_data
FNDA:0,_ZNSt14_Function_base13_Base_managerIZ4mainEUlP11HttpRequestP12HttpResponseE3_E14_M_get_pointerERKSt9_Any_data
FN:150,_ZNSt14_Function_base13_Base_managerIZ4mainEUlP11HttpRequestP12HttpResponseE80_E8_M_cloneERSt9_Any_dataRKS7_St17integral_constantIbLb1EE
FNDA:4,_ZNSt14_Function_base13_Base_managerIZ4mainEUlP11HttpRequestP12HttpResponseE80_E8_M_cloneERSt9_Any_dataRKS7_St17integral_constantIbLb1EE
FN:150,_ZNSt14_Function_base13_Base_managerIZ4mainEUlP11HttpRequestP12HttpResponseE82_E8_M_cloneERSt9_Any_dataRKS7_St17integral_constantIbLb1EE
FNDA:4,_ZNSt14_Function_base13_Base_managerIZ4mainEUlP11HttpRequestP12HttpResponseE82_E8_M_cloneERSt9_Any_dataRKS7_St17integral_constantIbLb1EE
FN:150,_ZNSt14_Function_base13_Base_managerIZ4mainEUlP11HttpRequestP12HttpResponseE57_E8_M_cloneERSt9_Any_dataRKS7_St17integral_constantIbLb1EE
FNDA:4,_ZNSt14_Function_base13_Base_managerIZ4mainEUlP11HttpRequestP12HttpResponseE57_E8_M_cloneERSt9_Any_dataRKS7_St17integral_constantIbLb1EE
FN:150,_ZNSt14_Function_base13_Base_managerIZ4mainEUlP11HttpRequestP12HttpResponseE83_E8_M_cloneERSt9_Any_dataRKS7_St17integral_constantIbLb1EE
FNDA:4,_ZNSt14_Function_base13_Base_managerIZ4mainEUlP11HttpRequestP12HttpResponseE83_E8_M_cloneERSt9_Any_dataRKS7_St17integral_constantIbLb1EE
FN:150,_ZNSt14_Function_base13_Base_managerIZ4mainEUlP11HttpRequestP12HttpResponseE58_E8_M_cloneERSt9_Any_dataRKS7_St17integral_constantIbLb1EE
FNDA:4,_ZNSt14_Function_base13_Base_managerIZ4mainEUlP11HttpRequestP12HttpResponseE58_E8_M_cloneERSt9_Any_dataRKS7_St17integral_constantIbLb1EE
FN:150,_ZNSt14_Function_base13_Base_managerIZ4mainEUlP11HttpRequestP12HttpResponseE59_E8_M_cloneERSt9_Any_dataRKS7_St17integral_constantIbLb1EE
FNDA:4,_ZNSt14_Function_base13_Base_managerIZ4mainEUlP11HttpRequestP12HttpResponseE59_E8_M_cloneERSt9_Any_dataRKS7_St17integral_constantIbLb1EE
FN:150,_ZNSt14_Function_base13_Base_managerIZ4mainEUlP11HttpRequestP12HttpResponseE81_E8_M_cloneERSt9_Any_dataRKS7_St17integral_constantIbLb1EE
FNDA:4,_ZNSt14_Function_base13_Base_managerIZ4mainEUlP11HttpRequestP12HttpResponseE81_E8_M_cloneERSt9_Any_dataRKS7_St17integral_constantIbLb1EE
FN:150,_ZNSt14_Function_base13_Base_managerIZ4mainEUlP11HttpRequestP12HttpResponseE84_E8_M_cloneERSt9_Any_dataRKS7_St17integral_constantIbLb1EE
FNDA:4,_ZNSt14_Function_base13_Base_managerIZ4mainEUlP11HttpRequestP12HttpResponseE84_E8_M_cloneERSt9_Any_dataRKS7_St17integral_constantIbLb1EE
FN:150,_ZNSt14_Function_base13_Base_managerIZ4mainEUlP11HttpRequestP12HttpResponseE64_E8_M_cloneERSt9_Any_dataRKS7_St17integral_constantIbLb1EE
FNDA:4,_ZNSt14_Function_base13_Base_managerIZ4mainEUlP11HttpRequestP12HttpResponseE64_E8_M_cloneERSt9_Any_dataRKS7_St17integral_constantIbLb1EE
FN:150,_ZNSt14_Function_base13_Base_managerIZ4mainEUlP11HttpRequestP12HttpResponseE68_E8_M_cloneERSt9_Any_dataRKS7_St17integral_constantIbLb1EE
FNDA:4,_ZNSt14_Function_base13_Base_managerIZ4mainEUlP11HttpRequestP12HttpResponseE68_E8_M_cloneERSt9_Any_dataRKS7_St17integral_constantIbLb1EE
FN:150,_ZNSt14_Function_base13_Base_managerIZ4mainEUlP11HttpRequestP12HttpResponseE69_E8_M_cloneERSt9_Any_dataRKS7_St17integral_constantIbLb1EE
FNDA:4,_ZNSt14_Function_base13_Base_managerIZ4mainEUlP11HttpRequestP12HttpResponseE69_E8_M_cloneERSt9_Any_dataRKS7_St17integral_constantIbLb1EE
FN:150,_ZNSt14_Function_base13_Base_managerIZ4mainEUlP11HttpRequestP12HttpResponseE67_E8_M_cloneERSt9_Any_dataRKS7_St17integral_constantIbLb1EE
FNDA:4,_ZNSt14_Function_base13_Base_managerIZ4mainEUlP11HttpRequestP12HttpResponseE67_E8_M_cloneERSt9_Any_dataRKS7_St17integral_constantIbLb1EE
FN:150,_ZNSt14_Function_base13_Base_managerIZ4mainEUlP11HttpRequestP12HttpResponseE70_E8_M_cloneERSt9_Any_dataRKS7_St17integral_constantIbLb1EE
FNDA:4,_ZNSt14_Function_base13_Base_managerIZ4mainEUlP11HttpRequestP12HttpResponseE70_E8_M_cloneERSt9_Any_dataRKS7_St17integral_constantIbLb1EE
FN:150,_ZNSt14_Function_base13_Base_managerIZ4mainEUlP11HttpRequestP12HttpResponseE66_E8_M_cloneERSt9_Any_dataRKS7_St17integral_constantIbLb1EE
FNDA:4,_ZNSt14_Function_base13_Base_managerIZ4mainEUlP11HttpRequestP12HttpResponseE66_E8_M_cloneERSt9_Any_dataRKS7_St17integral_constantIbLb1EE
FN:150,_ZNSt14_Function_base13_Base_managerIZ4mainEUlP11HttpRequestP12HttpResponseE71_E8_M_cloneERSt9_Any_dataRKS7_St17integral_constantIbLb1EE
FNDA:4,_ZNSt14_Function_base13_Base_managerIZ4mainEUlP11HttpRequestP12HttpResponseE71_E8_M_cloneERSt9_Any_dataRKS7_St17integral_constantIbLb1EE
FN:150,_ZNSt14_Function_base13_Base_managerIZ4mainEUlP11HttpRequestP12HttpResponseE65_E8_M_cloneERSt9_Any_dataRKS7_St17integral_constantIbLb1EE
FNDA:4,_ZNSt14_Function_base13_Base_managerIZ4mainEUlP11HttpRequestP12HttpResponseE65_E8_M_cloneERSt9_Any_dataRKS7_St17integral_constantIbLb1EE
FN:150,_ZNSt14_Function_base13_Base_managerIZ4mainEUlP11HttpRequestP12HttpResponseE72_E8_M_cloneERSt9_Any_dataRKS7_St17integral_constantIbLb1EE
FNDA:4,_ZNSt14_Function_base13_Base_managerIZ4mainEUlP11HttpRequestP12HttpResponseE72_E8_M_cloneERSt9_Any_dataRKS7_St17integral_constantIbLb1EE
FN:150,_ZNSt14_Function_base13_Base_managerIZ4mainEUlP11HttpRequestP12HttpResponseE73_E8_M_cloneERSt9_Any_dataRKS7_St17integral_constantIbLb1EE
FNDA:4,_ZNSt14_Function_base13_Base_managerIZ4mainEUlP11HttpRequestP12HttpResponseE73_E8_M_cloneERSt9_Any_dataRKS7_St17integral_constantIbLb1EE
FN:150,_ZNSt14_Function_base13_Base_managerIZ4mainEUlP11HttpRequestP12HttpResponseE79_E8_M_cloneERSt9_Any_dataRKS7_St17integral_constantIbLb1EE
FNDA:4,_ZNSt14_Function_base13_Base_managerIZ4mainEUlP11HttpRequestP12HttpResponseE79_E8_M_cloneERSt9_Any_dataRKS7_St17integral_constantIbLb1EE
FN:150,_ZNSt14_Function_base13_Base_managerIZ4mainEUlP11HttpRequestP12HttpResponseE74_E8_M_cloneERSt9_Any_dataRKS7_St17integral_constantIbLb1EE
FNDA:4,_ZNSt14_Function_base13_Base_managerIZ4mainEUlP11HttpRequestP12HttpResponseE74_E8_M_cloneERSt9_Any_dataRKS7_St17integral_constantIbLb1EE
FN:150,_ZNSt14_Function_base13_Base_managerIZ4mainEUlP11HttpRequestP12HttpResponseE63_E8_M_cloneERSt9_Any_dataRKS7_St17integral_constantIbLb1EE
FNDA:4,_ZNSt14_Function_base13_Base_managerIZ4mainEUlP11HttpRequestP12HttpResponseE63_E8_M_cloneERSt9_Any_dataRKS7_St17integral_constantIbLb1EE
FN:150,_ZNSt14_Function_base13_Base_managerIZ4mainEUlP11HttpRequestP12HttpResponseE75_E8_M_cloneERSt9_Any_dataRKS7_St17integral_constantIbLb1EE
FNDA:4,_ZNSt14_Function_base13_Base_managerIZ4mainEUlP11HttpRequestP12HttpResponseE75_E8_M_cloneERSt9_Any_dataRKS7_St17integral_constantIbLb1EE
FN:150,_ZNSt14_Function_base13_Base_managerIZ4mainEUlP11HttpRequestP12HttpResponseE62_E8_M_cloneERSt9_Any_dataRKS7_St17integral_constantIbLb1EE
FNDA:4,_ZNSt14_Function_base13_Base_managerIZ4mainEUlP11HttpRequestP12HttpResponseE62_E8_M_cloneERSt9_Any_dataRKS7_St17integral_constantIbLb1EE
FN:150,_ZNSt14_Function_base13_Base_managerIZ4mainEUlP11HttpRequestP12HttpResponseE76_E8_M_cloneERSt9_Any_dataRKS7_St17integral_constantIbLb1EE
FNDA:4,_ZNSt14_Function_base13_Base_managerIZ4mainEUlP11HttpRequestP12HttpResponseE76_E8_M_cloneERSt9_Any_dataRKS7_St17integral_constantIbLb1EE
FN:150,_ZNSt14_Function_base13_Base_managerIZ4mainEUlP11HttpRequestP12HttpResponseE61_E8_M_cloneERSt9_Any_dataRKS7_St17integral_constantIbLb1EE
FNDA:4,_ZNSt14_Function_base13_Base_managerIZ4mainEUlP11HttpRequestP12HttpResponseE61_E8_M_cloneERSt9_Any_dataRKS7_St17integral_constantIbLb1EE
FN:150,_ZNSt14_Function_base13_Base_managerIZ4mainEUlP11HttpRequestP12HttpResponseE77_E8_M_cloneERSt9_Any_dataRKS7_St17integral_constantIbLb1EE
FNDA:4,_ZNSt14_Function_base13_Base_managerIZ4mainEUlP11HttpRequestP12HttpResponseE77_E8_M_cloneERSt9_Any_dataRKS7_St17integral_constantIbLb1EE
FN:150,_ZNSt14_Function_base13_Base_managerIZ4mainEUlP11HttpRequestP12HttpResponseE60_E8_M_cloneERSt9_Any_dataRKS7_St17integral_constantIbLb1EE
FNDA:4,_ZNSt14_Function_base13_Base_managerIZ4mainEUlP11HttpRequestP12HttpResponseE60_E8_M_cloneERSt9_Any_dataRKS7_St17integral_constantIbLb1EE
FN:150,_ZNSt14_Function_base13_Base_managerIZ4mainEUlP11HttpRequestP12HttpResponseE78_E8_M_cloneERSt9_Any_dataRKS7_St17integral_constantIbLb1EE
FNDA:4,_ZNSt14_Function_base13_Base_managerIZ4mainEUlP11HttpRequestP12HttpResponseE78_E8_M_cloneERSt9_Any_dataRKS7_St17integral_constantIbLb1EE
FN:150,_ZNSt14_Function_base13_Base_managerIZ4mainEUlP11HttpRequestP12HttpResponseE32_E8_M_cloneERSt9_Any_dataRKS7_St17integral_constantIbLb1EE
FNDA:4,_ZNSt14_Function_base13_Base_managerIZ4mainEUlP11HttpRequestP12HttpResponseE32_E8_M_cloneERSt9_Any_dataRKS7_St17integral_constantIbLb1EE
FN:150,_ZNSt14_Function_base13_Base_managerIZ4mainEUlP11HttpRequestP12HttpResponseE47_E8_M_cloneERSt9_Any_dataRKS7_St17integral_constantIbLb1EE
FNDA:3,_ZNSt14_Function_base13_Base_managerIZ4mainEUlP11HttpRequestP12HttpResponseE47_E8_M_cloneERSt9_Any_dataRKS7_St17integral_constantIbLb1EE
FN:150,_ZNSt14_Function_base13_Base_managerIZ4mainEUlP11HttpRequestP12HttpResponseE14_E8_M_cloneERSt9_Any_dataRKS7_St17integral_constantIbLb1EE
FNDA:4,_ZNSt14_Function_base13_Base_managerIZ4mainEUlP11HttpRequestP12HttpResponseE14_E8_M_cloneERSt9_Any_dataRKS7_St17integral_constantIbLb1EE
FN:150,_ZNSt14_Function_base13_Base_managerIZ4mainEUlP11HttpRequestP12HttpResponseE35_E8_M_cloneERSt9_Any_dataRKS7_St17integral_constantIbLb1EE
FNDA:4,_ZNSt14_Function_base13_Base_managerIZ4mainEUlP11HttpRequestP12HttpResponseE35_E8_M_cloneERSt9_Any_dataRKS7_St17integral_constantIbLb1EE
FN:150,_ZNSt14_Function_base13_Base_managerIZ4mainEUlP11HttpRequestP12HttpResponseE8_E8_M_cloneERSt9_Any_dataRKS7_St17integral_constantIbLb1EE
FNDA:4,_ZNSt14_Function_base13_Base_managerIZ4mainEUlP11HttpRequestP12HttpResponseE8_E8_M_cloneERSt9_Any_dataRKS7_St17integral_constantIbLb1EE
FN:150,_ZNSt14_Function_base13_Base_managerIZ4mainEUlP11HttpRequestP12HttpResponseE34_E8_M_cloneERSt9_Any_dataRKS7_St17integral_constantIbLb1EE
FNDA:4,_ZNSt14_Function_base13_Base_managerIZ4mainEUlP11HttpRequestP12HttpResponseE34_E8_M_cloneERSt9_Any_dataRKS7_St17integral_constantIbLb1EE
FN:150,_ZNSt14_Function_base13_Base_managerIZ4mainEUlP11HttpRequestP12HttpResponseE43_E8_M_cloneERSt9_Any_dataRKS7_St17integral_constantIbLb1EE
FNDA:4,_ZNSt14_Function_base13_Base_managerIZ4mainEUlP11HttpRequestP12HttpResponseE43_E8_M_cloneERSt9_Any_dataRKS7_St17integral_constantIbLb1EE
FN:150,_ZNSt14_Function_base13_Base_managerIZ4mainEUlP11HttpRequestP12HttpResponseE13_E8_M_cloneERSt9_Any_dataRKS7_St17integral_constantIbLb1EE
FNDA:4,_ZNSt14_Function_base13_Base_managerIZ4mainEUlP11HttpRequestP12HttpResponseE13_E8_M_cloneERSt9_Any_dataRKS7_St17integral_constantIbLb1EE
FN:150,_ZNSt14_Function_base13_Base_managerIZ4mainEUlP11HttpRequestP12HttpResponseE55_E8_M_cloneERSt9_Any_dataRKS7_St17integral_constantIbLb1EE
FNDA:4,_ZNSt14_Function_base13_Base_managerIZ4mainEUlP11HttpRequestP12HttpResponseE55_E8_M_cloneERSt9_Any_dataRKS7_St17integral_constantIbLb1EE
FN:150,_ZNSt14_Function_base13_Base_managerIZ4mainEUlP11HttpRequestP12HttpResponseE22_E8_M_cloneERSt9_Any_dataRKS7_St17integral_constantIbLb1EE
FNDA:4,_ZNSt14_Function_base13_Base_managerIZ4mainEUlP11HttpRequestP12HttpResponseE22_E8_M_cloneERSt9_Any_dataRKS7_St17integral_constantIbLb1EE
FN:150,_ZNSt14_Function_base13_Base_managerIZ4mainEUlP11HttpRequestP12HttpResponseE50_E8_M_cloneERSt9_Any_dataRKS7_St17integral_constantIbLb1EE
FNDA:4,_ZNSt14_Function_base13_Base_managerIZ4mainEUlP11HttpRequestP12HttpResponseE50_E8_M_cloneERSt9_Any_dataRKS7_St17integral_constantIbLb1EE
FN:150,_ZNSt14_Function_base13_Base_managerIZ4mainEUlP11HttpRequestP12HttpResponseE29_E8_M_cloneERSt9_Any_dataRKS7_St17integral_constantIbLb1EE
FNDA:4,_ZNSt14_Function_base13_Base_managerIZ4mainEUlP11HttpRequestP12HttpResponseE29_E8_M_cloneERSt9_Any_dataRKS7_St17integral_constantIbLb1EE
FN:150,_ZNSt14_Function_base13_Base_managerIZ4mainEUlP11HttpRequestP12HttpResponseE33_E8_M_cloneERSt9_Any_dataRKS7_St17integral_constantIbLb1EE
FNDA:4,_ZNSt14_Function_base13_Base_managerIZ4mainEUlP11HttpRequestP12HttpResponseE33_E8_M_cloneERSt9_Any_dataRKS7_St17integral_constantIbLb1EE
FN:150,_ZNSt14_Function_base13_Base_managerIZ4mainEUlP11HttpRequestP12HttpResponseE23_E8_M_cloneERSt9_Any_dataRKS7_St17integral_constantIbLb1EE
FNDA:4,_ZNSt14_Function_base13_Base_managerIZ4mainEUlP11HttpRequestP12HttpResponseE23_E8_M_cloneERSt9_Any_dataRKS7_St17integral_constantIbLb1EE
FN:150,_ZNSt14_Function_base13_Base_managerIZ4mainEUlP11HttpRequestP12HttpResponseE3_E8_M_cloneERSt9_Any_dataRKS7_St17integral_constantIbLb1EE
FNDA:4,_ZNSt14_Function_base13_Base_managerIZ4mainEUlP11HttpRequestP12HttpResponseE3_E8_M_cloneERSt9_Any_dataRKS7_St17integral_constantIbLb1EE
FN:150,_ZNSt14_Function_base13_Base_managerIZ4mainEUlP11HttpRequestP12HttpResponseE12_E8_M_cloneERSt9_Any_dataRKS7_St17integral_constantIbLb1EE
FNDA:4,_ZNSt14_Function_base13_Base_managerIZ4mainEUlP11HttpRequestP12HttpResponseE12_E8_M_cloneERSt9_Any_dataRKS7_St17integral_constantIbLb1EE
FN:150,_ZNSt14_Function_base13_Base_managerIZ4mainEUlP11HttpRequestP12HttpResponseE85_E8_M_cloneERSt9_Any_dataRKS7_St17integral_constantIbLb1EE
FNDA:4,_ZNSt14_Function_base13_Base_managerIZ4mainEUlP11HttpRequestP12HttpResponseE85_E8_M_cloneERSt9_Any_dataRKS7_St17integral_constantIbLb1EE
FN:150,_ZNSt14_Function_base13_Base_managerIZ4mainEUlP11HttpRequestP12HttpResponseE_E8_M_cloneERSt9_Any_dataRKS7_St17integral_constantIbLb1EE
FNDA:4,_ZNSt14_Function_base13_Base_managerIZ4mainEUlP11HttpRequestP12HttpResponseE_E8_M_cloneERSt9_Any_dataRKS7_St17integral_constantIbLb1EE
FN:150,_ZNSt14_Function_base13_Base_managerIZ4mainEUlP11HttpRequestP12HttpResponseE25_E8_M_cloneERSt9_Any_dataRKS7_St17integral_constantIbLb1EE
FNDA:4,_ZNSt14_Function_base13_Base_managerIZ4mainEUlP11HttpRequestP12HttpResponseE25_E8_M_cloneERSt9_Any_dataRKS7_St17integral_constantIbLb1EE
FN:150,_ZNSt14_Function_base13_Base_managerIZ4mainEUlP11HttpRequestP12HttpResponseE11_E8_M_cloneERSt9_Any_dataRKS7_St17integral_constantIbLb1EE
FNDA:4,_ZNSt14_Function_base13_Base_managerIZ4mainEUlP11HttpRequestP12HttpResponseE11_E8_M_cloneERSt9_Any_dataRKS7_St17integral_constantIbLb1EE
FN:150,_ZNSt14_Function_base13_Base_managerIZ4mainEUlP11HttpRequestP12HttpResponseE2_E8_M_cloneERSt9_Any_dataRKS7_St17integral_constantIbLb1EE
FNDA:4,_ZNSt14_Function_base13_Base_managerIZ4mainEUlP11HttpRequestP12HttpResponseE2_E8_M_cloneERSt9_Any_dataRKS7_St17integral_constantIbLb1EE
FN:150,_ZNSt14_Function_base13_Base_managerIZ4mainEUlP11HttpRequestP12HttpResponseE9_E8_M_cloneERSt9_Any_dataRKS7_St17integral_constantIbLb1EE
FNDA:4,_ZNSt14_Function_base13_Base_managerIZ4mainEUlP11HttpRequestP12HttpResponseE9_E8_M_cloneERSt9_Any_dataRKS7_St17integral_constantIbLb1EE
FN:150,_ZNSt14_Function_base13_Base_managerIZ4mainEUlP11HttpRequestP12HttpResponseE24_E8_M_cloneERSt9_Any_dataRKS7_St17integral_constantIbLb1EE
FNDA:4,_ZNSt14_Function_base13_Base_managerIZ4mainEUlP11HttpRequestP12HttpResponseE24_E8_M_cloneERSt9_Any_dataRKS7_St17integral_constantIbLb1EE
FN:150,_ZNSt14_Function_base13_Base_managerIZ4mainEUlP11HttpRequestP12HttpResponseE31_E8_M_cloneERSt9_Any_dataRKS7_St17integral_constantIbLb1EE
FNDA:4,_ZNSt14_Function_base13_Base_managerIZ4mainEUlP11HttpRequestP12HttpResponseE31_E8_M_cloneERSt9_Any_dataRKS7_St17integral_constantIbLb1EE
FN:150,_ZNSt14_Function_base13_Base_managerIZ4mainEUlP11HttpRequestP12HttpResponseE0_E8_M_cloneERSt9_Any_dataRKS7_St17integral_constantIbLb1EE
FNDA:4,_ZNSt14_Function_base13_Base_managerIZ4mainEUlP11HttpRequestP12HttpResponseE0_E8_M_cloneERSt9_Any_dataRKS7_St17integral_constantIbLb1EE
FN:150,_ZNSt14_Function_base13_Base_managerIZ4mainEUlP11HttpRequestP12HttpResponseE46_E8_M_cloneERSt9_Any_dataRKS7_St17integral_constantIbLb1EE
FNDA:4,_ZNSt14_Function_base13_Base_managerIZ4mainEUlP11HttpRequestP12HttpResponseE46_E8_M_cloneERSt9_Any_dataRKS7_St17integral_constantIbLb1EE
FN:150,_ZNSt14_Function_base13_Base_managerIZ4mainEUlP11HttpRequestP12HttpResponseE44_E8_M_cloneERSt9_Any_dataRKS7_St17integral_constantIbLb1EE
FNDA:4,_ZNSt14_Function_base13_Base_managerIZ4mainEUlP11HttpRequestP12HttpResponseE44_E8_M_cloneERSt9_Any_dataRKS7_St17integral_constantIbLb1EE
FN:150,_ZNSt14_Function_base13_Base_managerIZ4mainEUlP11HttpRequestP12HttpResponseE10_E8_M_cloneERSt9_Any_dataRKS7_St17integral_constantIbLb1EE
FNDA:4,_ZNSt14_Function_base13_Base_managerIZ4mainEUlP11HttpRequestP12HttpResponseE10_E8_M_cloneERSt9_Any_dataRKS7_St17integral_constantIbLb1EE
FN:150,_ZNSt14_Function_base13_Base_managerIZ4mainEUlP11HttpRequestP12HttpResponseE54_E8_M_cloneERSt9_Any_dataRKS7_St17integral_constantIbLb1EE
FNDA:4,_ZNSt14_Function_base13_Base_managerIZ4mainEUlP11HttpRequestP12HttpResponseE54_E8_M_cloneERSt9_Any_dataRKS7_St17integral_constantIbLb1EE
FN:150,_ZNSt14_Function_base13_Base_managerIZ4mainEUlP11HttpRequestP12HttpResponseE1_E8_M_cloneERSt9_Any_dataRKS7_St17integral_constantIbLb1EE
FNDA:4,_ZNSt14_Function_base13_Base_managerIZ4mainEUlP11HttpRequestP12HttpResponseE1_E8_M_cloneERSt9_Any_dataRKS7_St17integral_constantIbLb1EE
FN:150,_ZNSt14_Function_base13_Base_managerIZ4mainEUlP11HttpRequestP12HttpResponseE30_E8_M_cloneERSt9_Any_dataRKS7_St17integral_constantIbLb1EE
FNDA:4,_ZNSt14_Function_base13_Base_managerIZ4mainEUlP11HttpRequestP12HttpResponseE30_E8_M_cloneERSt9_Any_dataRKS7_St17integral_constantIbLb1EE
FN:150,_ZNSt14_Function_base13_Base_managerIZ4mainEUlP11HttpRequestP12HttpResponseE51_E8_M_cloneERSt9_Any_dataRKS7_St17integral_constantIbLb1EE
FNDA:4,_ZNSt14_Function_base13_Base_managerIZ4mainEUlP11HttpRequestP12HttpResponseE51_E8_M_cloneERSt9_Any_dataRKS7_St17integral_constantIbLb1EE
FN:150,_ZNSt14_Function_base13_Base_managerIZ4mainEUlP11HttpRequestP12HttpResponseE48_E8_M_cloneERSt9_Any_dataRKS7_St17integral_constantIbLb1EE
FNDA:4,_ZNSt14_Function_base13_Base_managerIZ4mainEUlP11HttpRequestP12HttpResponseE48_E8_M_cloneERSt9_Any_dataRKS7_St17integral_constantIbLb1EE
FN:150,_ZNSt14_Function_base13_Base_managerIZ4mainEUlP11HttpRequestP12HttpResponseE39_E8_M_cloneERSt9_Any_dataRKS7_St17integral_constantIbLb1EE
FNDA:4,_ZNSt14_Function_base13_Base_managerIZ4mainEUlP11HttpRequestP12HttpResponseE39_E8_M_cloneERSt9_Any_dataRKS7_St17integral_constantIbLb1EE
FN:150,_ZNSt14_Function_base13_Base_managerIZ4mainEUlP11HttpRequestP12HttpResponseE52_E8_M_cloneERSt9_Any_dataRKS7_St17integral_constantIbLb1EE
FNDA:4,_ZNSt14_Function_base13_Base_managerIZ4mainEUlP11HttpRequestP12HttpResponseE52_E8_M_cloneERSt9_Any_dataRKS7_St17integral_constantIbLb1EE
FN:150,_ZNSt14_Function_base13_Base_managerIZ4mainEUlP11HttpRequestP12HttpResponseE18_E8_M_cloneERSt9_Any_dataRKS7_St17integral_constantIbLb1EE
FNDA:4,_ZNSt14_Function_base13_Base_managerIZ4mainEUlP11HttpRequestP12HttpResponseE18_E8_M_cloneERSt9_Any_dataRKS7_St17integral_constantIbLb1EE
FN:150,_ZNSt14_Function_base13_Base_managerIZ4mainEUlP11HttpRequestP12HttpResponseE17_E8_M_cloneERSt9_Any_dataRKS7_St17integral_constantIbLb1EE
FNDA:4,_ZNSt14_Function_base13_Base_managerIZ4mainEUlP11HttpRequestP12HttpResponseE17_E8_M_cloneERSt9_Any_dataRKS7_St17integral_constantIbLb1EE
FN:150,_ZNSt14_Function_base13_Base_managerIZ4mainEUlP11HttpRequestP12HttpResponseE56_E8_M_cloneERSt9_Any_dataRKS7_St17integral_constantIbLb1EE
FNDA:4,_ZNSt14_Function_base13_Base_managerIZ4mainEUlP11HttpRequestP12HttpResponseE56_E8_M_cloneERSt9_Any_dataRKS7_St17integral_constantIbLb1EE
FN:150,_ZNSt14_Function_base13_Base_managerIZ4mainEUlP11HttpRequestP12HttpResponseE20_E8_M_cloneERSt9_Any_dataRKS7_St17integral_constantIbLb1EE
FNDA:4,_ZNSt14_Function_base13_Base_managerIZ4mainEUlP11HttpRequestP12HttpResponseE20_E8_M_cloneERSt9_Any_dataRKS7_St17integral_constantIbLb1EE
FN:150,_ZNSt14_Function_base13_Base_managerIZ4mainEUlP11HttpRequestP12HttpResponseE19_E8_M_cloneERSt9_Any_dataRKS7_St17integral_constantIbLb1EE
FNDA:4,_ZNSt14_Function_base13_Base_managerIZ4mainEUlP11HttpRequestP12HttpResponseE19_E8_M_cloneERSt9_Any_dataRKS7_St17integral_constantIbLb1EE
FN:150,_ZNSt14_Function_base13_Base_managerIZ4mainEUlP11HttpRequestP12HttpResponseE41_E8_M_cloneERSt9_Any_dataRKS7_St17integral_constantIbLb1EE
FNDA:4,_ZNSt14_Function_base13_Base_managerIZ4mainEUlP11HttpRequestP12HttpResponseE41_E8_M_cloneERSt9_Any_dataRKS7_St17integral_constantIbLb1EE
FN:150,_ZNSt14_Function_base13_Base_managerIZ4mainEUlP11HttpRequestP12HttpResponseE38_E8_M_cloneERSt9_Any_dataRKS7_St17integral_constantIbLb1EE
FNDA:4,_ZNSt14_Function_base13_Base_managerIZ4mainEUlP11HttpRequestP12HttpResponseE38_E8_M_cloneERSt9_Any_dataRKS7_St17integral_constantIbLb1EE
FN:150,_ZNSt14_Function_base13_Base_managerIZ4mainEUlP11HttpRequestP12HttpResponseE26_E8_M_cloneERSt9_Any_dataRKS7_St17integral_constantIbLb1EE
FNDA:4,_ZNSt14_Function_base13_Base_managerIZ4mainEUlP11HttpRequestP12HttpResponseE26_E8_M_cloneERSt9_Any_dataRKS7_St17integral_constantIbLb1EE
FN:150,_ZNSt14_Function_base13_Base_managerIZ4mainEUlP11HttpRequestP12HttpResponseE45_E8_M_cloneERSt9_Any_dataRKS7_St17integral_constantIbLb1EE
FNDA:4,_ZNSt14_Function_base13_Base_managerIZ4mainEUlP11HttpRequestP12HttpResponseE45_E8_M_cloneERSt9_Any_dataRKS7_St17integral_constantIbLb1EE
FN:150,_ZNSt14_Function_base13_Base_managerIZ4mainEUlP11HttpRequestP12HttpResponseE5_E8_M_cloneERSt9_Any_dataRKS7_St17integral_constantIbLb1EE
FNDA:4,_ZNSt14_Function_base13_Base_managerIZ4mainEUlP11HttpRequestP12HttpResponseE5_E8_M_cloneERSt9_Any_dataRKS7_St17integral_constantIbLb1EE
FN:150,_ZNSt14_Function_base13_Base_managerIZ4mainEUlP11HttpRequestP12HttpResponseE40_E8_M_cloneERSt9_Any_dataRKS7_St17integral_constantIbLb1EE
FNDA:4,_ZNSt14_Function_base13_Base_managerIZ4mainEUlP11HttpRequestP12HttpResponseE40_E8_M_cloneERSt9_Any_dataRKS7_St17integral_constantIbLb1EE
FN:150,_ZNSt14_Function_base13_Base_managerIZ4mainEUlP11HttpRequestP12HttpResponseE37_E8_M_cloneERSt9_Any_dataRKS7_St17integral_constantIbLb1EE
FNDA:4,_ZNSt14_Function_base13_Base_managerIZ4mainEUlP11HttpRequestP12HttpResponseE37_E8_M_cloneERSt9_Any_dataRKS7_St17integral_constantIbLb1EE
FN:150,_ZNSt14_Function_base13_Base_managerIZ4mainEUlP11HttpRequestP12HttpResponseE16_E8_M_cloneERSt9_Any_dataRKS7_St17integral_constantIbLb1EE
FNDA:4,_ZNSt14_Function_base13_Base_managerIZ4mainEUlP11HttpRequestP12HttpResponseE16_E8_M_cloneERSt9_Any_dataRKS7_St17integral_constantIbLb1EE
FN:150,_ZNSt14_Function_base13_Base_managerIZ4mainEUlP11HttpRequestP12HttpResponseE49_E8_M_cloneERSt9_Any_dataRKS7_St17integral_constantIbLb1EE
FNDA:4,_ZNSt14_Function_base13_Base_managerIZ4mainEUlP11HttpRequestP12HttpResponseE49_E8_M_cloneERSt9_Any_dataRKS7_St17integral_constantIbLb1EE
FN:150,_ZNSt14_Function_base13_Base_managerIZ4mainEUlP11HttpRequestP12HttpResponseE7_E8_M_cloneERSt9_Any_dataRKS7_St17integral_constantIbLb1EE
FNDA:4,_ZNSt14_Function_base13_Base_managerIZ4mainEUlP11HttpRequestP12HttpResponseE7_E8_M_cloneERSt9_Any_dataRKS7_St17integral_constantIbLb1EE
FN:150,_ZNSt14_Function_base13_Base_managerIZ4mainEUlP11HttpRequestP12HttpResponseE42_E8_M_cloneERSt9_Any_dataRKS7_St17integral_constantIbLb1EE
FNDA:4,_ZNSt14_Function_base13_Base_managerIZ4mainEUlP11HttpRequestP12HttpResponseE42_E8_M_cloneERSt9_Any_dataRKS7_St17integral_constantIbLb1EE
FN:150,_ZNSt14_Function_base13_Base_managerIZ4mainEUlP11HttpRequestP12HttpResponseE28_E8_M_cloneERSt9_Any_dataRKS7_St17integral_constantIbLb1EE
FNDA:3,_ZNSt14_Function_base13_Base_managerIZ4mainEUlP11HttpRequestP12HttpResponseE28_E8_M_cloneERSt9_Any_dataRKS7_St17integral_constantIbLb1EE
FN:150,_ZNSt14_Function_base13_Base_managerIZ4mainEUlP11HttpRequestP12HttpResponseE15_E8_M_cloneERSt9_Any_dataRKS7_St17integral_constantIbLb1EE
FNDA:4,_ZNSt14_Function_base13_Base_managerIZ4mainEUlP11HttpRequestP12HttpResponseE15_E8_M_cloneERSt9_Any_dataRKS7_St17integral_constantIbLb1EE
FN:150,_ZNSt14_Function_base13_Base_managerIZ4mainEUlP11HttpRequestP12HttpResponseE21_E8_M_cloneERSt9_Any_dataRKS7_St17integral_constantIbLb1EE
FNDA:4,_ZNSt14_Function_base13_Base_managerIZ4mainEUlP11HttpRequestP12HttpResponseE21_E8_M_cloneERSt9_Any_dataRKS7_St17integral_constantIbLb1EE
FN:150,_ZNSt14_Function_base13_Base_managerIZ4mainEUlP11HttpRequestP12HttpResponseE36_E8_M_cloneERSt9_Any_dataRKS7_St17integral_constantIbLb1EE
FNDA:4,_ZNSt14_Function_base13_Base_managerIZ4mainEUlP11HttpRequestP12HttpResponseE36_E8_M_cloneERSt9_Any_dataRKS7_St17integral_constantIbLb1EE
FN:150,_ZNSt14_Function_base13_Base_managerIZ4mainEUlP11HttpRequestP12HttpResponseE4_E8_M_cloneERSt9_Any_dataRKS7_St17integral_constantIbLb1EE
FNDA:4,_ZNSt14_Function_base13_Base_managerIZ4mainEUlP11HttpRequestP12HttpResponseE4_E8_M_cloneERSt9_Any_dataRKS7_St17integral_constantIbLb1EE
FN:150,_ZNSt14_Function_base13_Base_managerIZ4mainEUlP11HttpRequestP12HttpResponseE27_E8_M_cloneERSt9_Any_dataRKS7_St17integral_constantIbLb1EE
FNDA:4,_ZNSt14_Function_base13_Base_managerIZ4mainEUlP11HttpRequestP12HttpResponseE27_E8_M_cloneERSt9_Any_dataRKS7_St17integral_constantIbLb1EE
FN:150,_ZNSt14_Function_base13_Base_managerIZ4mainEUlP11HttpRequestP12HttpResponseE53_E8_M_cloneERSt9_Any_dataRKS7_St17integral_constantIbLb1EE
FNDA:4,_ZNSt14_Function_base13_Base_managerIZ4mainEUlP11HttpRequestP12HttpResponseE53_E8_M_cloneERSt9_Any_dataRKS7_St17integral_constantIbLb1EE
FN:150,_ZNSt14_Function_base13_Base_managerIZ4mainEUlP11HttpRequestP12HttpResponseE6_E8_M_cloneERSt9_Any_dataRKS7_St17integral_constantIbLb1EE
FNDA:4,_ZNSt14_Function_base13_Base_managerIZ4mainEUlP11HttpRequestP12HttpResponseE6_E8_M_cloneERSt9_Any_dataRKS7_St17integral_constantIbLb1EE
FN:167,_ZNSt14_Function_base13_Base_managerIZ4mainEUlP11HttpRequestP12HttpResponseE51_E10_M_destroyERSt9_Any_dataSt17integral_constantIbLb1EE
FNDA:4,_ZNSt14_Function_base13_Base_managerIZ4mainEUlP11HttpRequestP12HttpResponseE51_E10_M_destroyERSt9_Any_dataSt17integral_constantIbLb1EE
FN:167,_ZNSt14_Function_base13_Base_managerIZ4mainEUlP11HttpRequestP12HttpResponseE9_E10_M_destroyERSt9_Any_dataSt17integral_constantIbLb1EE
FNDA:4,_ZNSt14_Function_base13_Base_managerIZ4mainEUlP11HttpRequestP12HttpResponseE9_E10_M_destroyERSt9_Any_dataSt17integral_constantIbLb1EE
FN:167,_ZNSt14_Function_base13_Base_managerIZ4mainEUlP11HttpRequestP12HttpResponseE6_E10_M_destroyERSt9_Any_dataSt17integral_constantIbLb1EE
FNDA:4,_ZNSt14_Function_base13_Base_managerIZ4mainEUlP11HttpRequestP12HttpResponseE6_E10_M_destroyERSt9_Any_dataSt17integral_constantIbLb1EE
FN:167,_ZNSt14_Function_base13_Base_managerIZ4mainEUlP11HttpRequestP12HttpResponseE45_E10_M_destroyERSt9_Any_dataSt17integral_constantIbLb1EE
FNDA:4,_ZNSt14_Function_base13_Base_managerIZ4mainEUlP11HttpRequestP12HttpResponseE45_E10_M_destroyERSt9_Any_dataSt17integral_constantIbLb1EE
FN:167,_ZNSt14_Function_base13_Base_managerIZ4mainEUlP11HttpRequestP12HttpResponseE66_E10_M_destroyERSt9_Any_dataSt17integral_constantIbLb1EE
FNDA:4,_ZNSt14_Function_base13_Base_managerIZ4mainEUlP11HttpRequestP12HttpResponseE66_E10_M_destroyERSt9_Any_dataSt17integral_constantIbLb1EE
FN:167,_ZNSt14_Function_base13_Base_managerIZ4mainEUlP11HttpRequestP12HttpResponseE26_E10_M_destroyERSt9_Any_dataSt17integral_constantIbLb1EE
FNDA:4,_ZNSt14_Function_base13_Base_managerIZ4mainEUlP11HttpRequestP12HttpResponseE26_E10_M_destroyERSt9_Any_dataSt17integral_constantIbLb1EE
FN:167,_ZNSt14_Function_base13_Base_managerIZ4mainEUlP11HttpRequestP12HttpResponseE25_E10_M_destroyERSt9_Any_dataSt17integral_constantIbLb1EE
FNDA:4,_ZNSt14_Function_base13_Base_managerIZ4mainEUlP11HttpRequestP12HttpResponseE25_E10_M_destroyERSt9_Any_dataSt17integral_constantIbLb1EE
FN:167,_ZNSt14_Function_base13_Base_managerIZ4mainEUlP11HttpRequestP12HttpResponseE65_E10_M_destroyERSt9_Any_dataSt17integral_constantIbLb1EE
FNDA:4,_ZNSt14_Function_base13_Base_managerIZ4mainEUlP11HttpRequestP12HttpResponseE65_E10_M_destroyERSt9_Any_dataSt17integral_constantIbLb1EE
FN:167,_ZNSt14_Function_base13_Base_managerIZ4mainEUlP11HttpRequestP12HttpResponseE8_E10_M_destroyERSt9_Any_dataSt17integral_constantIbLb1EE
FNDA:4,_ZNSt14_Function_base13_Base_managerIZ4mainEUlP11HttpRequestP12HttpResponseE8_E10_M_destroyERSt9_Any_dataSt17integral_constantIbLb1EE
FN:167,_ZNSt14_Function_base13_Base_managerIZ4mainEUlP11HttpRequestP12HttpResponseE75_E10_M_destroyERSt9_Any_dataSt17integral_constantIbLb1EE
FNDA:4,_ZNSt14_Function_base13_Base_managerIZ4mainEUlP11HttpRequestP12HttpResponseE75_E10_M_destroyERSt9_Any_dataSt17integral_constantIbLb1EE
FN:167,_ZNSt14_Function_base13_Base_managerIZ4mainEUlP11HttpRequestP12HttpResponseE12_E10_M_destroyERSt9_Any_dataSt17integral_constantIbLb1EE
FNDA:4,_ZNSt14_Function_base13_Base_managerIZ4mainEUlP11HttpRequestP12HttpResponseE12_E10_M_destroyERSt9_Any_dataSt17integral_constantIbLb1EE
FN:167,_ZNSt14_Function_base13_Base_managerIZ4mainEUlP11HttpRequestP12HttpResponseE7_E10_M_destroyERSt9_Any_dataSt17integral_constantIbLb1EE
FNDA:4,_ZNSt14_Function_base13_Base_managerIZ4mainEUlP11HttpRequestP12HttpResponseE7_E10_M_destroyERSt9_Any_dataSt17integral_constantIbLb1EE
FN:167,_ZNSt14_Function_base13_Base_managerIZ4mainEUlP11HttpRequestP12HttpResponseE21_E10_M_destroyERSt9_Any_dataSt17integral_constantIbLb1EE
FNDA:4,_ZNSt14_Function_base13_Base_managerIZ4mainEUlP11HttpRequestP12HttpResponseE21_E10_M_destroyERSt9_Any_dataSt17integral_constantIbLb1EE
FN:167,_ZNSt14_Function_base13_Base_managerIZ4mainEUlP11HttpRequestP12HttpResponseE18_E10_M_destroyERSt9_Any_dataSt17integral_constantIbLb1EE
FNDA:4,_ZNSt14_Function_base13_Base_managerIZ4mainEUlP11HttpRequestP12HttpResponseE18_E10_M_destroyERSt9_Any_dataSt17integral_constantIbLb1EE
FN:167,_ZNSt14_Function_base13_Base_managerIZ4mainEUlP11HttpRequestP12HttpResponseE71_E10_M_destroyERSt9_Any_dataSt17integral_constantIbLb1EE
FNDA:4,_ZNSt14_Function_base13_Base_managerIZ4mainEUlP11HttpRequestP12HttpResponseE71_E10_M_destroyERSt9_Any_dataSt17integral_constantIbLb1EE
FN:167,_ZNSt14_Function_base13_Base_managerIZ4mainEUlP11HttpRequestP12HttpResponseE48_E10_M_destroyERSt9_Any_dataSt17integral_constantIbLb1EE
FNDA:4,_ZNSt14_Function_base13_Base_managerIZ4mainEUlP11HttpRequestP12HttpResponseE48_E10_M_destroyERSt9_Any_dataSt17integral_constantIbLb1EE
FN:167,_ZNSt14_Function_base13_Base_managerIZ4mainEUlP11HttpRequestP12HttpResponseE19_E10_M_destroyERSt9_Any_dataSt17integral_constantIbLb1EE
FNDA:4,_ZNSt14_Function_base13_Base_managerIZ4mainEUlP11HttpRequestP12HttpResponseE19_E10_M_destroyERSt9_Any_dataSt17integral_constantIbLb1EE
FN:167,_ZNSt14_Function_base13_Base_managerIZ4mainEUlP11HttpRequestP12HttpResponseE17_E10_M_destroyERSt9_Any_dataSt17integral_constantIbLb1EE
FNDA:4,_ZNSt14_Function_base13_Base_managerIZ4mainEUlP11HttpRequestP12HttpResponseE17_E10_M_destroyERSt9_Any_dataSt17integral_constantIbLb1EE
FN:167,_ZNSt14_Function_base13_Base_managerIZ4mainEUlP11HttpRequestP12HttpResponseE16_E10_M_destroyERSt9_Any_dataSt17integral_constantIbLb1EE
FNDA:4,_ZNSt14_Function_base13_Base_managerIZ4mainEUlP11HttpRequestP12HttpResponseE16_E10_M_destroyERSt9_Any_dataSt17integral_constantIbLb1EE
FN:167,_ZNSt14_Function_base13_Base_managerIZ4mainEUlP11HttpRequestP12HttpResponseE70_E10_M_destroyERSt9_Any_dataSt17integral_constantIbLb1EE
FNDA:4,_ZNSt14_Function_base13_Base_managerIZ4mainEUlP11HttpRequestP12HttpResponseE70_E10_M_destroyERSt9_Any_dataSt17integral_constantIbLb1EE
FN:167,_ZNSt14_Function_base13_Base_managerIZ4mainEUlP11HttpRequestP12HttpResponseE72_E10_M_destroyERSt9_Any_dataSt17integral_constantIbLb1EE
FNDA:4,_ZNSt14_Function_base13_Base_managerIZ4mainEUlP11HttpRequestP12HttpResponseE72_E10_M_destroyERSt9_Any_dataSt17integral_constantIbLb1EE
FN:167,_ZNSt14_Function_base13_Base_managerIZ4mainEUlP11HttpRequestP12HttpResponseE20_E10_M_destroyERSt9_Any_dataSt17integral_constantIbLb1EE
FNDA:4,_ZNSt14_Function_base13_Base_managerIZ4mainEUlP11HttpRequestP12HttpResponseE20_E10_M_destroyERSt9_Any_dataSt17integral_constantIbLb1EE
FN:167,_ZNSt14_Function_base13_Base_managerIZ4mainEUlP11HttpRequestP12HttpResponseE47_E10_M_destroyERSt9_Any_dataSt17integral_constantIbLb1EE
FNDA:3,_ZNSt14_Function_base13_Base_managerIZ4mainEUlP11HttpRequestP12HttpResponseE47_E10_M_destroyERSt9_Any_dataSt17integral_constantIbLb1EE
FN:167,_ZNSt14_Function_base13_Base_managerIZ4mainEUlP11HttpRequestP12HttpResponseE15_E10_M_destroyERSt9_Any_dataSt17integral_constantIbLb1EE
FNDA:5,_ZNSt14_Function_base13_Base_managerIZ4mainEUlP11HttpRequestP12HttpResponseE15_E10_M_destroyERSt9_Any_dataSt17integral_constantIbLb1EE
FN:167,_ZNSt14_Function_base13_Base_managerIZ4mainEUlP11HttpRequestP12HttpResponseE49_E10_M_destroyERSt9_Any_dataSt17integral_constantIbLb1EE
FNDA:4,_ZNSt14_Function_base13_Base_managerIZ4mainEUlP11HttpRequestP12HttpResponseE49_E10_M_destroyERSt9_Any_dataSt17integral_constantIbLb1EE
FN:167,_ZNSt14_Function_base13_Base_managerIZ4mainEUlP11HttpRequestP12HttpResponseE69_E10_M_destroyERSt9_Any_dataSt17integral_constantIbLb1EE
FNDA:4,_ZNSt14_Function_base13_Base_managerIZ4mainEUlP11HttpRequestP12HttpResponseE69_E10_M_destroyERSt9_Any_dataSt17integral_constantIbLb1EE
FN:167,_ZNSt14_Function_base13_Base_managerIZ4mainEUlP11HttpRequestP12HttpResponseE24_E10_M_destroyERSt9_Any_dataSt17integral_constantIbLb1EE
FNDA:4,_ZNSt14_Function_base13_Base_managerIZ4mainEUlP11HttpRequestP12HttpResponseE24_E10_M_destroyERSt9_Any_dataSt17integral_constantIbLb1EE
FN:167,_ZNSt14_Function_base13_Base_managerIZ4mainEUlP11HttpRequestP12HttpResponseE14_E10_M_destroyERSt9_Any_dataSt17integral_constantIbLb1EE
FNDA:4,_ZNSt14_Function_base13_Base_managerIZ4mainEUlP11HttpRequestP12HttpResponseE14_E10_M_destroyERSt9_Any_dataSt17integral_constantIbLb1EE
FN:167,_ZNSt14_Function_base13_Base_managerIZ4mainEUlP11HttpRequestP12HttpResponseE73_E10_M_destroyERSt9_Any_dataSt17integral_constantIbLb1EE
FNDA:4,_ZNSt14_Function_base13_Base_managerIZ4mainEUlP11HttpRequestP12HttpResponseE73_E10_M_destroyERSt9_Any_dataSt17integral_constantIbLb1EE
FN:167,_ZNSt14_Function_base13_Base_managerIZ4mainEUlP11HttpRequestP12HttpResponseE13_E10_M_destroyERSt9_Any_dataSt17integral_constantIbLb1EE
FNDA:4,_ZNSt14_Function_base13_Base_managerIZ4mainEUlP11HttpRequestP12HttpResponseE13_E10_M_destroyERSt9_Any_dataSt17integral_constantIbLb1EE
FN:167,_ZNSt14_Function_base13_Base_managerIZ4mainEUlP11HttpRequestP12HttpResponseE68_E10_M_destroyERSt9_Any_dataSt17integral_constantIbLb1EE
FNDA:4,_ZNSt14_Function_base13_Base_managerIZ4mainEUlP11HttpRequestP12HttpResponseE68_E10_M_destroyERSt9_Any_dataSt17integral_constantIbLb1EE
FN:167,_ZNSt14_Function_base13_Base_managerIZ4mainEUlP11HttpRequestP12HttpResponseE22_E10_M_destroyERSt9_Any_dataSt17integral_constantIbLb1EE
FNDA:4,_ZNSt14_Function_base13_Base_managerIZ4mainEUlP11HttpRequestP12HttpResponseE22_E10_M_destroyERSt9_Any_dataSt17integral_constantIbLb1EE
FN:167,_ZNSt14_Function_base13_Base_managerIZ4mainEUlP11HttpRequestP12HttpResponseE40_E10_M_destroyERSt9_Any_dataSt17integral_constantIbLb1EE
FNDA:4,_ZNSt14_Function_base13_Base_managerIZ4mainEUlP11HttpRequestP12HttpResponseE40_E10_M_destroyERSt9_Any_dataSt17integral_constantIbLb1EE
FN:167,_ZNSt14_Function_base13_Base_managerIZ4mainEUlP11HttpRequestP12HttpResponseE23_E10_M_destroyERSt9_Any_dataSt17integral_constantIbLb1EE
FNDA:4,_ZNSt14_Function_base13_Base_managerIZ4mainEUlP11HttpRequestP12HttpResponseE23_E10_M_destroyERSt9_Any_dataSt17integral_constantIbLb1EE
FN:167,_ZNSt14_Function_base13_Base_managerIZ4mainEUlP11HttpRequestP12HttpResponseE50_E10_M_destroyERSt9_Any_dataSt17integral_constantIbLb1EE
FNDA:4,_ZNSt14_Function_base13_Base_managerIZ4mainEUlP11HttpRequestP12HttpResponseE50_E10_M_destroyERSt9_Any_dataSt17integral_constantIbLb1EE
FN:167,_ZNSt14_Function_base13_Base_managerIZ4mainEUlP11HttpRequestP12HttpResponseE11_E10_M_destroyERSt9_Any_dataSt17integral_constantIbLb1EE
FNDA:4,_ZNSt14_Function_base13_Base_managerIZ4mainEUlP11HttpRequestP12HttpResponseE11_E10_M_destroyERSt9_Any_dataSt17integral_constantIbLb1EE
FN:167,_ZNSt14_Function_base13_Base_managerIZ4mainEUlP11HttpRequestP12HttpResponseE46_E10_M_destroyERSt9_Any_dataSt17integral_constantIbLb1EE
FNDA:4,_ZNSt14_Function_base13_Base_managerIZ4mainEUlP11HttpRequestP12HttpResponseE46_E10_M_destroyERSt9_Any_dataSt17integral_constantIbLb1EE
FN:167,_ZNSt14_Function_base13_Base_managerIZ4mainEUlP11HttpRequestP12HttpResponseE67_E10_M_destroyERSt9_Any_dataSt17integral_constantIbLb1EE
FNDA:4,_ZNSt14_Function_base13_Base_managerIZ4mainEUlP11HttpRequestP12HttpResponseE67_E10_M_destroyERSt9_Any_dataSt17integral_constantIbLb1EE
FN:167,_ZNSt14_Function_base13_Base_managerIZ4mainEUlP11HttpRequestP12HttpResponseE74_E10_M_destroyERSt9_Any_dataSt17integral_constantIbLb1EE
FNDA:4,_ZNSt14_Function_base13_Base_managerIZ4mainEUlP11HttpRequestP12HttpResponseE74_E10_M_destroyERSt9_Any_dataSt17integral_constantIbLb1EE
FN:167,_ZNSt14_Function_base13_Base_managerIZ4mainEUlP11HttpRequestP12HttpResponseE10_E10_M_destroyERSt9_Any_dataSt17integral_constantIbLb1EE
FNDA:4,_ZNSt14_Function_base13_Base_managerIZ4mainEUlP11HttpRequestP12HttpResponseE10_E10_M_destroyERSt9_Any_dataSt17integral_constantIbLb1EE
FN:167,_ZNSt14_Function_base13_Base_managerIZ4mainEUlP11HttpRequestP12HttpResponseE35_E10_M_destroyERSt9_Any_dataSt17integral_constantIbLb1EE
FNDA:4,_ZNSt14_Function_base13_Base_managerIZ4mainEUlP11HttpRequestP12HttpResponseE35_E10_M_destroyERSt9_Any_dataSt17integral_constantIbLb1EE
FN:167,_ZNSt14_Function_base13_Base_managerIZ4mainEUlP11HttpRequestP12HttpResponseE54_E10_M_destroyERSt9_Any_dataSt17integral_constantIbLb1EE
FNDA:4,_ZNSt14_Function_base13_Base_managerIZ4mainEUlP11HttpRequestP12HttpResponseE54_E10_M_destroyERSt9_Any_dataSt17integral_constantIbLb1EE
FN:167,_ZNSt14_Function_base13_Base_managerIZ4mainEUlP11HttpRequestP12HttpResponseE61_E10_M_destroyERSt9_Any_dataSt17integral_constantIbLb1EE
FNDA:4,_ZNSt14_Function_base13_Base_managerIZ4mainEUlP11HttpRequestP12HttpResponseE61_E10_M_destroyERSt9_Any_dataSt17integral_constantIbLb1EE
FN:167,_ZNSt14_Function_base13_Base_managerIZ4mainEUlP11HttpRequestP12HttpResponseE78_E10_M_destroyERSt9_Any_dataSt17integral_constantIbLb1EE
FNDA:4,_ZNSt14_Function_base13_Base_managerIZ4mainEUlP11HttpRequestP12HttpResponseE78_E10_M_destroyERSt9_Any_dataSt17integral_constantIbLb1EE
FN:167,_ZNSt14_Function_base13_Base_managerIZ4mainEUlP11HttpRequestP12HttpResponseE31_E10_M_destroyERSt9_Any_dataSt17integral_constantIbLb1EE
FNDA:4,_ZNSt14_Function_base13_Base_managerIZ4mainEUlP11HttpRequestP12HttpResponseE31_E10_M_destroyERSt9_Any_dataSt17integral_constantIbLb1EE
FN:167,_ZNSt14_Function_base13_Base_managerIZ4mainEUlP11HttpRequestP12HttpResponseE_E10_M_destroyERSt9_Any_dataSt17integral_constantIbLb1EE
FNDA:4,_ZNSt14_Function_base13_Base_managerIZ4mainEUlP11HttpRequestP12HttpResponseE_E10_M_destroyERSt9_Any_dataSt17integral_constantIbLb1EE
FN:167,_ZNSt14_Function_base13_Base_managerIZ4mainEUlP11HttpRequestP12HttpResponseE32_E10_M_destroyERSt9_Any_dataSt17integral_constantIbLb1EE
FNDA:4,_ZNSt14_Function_base13_Base_managerIZ4mainEUlP11HttpRequestP12HttpResponseE32_E10_M_destroyERSt9_Any_dataSt17integral_constantIbLb1EE
FN:167,_ZNSt14_Function_base13_Base_managerIZ4mainEUlP11HttpRequestP12HttpResponseE84_E10_M_destroyERSt9_Any_dataSt17integral_constantIbLb1EE
FNDA:4,_ZNSt14_Function_base13_Base_managerIZ4mainEUlP11HttpRequestP12HttpResponseE84_E10_M_destroyERSt9_Any_dataSt17integral_constantIbLb1EE
FN:167,_ZNSt14_Function_base13_Base_managerIZ4mainEUlP11HttpRequestP12HttpResponseE43_E10_M_destroyERSt9_Any_dataSt17integral_constantIbLb1EE
FNDA:4,_ZNSt14_Function_base13_Base_managerIZ4mainEUlP11HttpRequestP12HttpResponseE43_E10_M_destroyERSt9_Any_dataSt17integral_constantIbLb1EE
FN:167,_ZNSt14_Function_base13_Base_managerIZ4mainEUlP11HttpRequestP12HttpResponseE60_E10_M_destroyERSt9_Any_dataSt17integral_constantIbLb1EE
FNDA:4,_ZNSt14_Function_base13_Base_managerIZ4mainEUlP11HttpRequestP12HttpResponseE60_E10_M_destroyERSt9_Any_dataSt17integral_constantIbLb1EE
FN:167,_ZNSt14_Function_base13_Base_managerIZ4mainEUlP11HttpRequestP12HttpResponseE79_E10_M_destroyERSt9_Any_dataSt17integral_constantIbLb1EE
FNDA:4,_ZNSt14_Function_base13_Base_managerIZ4mainEUlP11HttpRequestP12HttpResponseE79_E10_M_destroyERSt9_Any_dataSt17integral_constantIbLb1EE
FN:167,_ZNSt14_Function_base13_Base_managerIZ4mainEUlP11HttpRequestP12HttpResponseE33_E10_M_destroyERSt9_Any_dataSt17integral_constantIbLb1EE
FNDA:4,_ZNSt14_Function_base13_Base_managerIZ4mainEUlP11HttpRequestP12HttpResponseE33_E10_M_destroyERSt9_Any_dataSt17integral_constantIbLb1EE
FN:167,_ZNSt14_Function_base13_Base_managerIZ4mainEUlP11HttpRequestP12HttpResponseE34_E10_M_destroyERSt9_Any_dataSt17integral_constantIbLb1EE
FNDA:4,_ZNSt14_Function_base13_Base_managerIZ4mainEUlP11HttpRequestP12HttpResponseE34_E10_M_destroyERSt9_Any_dataSt17integral_constantIbLb1EE
FN:167,_ZNSt14_Function_base13_Base_managerIZ4mainEUlP11HttpRequestP12HttpResponseE59_E10_M_destroyERSt9_Any_dataSt17integral_constantIbLb1EE
FNDA:4,_ZNSt14_Function_base13_Base_managerIZ4mainEUlP11HttpRequestP12HttpResponseE59_E10_M_destroyERSt9_Any_dataSt17integral_constantIbLb1EE
FN:167,_ZNSt14_Function_base13_Base_managerIZ4mainEUlP11HttpRequestP12HttpResponseE80_E10_M_destroyERSt9_Any_dataSt17integral_constantIbLb1EE
FNDA:4,_ZNSt14_Function_base13_Base_managerIZ4mainEUlP11HttpRequestP12HttpResponseE80_E10_M_destroyERSt9_Any_dataSt17integral_constantIbLb1EE
FN:167,_ZNSt14_Function_base13_Base_managerIZ4mainEUlP11HttpRequestP12HttpResponseE27_E10_M_destroyERSt9_Any_dataSt17integral_constantIbLb1EE
FNDA:4,_ZNSt14_Function_base13_Base_managerIZ4mainEUlP11HttpRequestP12HttpResponseE27_E10_M_destroyERSt9_Any_dataSt17integral_constantIbLb1EE
FN:167,_ZNSt14_Function_base13_Base_managerIZ4mainEUlP11HttpRequestP12HttpResponseE42_E10_M_destroyERSt9_Any_dataSt17integral_constantIbLb1EE
FNDA:4,_ZNSt14_Function_base13_Base_managerIZ4mainEUlP11HttpRequestP12HttpResponseE42_E10_M_destroyERSt9_Any_dataSt17integral_constantIbLb1EE
FN:167,_ZNSt14_Function_base13_Base_managerIZ4mainEUlP11HttpRequestP12HttpResponseE85_E10_M_destroyERSt9_Any_dataSt17integral_constantIbLb1EE
FNDA:4,_ZNSt14_Function_base13_Base_managerIZ4mainEUlP11HttpRequestP12HttpResponseE85_E10_M_destroyERSt9_Any_dataSt17integral_constantIbLb1EE
FN:167,_ZNSt14_Function_base13_Base_managerIZ4mainEUlP11HttpRequestP12HttpResponseE36_E10_M_destroyERSt9_Any_dataSt17integral_constantIbLb1EE
FNDA:4,_ZNSt14_Function_base13_Base_managerIZ4mainEUlP11HttpRequestP12HttpResponseE36_E10_M_destroyERSt9_Any_dataSt17integral_constantIbLb1EE
FN:167,_ZNSt14_Function_base13_Base_managerIZ4mainEUlP11HttpRequestP12HttpResponseE58_E10_M_destroyERSt9_Any_dataSt17integral_constantIbLb1EE
FNDA:4,_ZNSt14_Function_base13_Base_managerIZ4mainEUlP11HttpRequestP12HttpResponseE58_E10_M_destroyERSt9_Any_dataSt17integral_constantIbLb1EE
FN:167,_ZNSt14_Function_base13_Base_managerIZ4mainEUlP11HttpRequestP12HttpResponseE81_E10_M_destroyERSt9_Any_dataSt17integral_constantIbLb1EE
FNDA:4,_ZNSt14_Function_base13_Base_managerIZ4mainEUlP11HttpRequestP12HttpResponseE81_E10_M_destroyERSt9_Any_dataSt17integral_constantIbLb1EE
FN:167,_ZNSt14_Function_base13_Base_managerIZ4mainEUlP11HttpRequestP12HttpResponseE55_E10_M_destroyERSt9_Any_dataSt17integral_constantIbLb1EE
FNDA:4,_ZNSt14_Function_base13_Base_managerIZ4mainEUlP11HttpRequestP12HttpResponseE55_E10_M_destroyERSt9_Any_dataSt17integral_constantIbLb1EE
FN:167,_ZNSt14_Function_base13_Base_managerIZ4mainEUlP11HttpRequestP12HttpResponseE37_E10_M_destroyERSt9_Any_dataSt17integral_constantIbLb1EE
FNDA:5,_ZNSt14_Function_base13_Base_managerIZ4mainEUlP11HttpRequestP12HttpResponseE37_E10_M_destroyERSt9_Any_dataSt17integral_constantIbLb1EE
FN:167,_ZNSt14_Function_base13_Base_managerIZ4mainEUlP11HttpRequestP12HttpResponseE38_E10_M_destroyERSt9_Any_dataSt17integral_constantIbLb1EE
FNDA:4,_ZNSt14_Function_base13_Base_managerIZ4mainEUlP11HttpRequestP12HttpResponseE38_E10_M_destroyERSt9_Any_dataSt17integral_constantIbLb1EE
FN:167,_ZNSt14_Function_base13_Base_managerIZ4mainEUlP11HttpRequestP12HttpResponseE41_E10_M_destroyERSt9_Any_dataSt17integral_constantIbLb1EE
FNDA:4,_ZNSt14_Function_base13_Base_managerIZ4mainEUlP11HttpRequestP12HttpResponseE41_E10_M_destroyERSt9_Any_dataSt17integral_constantIbLb1EE
FN:167,_ZNSt14_Function_base13_Base_managerIZ4mainEUlP11HttpRequestP12HttpResponseE82_E10_M_destroyERSt9_Any_dataSt17integral_constantIbLb1EE
FNDA:4,_ZNSt14_Function_base13_Base_managerIZ4mainEUlP11HttpRequestP12HttpResponseE82_E10_M_destroyERSt9_Any_dataSt17integral_constantIbLb1EE
FN:167,_ZNSt14_Function_base13_Base_managerIZ4mainEUlP11HttpRequestP12HttpResponseE57_E10_M_destroyERSt9_Any_dataSt17integral_constantIbLb1EE
FNDA:4,_ZNSt14_Function_base13_Base_managerIZ4mainEUlP11HttpRequestP12HttpResponseE57_E10_M_destroyERSt9_Any_dataSt17integral_constantIbLb1EE
FN:167,_ZNSt14_Function_base13_Base_managerIZ4mainEUlP11HttpRequestP12HttpResponseE39_E10_M_destroyERSt9_Any_dataSt17integral_constantIbLb1EE
FNDA:4,_ZNSt14_Function_base13_Base_managerIZ4mainEUlP11HttpRequestP12HttpResponseE39_E10_M_destroyERSt9_Any_dataSt17integral_constantIbLb1EE
FN:167,_ZNSt14_Function_base13_Base_managerIZ4mainEUlP11HttpRequestP12HttpResponseE83_E10_M_destroyERSt9_Any_dataSt17integral_constantIbLb1EE
FNDA:4,_ZNSt14_Function_base13_Base_managerIZ4mainEUlP11HttpRequestP12HttpResponseE83_E10_M_destroyERSt9_Any_dataSt17integral_constantIbLb1EE
FN:167,_ZNSt14_Function_base13_Base_managerIZ4mainEUlP11HttpRequestP12HttpResponseE56_E10_M_destroyERSt9_Any_dataSt17integral_constantIbLb1EE
FNDA:4,_ZNSt14_Function_base13_Base_managerIZ4mainEUlP11HttpRequestP12HttpResponseE56_E10_M_destroyERSt9_Any_dataSt17integral_constantIbLb1EE
FN:167,_ZNSt14_Function_base13_Base_managerIZ4mainEUlP11HttpRequestP12HttpResponseE0_E10_M_destroyERSt9_Any_dataSt17integral_constantIbLb1EE
FNDA:4,_ZNSt14_Function_base13_Base_managerIZ4mainEUlP11HttpRequestP12HttpResponseE0_E10_M_destroyERSt9_Any_dataSt17integral_constantIbLb1EE
FN:167,_ZNSt14_Function_base13_Base_managerIZ4mainEUlP11HttpRequestP12HttpResponseE3_E10_M_destroyERSt9_Any_dataSt17integral_constantIbLb1EE
FNDA:4,_ZNSt14_Function_base13_Base_managerIZ4mainEUlP11HttpRequestP12HttpResponseE3_E10_M_destroyERSt9_Any_dataSt17integral_constantIbLb1EE
FN:167,_ZNSt14_Function_base13_Base_managerIZ4mainEUlP11HttpRequestP12HttpResponseE63_E10_M_destroyERSt9_Any_dataSt17integral_constantIbLb1EE
FNDA:4,_ZNSt14_Function_base13_Base_managerIZ4mainEUlP11HttpRequestP12HttpResponseE63_E10_M_destroyERSt9_Any_dataSt17integral_constantIbLb1EE
FN:167,_ZNSt14_Function_base13_Base_managerIZ4mainEUlP11HttpRequestP12HttpResponseE28_E10_M_destroyERSt9_Any_dataSt17integral_constantIbLb1EE
FNDA:3,_ZNSt14_Function_base13_Base_managerIZ4mainEUlP11HttpRequestP12HttpResponseE28_E10_M_destroyERSt9_Any_dataSt17integral_constantIbLb1EE
FN:167,_ZNSt14_Function_base13_Base_managerIZ4mainEUlP11HttpRequestP12HttpResponseE29_E10_M_destroyERSt9_Any_dataSt17integral_constantIbLb1EE
FNDA:4,_ZNSt14_Function_base13_Base_managerIZ4mainEUlP11HttpRequestP12HttpResponseE29_E10_M_destroyERSt9_Any_dataSt17integral_constantIbLb1EE
FN:167,_ZNSt14_Function_base13_Base_managerIZ4mainEUlP11HttpRequestP12HttpResponseE53_E10_M_destroyERSt9_Any_dataSt17integral_constantIbLb1EE
FNDA:4,_ZNSt14_Function_base13_Base_managerIZ4mainEUlP11HttpRequestP12HttpResponseE53_E10_M_destroyERSt9_Any_dataSt17integral_constantIbLb1EE
FN:167,_ZNSt14_Function_base13_Base_managerIZ4mainEUlP11HttpRequestP12HttpResponseE77_E10_M_destroyERSt9_Any_dataSt17integral_constantIbLb1EE
FNDA:4,_ZNSt14_Function_base13_Base_managerIZ4mainEUlP11HttpRequestP12HttpResponseE77_E10_M_destroyERSt9_Any_dataSt17integral_constantIbLb1EE
FN:167,_ZNSt14_Function_base13_Base_managerIZ4mainEUlP11HttpRequestP12HttpResponseE4_E10_M_destroyERSt9_Any_dataSt17integral_constantIbLb1EE
FNDA:4,_ZNSt14_Function_base13_Base_managerIZ4mainEUlP11HttpRequestP12HttpResponseE4_E10_M_destroyERSt9_Any_dataSt17integral_constantIbLb1EE
FN:167,_ZNSt14_Function_base13_Base_managerIZ4mainEUlP11HttpRequestP12HttpResponseE76_E10_M_destroyERSt9_Any_dataSt17integral_constantIbLb1EE
FNDA:4,_ZNSt14_Function_base13_Base_managerIZ4mainEUlP11HttpRequestP12HttpResponseE76_E10_M_destroyERSt9_Any_dataSt17integral_constantIbLb1EE
FN:167,_ZNSt14_Function_base13_Base_managerIZ4mainEUlP11HttpRequestP12HttpResponseE2_E10_M_destroyERSt9_Any_dataSt17integral_constantIbLb1EE
FNDA:4,_ZNSt14_Function_base13_Base_managerIZ4mainEUlP11HttpRequestP12HttpResponseE2_E10_M_destroyERSt9_Any_dataSt17integral_constantIbLb1EE
FN:167,_ZNSt14_Function_base13_Base_managerIZ4mainEUlP11HttpRequestP12HttpResponseE44_E10_M_destroyERSt9_Any_dataSt17integral_constantIbLb1EE
FNDA:4,_ZNSt14_Function_base13_Base_managerIZ4mainEUlP11HttpRequestP12HttpResponseE44_E10_M_destroyERSt9_Any_dataSt17integral_constantIbLb1EE
FN:167,_ZNSt14_Function_base13_Base_managerIZ4mainEUlP11HttpRequestP12HttpResponseE64_E10_M_destroyERSt9_Any_dataSt17integral_constantIbLb1EE
FNDA:4,_ZNSt14_Function_base13_Base_managerIZ4mainEUlP11HttpRequestP12HttpResponseE64_E10_M_destroyERSt9_Any_dataSt17integral_constantIbLb1EE
FN:167,_ZNSt14_Function_base13_Base_managerIZ4mainEUlP11HttpRequestP12HttpResponseE5_E10_M_destroyERSt9_Any_dataSt17integral_constantIbLb1EE
FNDA:4,_ZNSt14_Function_base13_Base_managerIZ4mainEUlP11HttpRequestP12HttpResponseE5_E10_M_destroyERSt9_Any_dataSt17integral_constantIbLb1EE
FN:167,_ZNSt14_Function_base13_Base_managerIZ4mainEUlP11HttpRequestP12HttpResponseE1_E10_M_destroyERSt9_Any_dataSt17integral_constantIbLb1EE
FNDA:4,_ZNSt14_Function_base13_Base_managerIZ4mainEUlP11HttpRequestP12HttpResponseE1_E10_M_destroyERSt9_Any_dataSt17integral_constantIbLb1EE
FN:167,_ZNSt14_Function_base13_Base_managerIZ4mainEUlP11HttpRequestP12HttpResponseE62_E10_M_destroyERSt9_Any_dataSt17integral_constantIbLb1EE
FNDA:4,_ZNSt14_Function_base13_Base_managerIZ4mainEUlP11HttpRequestP12HttpResponseE62_E10_M_destroyERSt9_Any_dataSt17integral_constantIbLb1EE
FN:167,_ZNSt14_Function_base13_Base_managerIZ4mainEUlP11HttpRequestP12HttpResponseE30_E10_M_destroyERSt9_Any_dataSt17integral_constantIbLb1EE
FNDA:4,_ZNSt14_Function_base13_Base_managerIZ4mainEUlP11HttpRequestP12HttpResponseE30_E10_M_destroyERSt9_Any_dataSt17integral_constantIbLb1EE
FN:167,_ZNSt14_Function_base13_Base_managerIZ4mainEUlP11HttpRequestP12HttpResponseE52_E10_M_destroyERSt9_Any_dataSt17integral_constantIbLb1EE
FNDA:4,_ZNSt14_Function_base13_Base_managerIZ4mainEUlP11HttpRequestP12HttpResponseE52_E10_M_destroyERSt9_Any_dataSt17integral_constantIbLb1EE
FN:181,_ZNSt14_Function_base13_Base_managerIZ4mainEUlP11HttpRequestP12HttpResponseE29_E10_M_managerERSt9_Any_dataRKS7_St18_Manager_operation
FNDA:8,_ZNSt14_Function_base13_Base_managerIZ4mainEUlP11HttpRequestP12HttpResponseE29_E10_M_managerERSt9_Any_dataRKS7_St18_Manager_operation
FN:181,_ZNSt14_Function_base13_Base_managerIZ4mainEUlP11HttpRequestP12HttpResponseE31_E10_M_managerERSt9_Any_dataRKS7_St18_Manager_operation
FNDA:8,_ZNSt14_Function_base13_Base_managerIZ4mainEUlP11HttpRequestP12HttpResponseE31_E10_M_managerERSt9_Any_dataRKS7_St18_Manager_operation
FN:181,_ZNSt14_Function_base13_Base_managerIZ4mainEUlP11HttpRequestP12HttpResponseE32_E10_M_managerERSt9_Any_dataRKS7_St18_Manager_operation
FNDA:8,_ZNSt14_Function_base13_Base_managerIZ4mainEUlP11HttpRequestP12HttpResponseE32_E10_M_managerERSt9_Any_dataRKS7_St18_Manager_operation
FN:181,_ZNSt14_Function_base13_Base_managerIZ4mainEUlP11HttpRequestP12HttpResponseE16_E10_M_managerERSt9_Any_dataRKS7_St18_Manager_operation
FNDA:8,_ZNSt14_Function_base13_Base_managerIZ4mainEUlP11HttpRequestP12HttpResponseE16_E10_M_managerERSt9_Any_dataRKS7_St18_Manager_operation
FN:181,_ZNSt14_Function_base13_Base_managerIZ4mainEUlP11HttpRequestP12HttpResponseE12_E10_M_managerERSt9_Any_dataRKS7_St18_Manager_operation
FNDA:8,_ZNSt14_Function_base13_Base_managerIZ4mainEUlP11HttpRequestP12HttpResponseE12_E10_M_managerERSt9_Any_dataRKS7_St18_Manager_operation
FN:181,_ZNSt14_Function_base13_Base_managerIZ4mainEUlP11HttpRequestP12HttpResponseE77_E10_M_managerERSt9_Any_dataRKS7_St18_Manager_operation
FNDA:8,_ZNSt14_Function_base13_Base_managerIZ4mainEUlP11HttpRequestP12HttpResponseE77_E10_M_managerERSt9_Any_dataRKS7_St18_Manager_operation
FN:181,_ZNSt14_Function_base13_Base_managerIZ4mainEUlP11HttpRequestP12HttpResponseE20_E10_M_managerERSt9_Any_dataRKS7_St18_Manager_operation
FNDA:8,_ZNSt14_Function_base13_Base_managerIZ4mainEUlP11HttpRequestP12HttpResponseE20_E10_M_managerERSt9_Any_dataRKS7_St18_Manager_operation
FN:181,_ZNSt14_Function_base13_Base_managerIZ4mainEUlP11HttpRequestP12HttpResponseE2_E10_M_managerERSt9_Any_dataRKS7_St18_Manager_operation
FNDA:8,_ZNSt14_Function_base13_Base_managerIZ4mainEUlP11HttpRequestP12HttpResponseE2_E10_M_managerERSt9_Any_dataRKS7_St18_Manager_operation
FN:181,_ZNSt14_Function_base13_Base_managerIZ4mainEUlP11HttpRequestP12HttpResponseE17_E10_M_managerERSt9_Any_dataRKS7_St18_Manager_operation
FNDA:8,_ZNSt14_Function_base13_Base_managerIZ4mainEUlP11HttpRequestP12HttpResponseE17_E10_M_managerERSt9_Any_dataRKS7_St18_Manager_operation
FN:181,_ZNSt14_Function_base13_Base_managerIZ4mainEUlP11HttpRequestP12HttpResponseE1_E10_M_managerERSt9_Any_dataRKS7_St18_Manager_operation
FNDA:8,_ZNSt14_Function_base13_Base_managerIZ4mainEUlP11HttpRequestP12HttpResponseE1_E10_M_managerERSt9_Any_dataRKS7_St18_Manager_operation
FN:181,_ZNSt14_Function_base13_Base_managerIZ4mainEUlP11HttpRequestP12HttpResponseE30_E10_M_managerERSt9_Any_dataRKS7_St18_Manager_operation
FNDA:8,_ZNSt14_Function_base13_Base_managerIZ4mainEUlP11HttpRequestP12HttpResponseE30_E10_M_managerERSt9_Any_dataRKS7_St18_Manager_operation
FN:181,_ZNSt14_Function_base13_Base_managerIZ4mainEUlP11HttpRequestP12HttpResponseE19_E10_M_managerERSt9_Any_dataRKS7_St18_Manager_operation
FNDA:8,_ZNSt14_Function_base13_Base_managerIZ4mainEUlP11HttpRequestP12HttpResponseE19_E10_M_managerERSt9_Any_dataRKS7_St18_Manager_operation
FN:181,_ZNSt14_Function_base13_Base_managerIZ4mainEUlP11HttpRequestP12HttpResponseE18_E10_M_managerERSt9_Any_dataRKS7_St18_Manager_operation
FNDA:8,_ZNSt14_Function_base13_Base_managerIZ4mainEUlP11HttpRequestP12HttpResponseE18_E10_M_managerERSt9_Any_dataRKS7_St18_Manager_operation
FN:181,_ZNSt14_Function_base13_Base_managerIZ4mainEUlP11HttpRequestP12HttpResponseE0_E10_M_managerERSt9_Any_dataRKS7_St18_Manager_operation
FNDA:8,_ZNSt14_Function_base13_Base_managerIZ4mainEUlP11HttpRequestP12HttpResponseE0_E10_M_managerERSt9_Any_dataRKS7_St18_Manager_operation
FN:181,_ZNSt14_Function_base13_Base_managerIZ4mainEUlP11HttpRequestP12HttpResponseE_E10_M_managerERSt9_Any_dataRKS7_St18_Manager_operation
FNDA:8,_ZNSt14_Function_base13_Base_managerIZ4mainEUlP11HttpRequestP12HttpResponseE_E10_M_managerERSt9_Any_dataRKS7_St18_Manager_operation
FN:181,_ZNSt14_Function_base13_Base_managerIZ4mainEUlP11HttpRequestP12HttpResponseE26_E10_M_managerERSt9_Any_dataRKS7_St18_Manager_operation
FNDA:8,_ZNSt14_Function_base13_Base_managerIZ4mainEUlP11HttpRequestP12HttpResponseE26_E10_M_managerERSt9_Any_dataRKS7_St18_Manager_operation
FN:181,_ZNSt14_Function_base13_Base_managerIZ4mainEUlP11HttpRequestP12HttpResponseE13_E10_M_managerERSt9_Any_dataRKS7_St18_Manager_operation
FNDA:8,_ZNSt14_Function_base13_Base_managerIZ4mainEUlP11HttpRequestP12HttpResponseE13_E10_M_managerERSt9_Any_dataRKS7_St18_Manager_operation
FN:181,_ZNSt14_Function_base13_Base_managerIZ4mainEUlP11HttpRequestP12HttpResponseE24_E10_M_managerERSt9_Any_dataRKS7_St18_Manager_operation
FNDA:8,_ZNSt14_Function_base13_Base_managerIZ4mainEUlP11HttpRequestP12HttpResponseE24_E10_M_managerERSt9_Any_dataRKS7_St18_Manager_operation
FN:181,_ZNSt14_Function_base13_Base_managerIZ4mainEUlP11HttpRequestP12HttpResponseE23_E10_M_managerERSt9_Any_dataRKS7_St18_Manager_operation
FNDA:8,_ZNSt14_Function_base13_Base_managerIZ4mainEUlP11HttpRequestP12HttpResponseE23_E10_M_managerERSt9_Any_dataRKS7_St18_Manager_operation
FN:181,_ZNSt14_Function_base13_Base_managerIZ4mainEUlP11HttpRequestP12HttpResponseE11_E10_M_managerERSt9_Any_dataRKS7_St18_Manager_operation
FNDA:8,_ZNSt14_Function_base13_Base_managerIZ4mainEUlP11HttpRequestP12HttpResponseE11_E10_M_managerERSt9_Any_dataRKS7_St18_Manager_operation
FN:181,_ZNSt14_Function_base13_Base_managerIZ4mainEUlP11HttpRequestP12HttpResponseE25_E10_M_managerERSt9_Any_dataRKS7_St18_Manager_operation
FNDA:8,_ZNSt14_Function_base13_Base_managerIZ4mainEUlP11HttpRequestP12HttpResponseE25_E10_M_managerERSt9_Any_dataRKS7_St18_Manager_operation
FN:181,_ZNSt14_Function_base13_Base_managerIZ4mainEUlP11HttpRequestP12HttpResponseE10_E10_M_managerERSt9_Any_dataRKS7_St18_Manager_operation
FNDA:8,_ZNSt14_Function_base13_Base_managerIZ4mainEUlP11HttpRequestP12HttpResponseE10_E10_M_managerERSt9_Any_dataRKS7_St18_Manager_operation
FN:181,_ZNSt14_Function_base13_Base_managerIZ4mainEUlP11HttpRequestP12HttpResponseE14_E10_M_managerERSt9_Any_dataRKS7_St18_Manager_operation
FNDA:8,_ZNSt14_Function_base13_Base_managerIZ4mainEUlP11HttpRequestP12HttpResponseE14_E10_M_managerERSt9_Any_dataRKS7_St18_Manager_operation
FN:181,_ZNSt14_Function_base13_Base_managerIZ4mainEUlP11HttpRequestP12HttpResponseE22_E10_M_managerERSt9_Any_dataRKS7_St18_Manager_operation
FNDA:8,_ZNSt14_Function_base13_Base_managerIZ4mainEUlP11HttpRequestP12HttpResponseE22_E10_M_managerERSt9_Any_dataRKS7_St18_Manager_operation
FN:181,_ZNSt14_Function_base13_Base_managerIZ4mainEUlP11HttpRequestP12HttpResponseE9_E10_M_managerERSt9_Any_dataRKS7_St18_Manager_operation
FNDA:8,_ZNSt14_Function_base13_Base_managerIZ4mainEUlP11HttpRequestP12HttpResponseE9_E10_M_managerERSt9_Any_dataRKS7_St18_Manager_operation
FN:181,_ZNSt14_Function_base13_Base_managerIZ4mainEUlP11HttpRequestP12HttpResponseE3_E10_M_managerERSt9_Any_dataRKS7_St18_Manager_operation
FNDA:8,_ZNSt14_Function_base13_Base_managerIZ4mainEUlP11HttpRequestP12HttpResponseE3_E10_M_managerERSt9_Any_dataRKS7_St18_Manager_operation
FN:181,_ZNSt14_Function_base13_Base_managerIZ4mainEUlP11HttpRequestP12HttpResponseE8_E10_M_managerERSt9_Any_dataRKS7_St18_Manager_operation
FNDA:8,_ZNSt14_Function_base13_Base_managerIZ4mainEUlP11HttpRequestP12HttpResponseE8_E10_M_managerERSt9_Any_dataRKS7_St18_Manager_operation
FN:181,_ZNSt14_Function_base13_Base_managerIZ4mainEUlP11HttpRequestP12HttpResponseE7_E10_M_managerERSt9_Any_dataRKS7_St18_Manager_operation
FNDA:8,_ZNSt14_Function_base13_Base_managerIZ4mainEUlP11HttpRequestP12HttpResponseE7_E10_M_managerERSt9_Any_dataRKS7_St18_Manager_operation
FN:181,_ZNSt14_Function_base13_Base_managerIZ4mainEUlP11HttpRequestP12HttpResponseE27_E10_M_managerERSt9_Any_dataRKS7_St18_Manager_operation
FNDA:8,_ZNSt14_Function_base13_Base_managerIZ4mainEUlP11HttpRequestP12HttpResponseE27_E10_M_managerERSt9_Any_dataRKS7_St18_Manager_operation
FN:181,_ZNSt14_Function_base13_Base_managerIZ4mainEUlP11HttpRequestP12HttpResponseE15_E10_M_managerERSt9_Any_dataRKS7_St18_Manager_operation
FNDA:9,_ZNSt14_Function_base13_Base_managerIZ4mainEUlP11HttpRequestP12HttpResponseE15_E10_M_managerERSt9_Any_dataRKS7_St18_Manager_operation
FN:181,_ZNSt14_Function_base13_Base_managerIZ4mainEUlP11HttpRequestP12HttpResponseE6_E10_M_managerERSt9_Any_dataRKS7_St18_Manager_operation
FNDA:8,_ZNSt14_Function_base13_Base_managerIZ4mainEUlP11HttpRequestP12HttpResponseE6_E10_M_managerERSt9_Any_dataRKS7_St18_Manager_operation
FN:181,_ZNSt14_Function_base13_Base_managerIZ4mainEUlP11HttpRequestP12HttpResponseE5_E10_M_managerERSt9_Any_dataRKS7_St18_Manager_operation
FNDA:8,_ZNSt14_Function_base13_Base_managerIZ4mainEUlP11HttpRequestP12HttpResponseE5_E10_M_managerERSt9_Any_dataRKS7_St18_Manager_operation
FN:181,_ZNSt14_Function_base13_Base_managerIZ4mainEUlP11HttpRequestP12HttpResponseE21_E10_M_managerERSt9_Any_dataRKS7_St18_Manager_operation
FNDA:8,_ZNSt14_Function_base13_Base_managerIZ4mainEUlP11HttpRequestP12HttpResponseE21_E10_M_managerERSt9_Any_dataRKS7_St18_Manager_operation
FN:181,_ZNSt14_Function_base13_Base_managerIZ4mainEUlP11HttpRequestP12HttpResponseE28_E10_M_managerERSt9_Any_dataRKS7_St18_Manager_operation
FNDA:6,_ZNSt14_Function_base13_Base_managerIZ4mainEUlP11HttpRequestP12HttpResponseE28_E10_M_managerERSt9_Any_dataRKS7_St18_Manager_operation
FN:181,_ZNSt14_Function_base13_Base_managerIZ4mainEUlP11HttpRequestP12HttpResponseE4_E10_M_managerERSt9_Any_dataRKS7_St18_Manager_operation
FNDA:8,_ZNSt14_Function_base13_Base_managerIZ4mainEUlP11HttpRequestP12HttpResponseE4_E10_M_managerERSt9_Any_dataRKS7_St18_Manager_operation
FN:181,_ZNSt14_Function_base13_Base_managerIZ4mainEUlP11HttpRequestP12HttpResponseE55_E10_M_managerERSt9_Any_dataRKS7_St18_Manager_operation
FNDA:8,_ZNSt14_Function_base13_Base_managerIZ4mainEUlP11HttpRequestP12HttpResponseE55_E10_M_managerERSt9_Any_dataRKS7_St18_Manager_operation
FN:181,_ZNSt14_Function_base13_Base_managerIZ4mainEUlP11HttpRequestP12HttpResponseE75_E10_M_managerERSt9_Any_dataRKS7_St18_Manager_operation
FNDA:8,_ZNSt14_Function_base13_Base_managerIZ4mainEUlP11HttpRequestP12HttpResponseE75_E10_M_managerERSt9_Any_dataRKS7_St18_Manager_operation
FN:181,_ZNSt14_Function_base13_Base_managerIZ4mainEUlP11HttpRequestP12HttpResponseE62_E10_M_managerERSt9_Any_dataRKS7_St18_Manager_operation
FNDA:8,_ZNSt14_Function_base13_Base_managerIZ4mainEUlP11HttpRequestP12HttpResponseE62_E10_M_managerERSt9_Any_dataRKS7_St18_Manager_operation
FN:181,_ZNSt14_Function_base13_Base_managerIZ4mainEUlP11HttpRequestP12HttpResponseE76_E10_M_managerERSt9_Any_dataRKS7_St18_Manager_operation
FNDA:8,_ZNSt14_Function_base13_Base_managerIZ4mainEUlP11HttpRequestP12HttpResponseE76_E10_M_managerERSt9_Any_dataRKS7_St18_Manager_operation
FN:181,_ZNSt14_Function_base13_Base_managerIZ4mainEUlP11HttpRequestP12HttpResponseE61_E10_M_managerERSt9_Any_dataRKS7_St18_Manager_operation
FNDA:8,_ZNSt14_Function_base13_Base_managerIZ4mainEUlP11HttpRequestP12HttpResponseE61_E10_M_managerERSt9_Any_dataRKS7_St18_Manager_operation
FN:181,_ZNSt14_Function_base13_Base_managerIZ4mainEUlP11HttpRequestP12HttpResponseE60_E10_M_managerERSt9_Any_dataRKS7_St18_Manager_operation
FNDA:8,_ZNSt14_Function_base13_Base_managerIZ4mainEUlP11HttpRequestP12HttpResponseE60_E10_M_managerERSt9_Any_dataRKS7_St18_Manager_operation
FN:181,_ZNSt14_Function_base13_Base_managerIZ4mainEUlP11HttpRequestP12HttpResponseE59_E10_M_managerERSt9_Any_dataRKS7_St18_Manager_operation
FNDA:8,_ZNSt14_Function_base13_Base_managerIZ4mainEUlP11HttpRequestP12HttpResponseE59_E10_M_managerERSt9_Any_dataRKS7_St18_Manager_operation
FN:181,_ZNSt14_Function_base13_Base_managerIZ4mainEUlP11HttpRequestP12HttpResponseE58_E10_M_managerERSt9_Any_dataRKS7_St18_Manager_operation
FNDA:8,_ZNSt14_Function_base13_Base_managerIZ4mainEUlP11HttpRequestP12HttpResponseE58_E10_M_managerERSt9_Any_dataRKS7_St18_Manager_operation
FN:181,_ZNSt14_Function_base13_Base_managerIZ4mainEUlP11HttpRequestP12HttpResponseE57_E10_M_managerERSt9_Any_dataRKS7_St18_Manager_operation
FNDA:8,_ZNSt14_Function_base13_Base_managerIZ4mainEUlP11HttpRequestP12HttpResponseE57_E10_M_managerERSt9_Any_dataRKS7_St18_Manager_operation
FN:181,_ZNSt14_Function_base13_Base_managerIZ4mainEUlP11HttpRequestP12HttpResponseE56_E10_M_managerERSt9_Any_dataRKS7_St18_Manager_operation
FNDA:8,_ZNSt14_Function_base13_Base_managerIZ4mainEUlP11HttpRequestP12HttpResponseE56_E10_M_managerERSt9_Any_dataRKS7_St18_Manager_operation
FN:181,_ZNSt14_Function_base13_Base_managerIZ4mainEUlP11HttpRequestP12HttpResponseE63_E10_M_managerERSt9_Any_dataRKS7_St18_Manager_operation
FNDA:8,_ZNSt14_Function_base13_Base_managerIZ4mainEUlP11HttpRequestP12HttpResponseE63_E10_M_managerERSt9_Any_dataRKS7_St18_Manager_operation
FN:181,_ZNSt14_Function_base13_Base_managerIZ4mainEUlP11HttpRequestP12HttpResponseE54_E10_M_managerERSt9_Any_dataRKS7_St18_Manager_operation
FNDA:8,_ZNSt14_Function_base13_Base_managerIZ4mainEUlP11HttpRequestP12HttpResponseE54_E10_M_managerERSt9_Any_dataRKS7_St18_Manager_operation
FN:181,_ZNSt14_Function_base13_Base_managerIZ4mainEUlP11HttpRequestP12HttpResponseE53_E10_M_managerERSt9_Any_dataRKS7_St18_Manager_operation
FNDA:8,_ZNSt14_Function_base13_Base_managerIZ4mainEUlP11HttpRequestP12HttpResponseE53_E10_M_managerERSt9_Any_dataRKS7_St18_Manager_operation
FN:181,_ZNSt14_Function_base13_Base_managerIZ4mainEUlP11HttpRequestP12HttpResponseE52_E10_M_managerERSt9_Any_dataRKS7_St18_Manager_operation
FNDA:8,_ZNSt14_Function_base13_Base_managerIZ4mainEUlP11HttpRequestP12HttpResponseE52_E10_M_managerERSt9_Any_dataRKS7_St18_Manager_operation
FN:181,_ZNSt14_Function_base13_Base_managerIZ4mainEUlP11HttpRequestP12HttpResponseE51_E10_M_managerERSt9_Any_dataRKS7_St18_Manager_operation
FNDA:8,_ZNSt14_Function_base13_Base_managerIZ4mainEUlP11HttpRequestP12HttpResponseE51_E10_M_managerERSt9_Any_dataRKS7_St18_Manager_operation
FN:181,_ZNSt14_Function_base13_Base_managerIZ4mainEUlP11HttpRequestP12HttpResponseE50_E10_M_managerERSt9_Any_dataRKS7_St18_Manager_operation
FNDA:8,_ZNSt14_Function_base13_Base_managerIZ4mainEUlP11HttpRequestP12HttpResponseE50_E10_M_managerERSt9_Any_dataRKS7_St18_Manager_operation
FN:181,_ZNSt14_Function_base13_Base_managerIZ4mainEUlP11HttpRequestP12HttpResponseE49_E10_M_managerERSt9_Any_dataRKS7_St18_Manager_operation
FNDA:8,_ZNSt14_Function_base13_Base_managerIZ4mainEUlP11HttpRequestP12HttpResponseE49_E10_M_managerERSt9_Any_dataRKS7_St18_Manager_operation
FN:181,_ZNSt14_Function_base13_Base_managerIZ4mainEUlP11HttpRequestP12HttpResponseE48_E10_M_managerERSt9_Any_dataRKS7_St18_Manager_operation
FNDA:8,_ZNSt14_Function_base13_Base_managerIZ4mainEUlP11HttpRequestP12HttpResponseE48_E10_M_managerERSt9_Any_dataRKS7_St18_Manager_operation
FN:181,_ZNSt14_Function_base13_Base_managerIZ4mainEUlP11HttpRequestP12HttpResponseE47_E10_M_managerERSt9_Any_dataRKS7_St18_Manager_operation
FNDA:6,_ZNSt14_Function_base13_Base_managerIZ4mainEUlP11HttpRequestP12HttpResponseE47_E10_M_managerERSt9_Any_dataRKS7_St18_Manager_operation
FN:181,_ZNSt14_Function_base13_Base_managerIZ4mainEUlP11HttpRequestP12HttpResponseE84_E10_M_managerERSt9_Any_dataRKS7_St18_Manager_operation
FNDA:8,_ZNSt14_Function_base13_Base_managerIZ4mainEUlP11HttpRequestP12HttpResponseE84_E10_M_managerERSt9_Any_dataRKS7_St18_Manager_operation
FN:181,_ZNSt14_Function_base13_Base_managerIZ4mainEUlP11HttpRequestP12HttpResponseE82_E10_M_managerERSt9_Any_dataRKS7_St18_Manager_operation
FNDA:8,_ZNSt14_Function_base13_Base_managerIZ4mainEUlP11HttpRequestP12HttpResponseE82_E10_M_managerERSt9_Any_dataRKS7_St18_Manager_operation
FN:181,_ZNSt14_Function_base13_Base_managerIZ4mainEUlP11HttpRequestP12HttpResponseE70_E10_M_managerERSt9_Any_dataRKS7_St18_Manager_operation
FNDA:8,_ZNSt14_Function_base13_Base_managerIZ4mainEUlP11HttpRequestP12HttpResponseE70_E10_M_managerERSt9_Any_dataRKS7_St18_Manager_operation
FN:181,_ZNSt14_Function_base13_Base_managerIZ4mainEUlP11HttpRequestP12HttpResponseE69_E10_M_managerERSt9_Any_dataRKS7_St18_Manager_operation
FNDA:8,_ZNSt14_Function_base13_Base_managerIZ4mainEUlP11HttpRequestP12HttpResponseE69_E10_M_managerERSt9_Any_dataRKS7_St18_Manager_operation
FN:181,_ZNSt14_Function_base13_Base_managerIZ4mainEUlP11HttpRequestP12HttpResponseE68_E10_M_managerERSt9_Any_dataRKS7_St18_Manager_operation
FNDA:8,_ZNSt14_Function_base13_Base_managerIZ4mainEUlP11HttpRequestP12HttpResponseE68_E10_M_managerERSt9_Any_dataRKS7_St18_Manager_operation
FN:181,_ZNSt14_Function_base13_Base_managerIZ4mainEUlP11HttpRequestP12HttpResponseE83_E10_M_managerERSt9_Any_dataRKS7_St18_Manager_operation
FNDA:8,_ZNSt14_Function_base13_Base_managerIZ4mainEUlP11HttpRequestP12HttpResponseE83_E10_M_managerERSt9_Any_dataRKS7_St18_Manager_operation
FN:181,_ZNSt14_Function_base13_Base_managerIZ4mainEUlP11HttpRequestP12HttpResponseE71_E10_M_managerERSt9_Any_dataRKS7_St18_Manager_operation
FNDA:8,_ZNSt14_Function_base13_Base_managerIZ4mainEUlP11HttpRequestP12HttpResponseE71_E10_M_managerERSt9_Any_dataRKS7_St18_Manager_operation
FN:181,_ZNSt14_Function_base13_Base_managerIZ4mainEUlP11HttpRequestP12HttpResponseE81_E10_M_managerERSt9_Any_dataRKS7_St18_Manager_operation
FNDA:8,_ZNSt14_Function_base13_Base_managerIZ4mainEUlP11HttpRequestP12HttpResponseE81_E10_M_managerERSt9_Any_dataRKS7_St18_Manager_operation
FN:181,_ZNSt14_Function_base13_Base_managerIZ4mainEUlP11HttpRequestP12HttpResponseE67_E10_M_managerERSt9_Any_dataRKS7_St18_Manager_operation
FNDA:8,_ZNSt14_Function_base13_Base_managerIZ4mainEUlP11HttpRequestP12HttpResponseE67_E10_M_managerERSt9_Any_dataRKS7_St18_Manager_operation
FN:181,_ZNSt14_Function_base13_Base_managerIZ4mainEUlP11HttpRequestP12HttpResponseE72_E10_M_managerERSt9_Any_dataRKS7_St18_Manager_operation
FNDA:8,_ZNSt14_Function_base13_Base_managerIZ4mainEUlP11HttpRequestP12HttpResponseE72_E10_M_managerERSt9_Any_dataRKS7_St18_Manager_operation
FN:181,_ZNSt14_Function_base13_Base_managerIZ4mainEUlP11HttpRequestP12HttpResponseE33_E10_M_managerERSt9_Any_dataRKS7_St18_Manager_operation
FNDA:8,_ZNSt14_Function_base13_Base_managerIZ4mainEUlP11HttpRequestP12HttpResponseE33_E10_M_managerERSt9_Any_dataRKS7_St18_Manager_operation
FN:181,_ZNSt14_Function_base13_Base_managerIZ4mainEUlP11HttpRequestP12HttpResponseE66_E10_M_managerERSt9_Any_dataRKS7_St18_Manager_operation
FNDA:8,_ZNSt14_Function_base13_Base_managerIZ4mainEUlP11HttpRequestP12HttpResponseE66_E10_M_managerERSt9_Any_dataRKS7_St18_Manager_operation
FN:181,_ZNSt14_Function_base13_Base_managerIZ4mainEUlP11HttpRequestP12HttpResponseE73_E10_M_managerERSt9_Any_dataRKS7_St18_Manager_operation
FNDA:8,_ZNSt14_Function_base13_Base_managerIZ4mainEUlP11HttpRequestP12HttpResponseE73_E10_M_managerERSt9_Any_dataRKS7_St18_Manager_operation
FN:181,_ZNSt14_Function_base13_Base_managerIZ4mainEUlP11HttpRequestP12HttpResponseE80_E10_M_managerERSt9_Any_dataRKS7_St18_Manager_operation
FNDA:8,_ZNSt14_Function_base13_Base_managerIZ4mainEUlP11HttpRequestP12HttpResponseE80_E10_M_managerERSt9_Any_dataRKS7_St18_Manager_operation
FN:181,_ZNSt14_Function_base13_Base_managerIZ4mainEUlP11HttpRequestP12HttpResponseE65_E10_M_managerERSt9_Any_dataRKS7_St18_Manager_operation
FNDA:8,_ZNSt14_Function_base13_Base_managerIZ4mainEUlP11HttpRequestP12HttpResponseE65_E10_M_managerERSt9_Any_dataRKS7_St18_Manager_operation
FN:181,_ZNSt14_Function_base13_Base_managerIZ4mainEUlP11HttpRequestP12HttpResponseE85_E10_M_managerERSt9_Any_dataRKS7_St18_Manager_operation
FNDA:8,_ZNSt14_Function_base13_Base_managerIZ4mainEUlP11HttpRequestP12HttpResponseE85_E10_M_managerERSt9_Any_dataRKS7_St18_Manager_operation
FN:181,_ZNSt14_Function_base13_Base_managerIZ4mainEUlP11HttpRequestP12HttpResponseE74_E10_M_managerERSt9_Any_dataRKS7_St18_Manager_operation
FNDA:8,_ZNSt14_Function_base13_Base_managerIZ4mainEUlP11HttpRequestP12HttpResponseE74_E10_M_managerERSt9_Any_dataRKS7_St18_Manager_operation
FN:181,_ZNSt14_Function_base13_Base_managerIZ4mainEUlP11HttpRequestP12HttpResponseE64_E10_M_managerERSt9_Any_dataRKS7_St18_Manager_operation
FNDA:8,_ZNSt14_Function_base13_Base_managerIZ4mainEUlP11HttpRequestP12HttpResponseE64_E10_M_managerERSt9_Any_dataRKS7_St18_Manager_operation
FN:181,_ZNSt14_Function_base13_Base_managerIZ4mainEUlP11HttpRequestP12HttpResponseE79_E10_M_managerERSt9_Any_dataRKS7_St18_Manager_operation
FNDA:8,_ZNSt14_Function_base13_Base_managerIZ4mainEUlP11HttpRequestP12HttpResponseE79_E10_M_managerERSt9_Any_dataRKS7_St18_Manager_operation
FN:181,_ZNSt14_Function_base13_Base_managerIZ4mainEUlP11HttpRequestP12HttpResponseE45_E10_M_managerERSt9_Any_dataRKS7_St18_Manager_operation
FNDA:8,_ZNSt14_Function_base13_Base_managerIZ4mainEUlP11HttpRequestP12HttpResponseE45_E10_M_managerERSt9_Any_dataRKS7_St18_Manager_operation
FN:181,_ZNSt14_Function_base13_Base_managerIZ4mainEUlP11HttpRequestP12HttpResponseE38_E10_M_managerERSt9_Any_dataRKS7_St18_Manager_operation
FNDA:8,_ZNSt14_Function_base13_Base_managerIZ4mainEUlP11HttpRequestP12HttpResponseE38_E10_M_managerERSt9_Any_dataRKS7_St18_Manager_operation
FN:181,_ZNSt14_Function_base13_Base_managerIZ4mainEUlP11HttpRequestP12HttpResponseE43_E10_M_managerERSt9_Any_dataRKS7_St18_Manager_operation
FNDA:8,_ZNSt14_Function_base13_Base_managerIZ4mainEUlP11HttpRequestP12HttpResponseE43_E10_M_managerERSt9_Any_dataRKS7_St18_Manager_operation
FN:181,_ZNSt14_Function_base13_Base_managerIZ4mainEUlP11HttpRequestP12HttpResponseE44_E10_M_managerERSt9_Any_dataRKS7_St18_Manager_operation
FNDA:8,_ZNSt14_Function_base13_Base_managerIZ4mainEUlP11HttpRequestP12HttpResponseE44_E10_M_managerERSt9_Any_dataRKS7_St18_Manager_operation
FN:181,_ZNSt14_Function_base13_Base_managerIZ4mainEUlP11HttpRequestP12HttpResponseE37_E10_M_managerERSt9_Any_dataRKS7_St18_Manager_operation
FNDA:9,_ZNSt14_Function_base13_Base_managerIZ4mainEUlP11HttpRequestP12HttpResponseE37_E10_M_managerERSt9_Any_dataRKS7_St18_Manager_operation
FN:181,_ZNSt14_Function_base13_Base_managerIZ4mainEUlP11HttpRequestP12HttpResponseE39_E10_M_managerERSt9_Any_dataRKS7_St18_Manager_operation
FNDA:8,_ZNSt14_Function_base13_Base_managerIZ4mainEUlP11HttpRequestP12HttpResponseE39_E10_M_managerERSt9_Any_dataRKS7_St18_Manager_operation
FN:181,_ZNSt14_Function_base13_Base_managerIZ4mainEUlP11HttpRequestP12HttpResponseE36_E10_M_managerERSt9_Any_dataRKS7_St18_Manager_operation
FNDA:8,_ZNSt14_Function_base13_Base_managerIZ4mainEUlP11HttpRequestP12HttpResponseE36_E10_M_managerERSt9_Any_dataRKS7_St18_Manager_operation
FN:181,_ZNSt14_Function_base13_Base_managerIZ4mainEUlP11HttpRequestP12HttpResponseE40_E10_M_managerERSt9_Any_dataRKS7_St18_Manager_operation
FNDA:8,_ZNSt14_Function_base13_Base_managerIZ4mainEUlP11HttpRequestP12HttpResponseE40_E10_M_managerERSt9_Any_dataRKS7_St18_Manager_operation
FN:181,_ZNSt14_Function_base13_Base_managerIZ4mainEUlP11HttpRequestP12HttpResponseE35_E10_M_managerERSt9_Any_dataRKS7_St18_Manager_operation
FNDA:8,_ZNSt14_Function_base13_Base_managerIZ4mainEUlP11HttpRequestP12HttpResponseE35_E10_M_managerERSt9_Any_dataRKS7_St18_Manager_operation
FN:181,_ZNSt14_Function_base13_Base_managerIZ4mainEUlP11HttpRequestP12HttpResponseE42_E10_M_managerERSt9_Any_dataRKS7_St18_Manager_operation
FNDA:8,_ZNSt14_Function_base13_Base_managerIZ4mainEUlP11HttpRequestP12HttpResponseE42_E10_M_managerERSt9_Any_dataRKS7_St18_Manager_operation
FN:181,_ZNSt14_Function_base13_Base_managerIZ4mainEUlP11HttpRequestP12HttpResponseE34_E10_M_managerERSt9_Any_dataRKS7_St18_Manager_operation
FNDA:8,_ZNSt14_Function_base13_Base_managerIZ4mainEUlP11HttpRequestP12HttpResponseE34_E10_M_managerERSt9_Any_dataRKS7_St18_Manager_operation
FN:181,_ZNSt14_Function_base13_Base_managerIZ4mainEUlP11HttpRequestP12HttpResponseE78_E10_M_managerERSt9_Any_dataRKS7_St18_Manager_operation
FNDA:8,_ZNSt14_Function_base13_Base_managerIZ4mainEUlP11HttpRequestP12HttpResponseE78_E10_M_managerERSt9_Any_dataRKS7_St18_Manager_operation
FN:181,_ZNSt14_Function_base13_Base_managerIZ4mainEUlP11HttpRequestP12HttpResponseE46_E10_M_managerERSt9_Any_dataRKS7_St18_Manager_operation
FNDA:8,_ZNSt14_Function_base13_Base_managerIZ4mainEUlP11HttpRequestP12HttpResponseE46_E10_M_managerERSt9_Any_dataRKS7_St18_Manager_operation
FN:181,_ZNSt14_Function_base13_Base_managerIZ4mainEUlP11HttpRequestP12HttpResponseE41_E10_M_managerERSt9_Any_dataRKS7_St18_Manager_operation
FNDA:8,_ZNSt14_Function_base13_Base_managerIZ4mainEUlP11HttpRequestP12HttpResponseE41_E10_M_managerERSt9_Any_dataRKS7_St18_Manager_operation
FN:207,_ZNSt14_Function_base13_Base_managerIZ4mainEUlP11HttpRequestP12HttpResponseE56_E15_M_init_functorERSt9_Any_dataOS5_
FNDA:1,_ZNSt14_Function_base13_Base_managerIZ4mainEUlP11HttpRequestP12HttpResponseE56_E15_M_init_functorERSt9_Any_dataOS5_
FN:207,_ZNSt14_Function_base13_Base_managerIZ4mainEUlP11HttpRequestP12HttpResponseE57_E15_M_init_functorERSt9_Any_dataOS5_
FNDA:1,_ZNSt14_Function_base13_Base_managerIZ4mainEUlP11HttpRequestP12HttpResponseE57_E15_M_init_functorERSt9_Any_dataOS5_
FN:207,_ZNSt14_Function_base13_Base_managerIZ4mainEUlP11HttpRequestP12HttpResponseE68_E15_M_init_functorERSt9_Any_dataOS5_
FNDA:1,_ZNSt14_Function_base13_Base_managerIZ4mainEUlP11HttpRequestP12HttpResponseE68_E15_M_init_functorERSt9_Any_dataOS5_
FN:207,_ZNSt14_Function_base13_Base_managerIZ4mainEUlP11HttpRequestP12HttpResponseE38_E15_M_init_functorERSt9_Any_dataOS5_
FNDA:1,_ZNSt14_Function_base13_Base_managerIZ4mainEUlP11HttpRequestP12HttpResponseE38_E15_M_init_functorERSt9_Any_dataOS5_
FN:207,_ZNSt14_Function_base13_Base_managerIZ4mainEUlP11HttpRequestP12HttpResponseE37_E15_M_init_functorERSt9_Any_dataOS5_
FNDA:1,_ZNSt14_Function_base13_Base_managerIZ4mainEUlP11HttpRequestP12HttpResponseE37_E15_M_init_functorERSt9_Any_dataOS5_
FN:207,_ZNSt14_Function_base13_Base_managerIZ4mainEUlP11HttpRequestP12HttpResponseE69_E15_M_init_functorERSt9_Any_dataOS5_
FNDA:1,_ZNSt14_Function_base13_Base_managerIZ4mainEUlP11HttpRequestP12HttpResponseE69_E15_M_init_functorERSt9_Any_dataOS5_
FN:207,_ZNSt14_Function_base13_Base_managerIZ4mainEUlP11HttpRequestP12HttpResponseE58_E15_M_init_functorERSt9_Any_dataOS5_
FNDA:1,_ZNSt14_Function_base13_Base_managerIZ4mainEUlP11HttpRequestP12HttpResponseE58_E15_M_init_functorERSt9_Any_dataOS5_
FN:207,_ZNSt14_Function_base13_Base_managerIZ4mainEUlP11HttpRequestP12HttpResponseE67_E15_M_init_functorERSt9_Any_dataOS5_
FNDA:1,_ZNSt14_Function_base13_Base_managerIZ4mainEUlP11HttpRequestP12HttpResponseE67_E15_M_init_functorERSt9_Any_dataOS5_
FN:207,_ZNSt14_Function_base13_Base_managerIZ4mainEUlP11HttpRequestP12HttpResponseE85_E15_M_init_functorERSt9_Any_dataOS5_
FNDA:1,_ZNSt14_Function_base13_Base_managerIZ4mainEUlP11HttpRequestP12HttpResponseE85_E15_M_init_functorERSt9_Any_dataOS5_
FN:207,_ZNSt14_Function_base13_Base_managerIZ4mainEUlP11HttpRequestP12HttpResponseE36_E15_M_init_functorERSt9_Any_dataOS5_
FNDA:1,_ZNSt14_Function_base13_Base_managerIZ4mainEUlP11HttpRequestP12HttpResponseE36_E15_M_init_functorERSt9_Any_dataOS5_
FN:207,_ZNSt14_Function_base13_Base_managerIZ4mainEUlP11HttpRequestP12HttpResponseE59_E15_M_init_functorERSt9_Any_dataOS5_
FNDA:1,_ZNSt14_Function_base13_Base_managerIZ4mainEUlP11HttpRequestP12HttpResponseE59_E15_M_init_functorERSt9_Any_dataOS5_
FN:207,_ZNSt14_Function_base13_Base_managerIZ4mainEUlP11HttpRequestP12HttpResponseE35_E15_M_init_functorERSt9_Any_dataOS5_
FNDA:1,_ZNSt14_Function_base13_Base_managerIZ4mainEUlP11HttpRequestP12HttpResponseE35_E15_M_init_functorERSt9_Any_dataOS5_
FN:207,_ZNSt14_Function_base13_Base_managerIZ4mainEUlP11HttpRequestP12HttpResponseE66_E15_M_init_functorERSt9_Any_dataOS5_
FNDA:1,_ZNSt14_Function_base13_Base_managerIZ4mainEUlP11HttpRequestP12HttpResponseE66_E15_M_init_functorERSt9_Any_dataOS5_
FN:207,_ZNSt14_Function_base13_Base_managerIZ4mainEUlP11HttpRequestP12HttpResponseE34_E15_M_init_functorERSt9_Any_dataOS5_
FNDA:1,_ZNSt14_Function_base13_Base_managerIZ4mainEUlP11HttpRequestP12HttpResponseE34_E15_M_init_functorERSt9_Any_dataOS5_
FN:207,_ZNSt14_Function_base13_Base_managerIZ4mainEUlP11HttpRequestP12HttpResponseE60_E15_M_init_functorERSt9_Any_dataOS5_
FNDA:1,_ZNSt14_Function_base13_Base_managerIZ4mainEUlP11HttpRequestP12HttpResponseE60_E15_M_init_functorERSt9_Any_dataOS5_
FN:207,_ZNSt14_Function_base13_Base_managerIZ4mainEUlP11HttpRequestP12HttpResponseE65_E15_M_init_functorERSt9_Any_dataOS5_
FNDA:1,_ZNSt14_Function_base13_Base_managerIZ4mainEUlP11HttpRequestP12HttpResponseE65_E15_M_init_functorERSt9_Any_dataOS5_
FN:207,_ZNSt14_Function_base13_Base_managerIZ4mainEUlP11HttpRequestP12HttpResponseE61_E15_M_init_functorERSt9_Any_dataOS5_
FNDA:1,_ZNSt14_Function_base13_Base_managerIZ4mainEUlP11HttpRequestP12HttpResponseE61_E15_M_init_functorERSt9_Any_dataOS5_
FN:207,_ZNSt14_Function_base13_Base_managerIZ4mainEUlP11HttpRequestP12HttpResponseE33_E15_M_init_functorERSt9_Any_dataOS5_
FNDA:1,_ZNSt14_Function_base13_Base_managerIZ4mainEUlP11HttpRequestP12HttpResponseE33_E15_M_init_functorERSt9_Any_dataOS5_
FN:207,_ZNSt14_Function_base13_Base_managerIZ4mainEUlP11HttpRequestP12HttpResponseE64_E15_M_init_functorERSt9_Any_dataOS5_
FNDA:1,_ZNSt14_Function_base13_Base_managerIZ4mainEUlP11HttpRequestP12HttpResponseE64_E15_M_init_functorERSt9_Any_dataOS5_
FN:207,_ZNSt14_Function_base13_Base_managerIZ4mainEUlP11HttpRequestP12HttpResponseE32_E15_M_init_functorERSt9_Any_dataOS5_
FNDA:1,_ZNSt14_Function_base13_Base_managerIZ4mainEUlP11HttpRequestP12HttpResponseE32_E15_M_init_functorERSt9_Any_dataOS5_
FN:207,_ZNSt14_Function_base13_Base_managerIZ4mainEUlP11HttpRequestP12HttpResponseE31_E15_M_init_functorERSt9_Any_dataOS5_
FNDA:1,_ZNSt14_Function_base13_Base_managerIZ4mainEUlP11HttpRequestP12HttpResponseE31_E15_M_init_functorERSt9_Any_dataOS5_
FN:207,_ZNSt14_Function_base13_Base_managerIZ4mainEUlP11HttpRequestP12HttpResponseE62_E15_M_init_functorERSt9_Any_dataOS5_
FNDA:1,_ZNSt14_Function_base13_Base_managerIZ4mainEUlP11HttpRequestP12HttpResponseE62_E15_M_init_functorERSt9_Any_dataOS5_
FN:207,_ZNSt14_Function_base13_Base_managerIZ4mainEUlP11HttpRequestP12HttpResponseE63_E15_M_init_functorERSt9_Any_dataOS5_
FNDA:1,_ZNSt14_Function_base13_Base_managerIZ4mainEUlP11HttpRequestP12HttpResponseE63_E15_M_init_functorERSt9_Any_dataOS5_
FN:207,_ZNSt14_Function_base13_Base_managerIZ4mainEUlP11HttpRequestP12HttpResponseE80_E15_M_init_functorERSt9_Any_dataOS5_
FNDA:1,_ZNSt14_Function_base13_Base_managerIZ4mainEUlP11HttpRequestP12HttpResponseE80_E15_M_init_functorERSt9_Any_dataOS5_
FN:207,_ZNSt14_Function_base13_Base_managerIZ4mainEUlP11HttpRequestP12HttpResponseE51_E15_M_init_functorERSt9_Any_dataOS5_
FNDA:1,_ZNSt14_Function_base13_Base_managerIZ4mainEUlP11HttpRequestP12HttpResponseE51_E15_M_init_functorERSt9_Any_dataOS5_
FN:207,_ZNSt14_Function_base13_Base_managerIZ4mainEUlP11HttpRequestP12HttpResponseE75_E15_M_init_functorERSt9_Any_dataOS5_
FNDA:1,_ZNSt14_Function_base13_Base_managerIZ4mainEUlP11HttpRequestP12HttpResponseE75_E15_M_init_functorERSt9_Any_dataOS5_
FN:207,_ZNSt14_Function_base13_Base_managerIZ4mainEUlP11HttpRequestP12HttpResponseE50_E15_M_init_functorERSt9_Any_dataOS5_
FNDA:1,_ZNSt14_Function_base13_Base_managerIZ4mainEUlP11HttpRequestP12HttpResponseE50_E15_M_init_functorERSt9_Any_dataOS5_
FN:207,_ZNSt14_Function_base13_Base_managerIZ4mainEUlP11HttpRequestP12HttpResponseE76_E15_M_init_functorERSt9_Any_dataOS5_
FNDA:1,_ZNSt14_Function_base13_Base_managerIZ4mainEUlP11HttpRequestP12HttpResponseE76_E15_M_init_functorERSt9_Any_dataOS5_
FN:207,_ZNSt14_Function_base13_Base_managerIZ4mainEUlP11HttpRequestP12HttpResponseE52_E15_M_init_functorERSt9_Any_dataOS5_
FNDA:1,_ZNSt14_Function_base13_Base_managerIZ4mainEUlP11HttpRequestP12HttpResponseE52_E15_M_init_functorERSt9_Any_dataOS5_
FN:207,_ZNSt14_Function_base13_Base_managerIZ4mainEUlP11HttpRequestP12HttpResponseE49_E15_M_init_functorERSt9_Any_dataOS5_
FNDA:1,_ZNSt14_Function_base13_Base_managerIZ4mainEUlP11HttpRequestP12HttpResponseE49_E15_M_init_functorERSt9_Any_dataOS5_
FN:207,_ZNSt14_Function_base13_Base_managerIZ4mainEUlP11HttpRequestP12HttpResponseE73_E15_M_init_functorERSt9_Any_dataOS5_
FNDA:1,_ZNSt14_Function_base13_Base_managerIZ4mainEUlP11HttpRequestP12HttpResponseE73_E15_M_init_functorERSt9_Any_dataOS5_
FN:207,_ZNSt14_Function_base13_Base_managerIZ4mainEUlP11HttpRequestP12HttpResponseE77_E15_M_init_functorERSt9_Any_dataOS5_
FNDA:1,_ZNSt14_Function_base13_Base_managerIZ4mainEUlP11HttpRequestP12HttpResponseE77_E15_M_init_functorERSt9_Any_dataOS5_
FN:207,_ZNSt14_Function_base13_Base_managerIZ4mainEUlP11HttpRequestP12HttpResponseE48_E15_M_init_functorERSt9_Any_dataOS5_
FNDA:1,_ZNSt14_Function_base13_Base_managerIZ4mainEUlP11HttpRequestP12HttpResponseE48_E15_M_init_functorERSt9_Any_dataOS5_
FN:207,_ZNSt14_Function_base13_Base_managerIZ4mainEUlP11HttpRequestP12HttpResponseE78_E15_M_init_functorERSt9_Any_dataOS5_
FNDA:1,_ZNSt14_Function_base13_Base_managerIZ4mainEUlP11HttpRequestP12HttpResponseE78_E15_M_init_functorERSt9_Any_dataOS5_
FN:207,_ZNSt14_Function_base13_Base_managerIZ4mainEUlP11HttpRequestP12HttpResponseE47_E15_M_init_functorERSt9_Any_dataOS5_
FNDA:1,_ZNSt14_Function_base13_Base_managerIZ4mainEUlP11HttpRequestP12HttpResponseE47_E15_M_init_functorERSt9_Any_dataOS5_
FN:207,_ZNSt14_Function_base13_Base_managerIZ4mainEUlP11HttpRequestP12HttpResponseE53_E15_M_init_functorERSt9_Any_dataOS5_
FNDA:1,_ZNSt14_Function_base13_Base_managerIZ4mainEUlP11HttpRequestP12HttpResponseE53_E15_M_init_functorERSt9_Any_dataOS5_
FN:207,_ZNSt14_Function_base13_Base_managerIZ4mainEUlP11HttpRequestP12HttpResponseE79_E15_M_init_functorERSt9_Any_dataOS5_
FNDA:1,_ZNSt14_Function_base13_Base_managerIZ4mainEUlP11HttpRequestP12HttpResponseE79_E15_M_init_functorERSt9_Any_dataOS5_
FN:207,_ZNSt14_Function_base13_Base_managerIZ4mainEUlP11HttpRequestP12HttpResponseE72_E15_M_init_functorERSt9_Any_dataOS5_
FNDA:1,_ZNSt14_Function_base13_Base_managerIZ4mainEUlP11HttpRequestP12HttpResponseE72_E15_M_init_functorERSt9_Any_dataOS5_
FN:207,_ZNSt14_Function_base13_Base_managerIZ4mainEUlP11HttpRequestP12HttpResponseE46_E15_M_init_functorERSt9_Any_dataOS5_
FNDA:1,_ZNSt14_Function_base13_Base_managerIZ4mainEUlP11HttpRequestP12HttpResponseE46_E15_M_init_functorERSt9_Any_dataOS5_
FN:207,_ZNSt14_Function_base13_Base_managerIZ4mainEUlP11HttpRequestP12HttpResponseE39_E15_M_init_functorERSt9_Any_dataOS5_
FNDA:1,_ZNSt14_Function_base13_Base_managerIZ4mainEUlP11HttpRequestP12HttpResponseE39_E15_M_init_functorERSt9_Any_dataOS5_
FN:207,_ZNSt14_Function_base13_Base_managerIZ4mainEUlP11HttpRequestP12HttpResponseE45_E15_M_init_functorERSt9_Any_dataOS5_
FNDA:1,_ZNSt14_Function_base13_Base_managerIZ4mainEUlP11HttpRequestP12HttpResponseE45_E15_M_init_functorERSt9_Any_dataOS5_
FN:207,_ZNSt14_Function_base13_Base_managerIZ4mainEUlP11HttpRequestP12HttpResponseE81_E15_M_init_functorERSt9_Any_dataOS5_
FNDA:1,_ZNSt14_Function_base13_Base_managerIZ4mainEUlP11HttpRequestP12HttpResponseE81_E15_M_init_functorERSt9_Any_dataOS5_
FN:207,_ZNSt14_Function_base13_Base_managerIZ4mainEUlP11HttpRequestP12HttpResponseE54_E15_M_init_functorERSt9_Any_dataOS5_
FNDA:1,_ZNSt14_Function_base13_Base_managerIZ4mainEUlP11HttpRequestP12HttpResponseE54_E15_M_init_functorERSt9_Any_dataOS5_
FN:207,_ZNSt14_Function_base13_Base_managerIZ4mainEUlP11HttpRequestP12HttpResponseE44_E15_M_init_functorERSt9_Any_dataOS5_
FNDA:1,_ZNSt14_Function_base13_Base_managerIZ4mainEUlP11HttpRequestP12HttpResponseE44_E15_M_init_functorERSt9_Any_dataOS5_
FN:207,_ZNSt14_Function_base13_Base_managerIZ4mainEUlP11HttpRequestP12HttpResponseE82_E15_M_init_functorERSt9_Any_dataOS5_
FNDA:1,_ZNSt14_Function_base13_Base_managerIZ4mainEUlP11HttpRequestP12HttpResponseE82_E15_M_init_functorERSt9_Any_dataOS5_
FN:207,_ZNSt14_Function_base13_Base_managerIZ4mainEUlP11HttpRequestP12HttpResponseE43_E15_M_init_functorERSt9_Any_dataOS5_
FNDA:1,_ZNSt14_Function_base13_Base_managerIZ4mainEUlP11HttpRequestP12HttpResponseE43_E15_M_init_functorERSt9_Any_dataOS5_
FN:207,_ZNSt14_Function_base13_Base_managerIZ4mainEUlP11HttpRequestP12HttpResponseE71_E15_M_init_functorERSt9_Any_dataOS5_
FNDA:1,_ZNSt14_Function_base13_Base_managerIZ4mainEUlP11HttpRequestP12HttpResponseE71_E15_M_init_functorERSt9_Any_dataOS5_
FN:207,_ZNSt14_Function_base13_Base_managerIZ4mainEUlP11HttpRequestP12HttpResponseE83_E15_M_init_functorERSt9_Any_dataOS5_
FNDA:1,_ZNSt14_Function_base13_Base_managerIZ4mainEUlP11HttpRequestP12HttpResponseE83_E15_M_init_functorERSt9_Any_dataOS5_
FN:207,_ZNSt14_Function_base13_Base_managerIZ4mainEUlP11HttpRequestP12HttpResponseE42_E15_M_init_functorERSt9_Any_dataOS5_
FNDA:1,_ZNSt14_Function_base13_Base_managerIZ4mainEUlP11HttpRequestP12HttpResponseE42_E15_M_init_functorERSt9_Any_dataOS5_
FN:207,_ZNSt14_Function_base13_Base_managerIZ4mainEUlP11HttpRequestP12HttpResponseE55_E15_M_init_functorERSt9_Any_dataOS5_
FNDA:1,_ZNSt14_Function_base13_Base_managerIZ4mainEUlP11HttpRequestP12HttpResponseE55_E15_M_init_functorERSt9_Any_dataOS5_
FN:207,_ZNSt14_Function_base13_Base_managerIZ4mainEUlP11HttpRequestP12HttpResponseE84_E15_M_init_functorERSt9_Any_dataOS5_
FNDA:1,_ZNSt14_Function_base13_Base_managerIZ4mainEUlP11HttpRequestP12HttpResponseE84_E15_M_init_functorERSt9_Any_dataOS5_
FN:207,_ZNSt14_Function_base13_Base_managerIZ4mainEUlP11HttpRequestP12HttpResponseE41_E15_M_init_functorERSt9_Any_dataOS5_
FNDA:1,_ZNSt14_Function_base13_Base_managerIZ4mainEUlP11HttpRequestP12HttpResponseE41_E15_M_init_functorERSt9_Any_dataOS5_
FN:207,_ZNSt14_Function_base13_Base_managerIZ4mainEUlP11HttpRequestP12HttpResponseE74_E15_M_init_functorERSt9_Any_dataOS5_
FNDA:1,_ZNSt14_Function_base13_Base_managerIZ4mainEUlP11HttpRequestP12HttpResponseE74_E15_M_init_functorERSt9_Any_dataOS5_
FN:207,_ZNSt14_Function_base13_Base_managerIZ4mainEUlP11HttpRequestP12HttpResponseE70_E15_M_init_functorERSt9_Any_dataOS5_
FNDA:1,_ZNSt14_Function_base13_Base_managerIZ4mainEUlP11HttpRequestP12HttpResponseE70_E15_M_init_functorERSt9_Any_dataOS5_
FN:207,_ZNSt14_Function_base13_Base_managerIZ4mainEUlP11HttpRequestP12HttpResponseE40_E15_M_init_functorERSt9_Any_dataOS5_
FNDA:1,_ZNSt14_Function_base13_Base_managerIZ4mainEUlP11HttpRequestP12HttpResponseE40_E15_M_init_functorERSt9_Any_dataOS5_
FN:207,_ZNSt14_Function_base13_Base_managerIZ4mainEUlP11HttpRequestP12HttpResponseE16_E15_M_init_functorERSt9_Any_dataOS5_
FNDA:1,_ZNSt14_Function_base13_Base_managerIZ4mainEUlP11HttpRequestP12HttpResponseE16_E15_M_init_functorERSt9_Any_dataOS5_
FN:207,_ZNSt14_Function_base13_Base_managerIZ4mainEUlP11HttpRequestP12HttpResponseE22_E15_M_init_functorERSt9_Any_dataOS5_
FNDA:1,_ZNSt14_Function_base13_Base_managerIZ4mainEUlP11HttpRequestP12HttpResponseE22_E15_M_init_functorERSt9_Any_dataOS5_
FN:207,_ZNSt14_Function_base13_Base_managerIZ4mainEUlP11HttpRequestP12HttpResponseE2_E15_M_init_functorERSt9_Any_dataOS5_
FNDA:1,_ZNSt14_Function_base13_Base_managerIZ4mainEUlP11HttpRequestP12HttpResponseE2_E15_M_init_functorERSt9_Any_dataOS5_
FN:207,_ZNSt14_Function_base13_Base_managerIZ4mainEUlP11HttpRequestP12HttpResponseE21_E15_M_init_functorERSt9_Any_dataOS5_
FNDA:1,_ZNSt14_Function_base13_Base_managerIZ4mainEUlP11HttpRequestP12HttpResponseE21_E15_M_init_functorERSt9_Any_dataOS5_
FN:207,_ZNSt14_Function_base13_Base_managerIZ4mainEUlP11HttpRequestP12HttpResponseE20_E15_M_init_functorERSt9_Any_dataOS5_
FNDA:1,_ZNSt14_Function_base13_Base_managerIZ4mainEUlP11HttpRequestP12HttpResponseE20_E15_M_init_functorERSt9_Any_dataOS5_
FN:207,_ZNSt14_Function_base13_Base_managerIZ4mainEUlP11HttpRequestP12HttpResponseE3_E15_M_init_functorERSt9_Any_dataOS5_
FNDA:1,_ZNSt14_Function_base13_Base_managerIZ4mainEUlP11HttpRequestP12HttpResponseE3_E15_M_init_functorERSt9_Any_dataOS5_
FN:207,_ZNSt14_Function_base13_Base_managerIZ4mainEUlP11HttpRequestP12HttpResponseE19_E15_M_init_functorERSt9_Any_dataOS5_
FNDA:1,_ZNSt14_Function_base13_Base_managerIZ4mainEUlP11HttpRequestP12HttpResponseE19_E15_M_init_functorERSt9_Any_dataOS5_
FN:207,_ZNSt14_Function_base13_Base_managerIZ4mainEUlP11HttpRequestP12HttpResponseE4_E15_M_init_functorERSt9_Any_dataOS5_
FNDA:1,_ZNSt14_Function_base13_Base_managerIZ4mainEUlP11HttpRequestP12HttpResponseE4_E15_M_init_functorERSt9_Any_dataOS5_
FN:207,_ZNSt14_Function_base13_Base_managerIZ4mainEUlP11HttpRequestP12HttpResponseE18_E15_M_init_functorERSt9_Any_dataOS5_
FNDA:1,_ZNSt14_Function_base13_Base_managerIZ4mainEUlP11HttpRequestP12HttpResponseE18_E15_M_init_functorERSt9_Any_dataOS5_
FN:207,_ZNSt14_Function_base13_Base_managerIZ4mainEUlP11HttpRequestP12HttpResponseE17_E15_M_init_functorERSt9_Any_dataOS5_
FNDA:1,_ZNSt14_Function_base13_Base_managerIZ4mainEUlP11HttpRequestP12HttpResponseE17_E15_M_init_functorERSt9_Any_dataOS5_
FN:207,_ZNSt14_Function_base13_Base_managerIZ4mainEUlP11HttpRequestP12HttpResponseE5_E15_M_init_functorERSt9_Any_dataOS5_
FNDA:1,_ZNSt14_Function_base13_Base_managerIZ4mainEUlP11HttpRequestP12HttpResponseE5_E15_M_init_functorERSt9_Any_dataOS5_
FN:207,_ZNSt14_Function_base13_Base_managerIZ4mainEUlP11HttpRequestP12HttpResponseE30_E15_M_init_functorERSt9_Any_dataOS5_
FNDA:1,_ZNSt14_Function_base13_Base_managerIZ4mainEUlP11HttpRequestP12HttpResponseE30_E15_M_init_functorERSt9_Any_dataOS5_
FN:207,_ZNSt14_Function_base13_Base_managerIZ4mainEUlP11HttpRequestP12HttpResponseE6_E15_M_init_functorERSt9_Any_dataOS5_
FNDA:1,_ZNSt14_Function_base13_Base_managerIZ4mainEUlP11HttpRequestP12HttpResponseE6_E15_M_init_functorERSt9_Any_dataOS5_
FN:207,_ZNSt14_Function_base13_Base_managerIZ4mainEUlP11HttpRequestP12HttpResponseE15_E15_M_init_functorERSt9_Any_dataOS5_
FNDA:1,_ZNSt14_Function_base13_Base_managerIZ4mainEUlP11HttpRequestP12HttpResponseE15_E15_M_init_functorERSt9_Any_dataOS5_
FN:207,_ZNSt14_Function_base13_Base_managerIZ4mainEUlP11HttpRequestP12HttpResponseE7_E15_M_init_functorERSt9_Any_dataOS5_
FNDA:1,_ZNSt14_Function_base13_Base_managerIZ4mainEUlP11HttpRequestP12HttpResponseE7_E15_M_init_functorERSt9_Any_dataOS5_
FN:207,_ZNSt14_Function_base13_Base_managerIZ4mainEUlP11HttpRequestP12HttpResponseE14_E15_M_init_functorERSt9_Any_dataOS5_
FNDA:1,_ZNSt14_Function_base13_Base_managerIZ4mainEUlP11HttpRequestP12HttpResponseE14_E15_M_init_functorERSt9_Any_dataOS5_
FN:207,_ZNSt14_Function_base13_Base_managerIZ4mainEUlP11HttpRequestP12HttpResponseE13_E15_M_init_functorERSt9_Any_dataOS5_
FNDA:1,_ZNSt14_Function_base13_Base_managerIZ4mainEUlP11HttpRequestP12HttpResponseE13_E15_M_init_functorERSt9_Any_dataOS5_
FN:207,_ZNSt14_Function_base13_Base_managerIZ4mainEUlP11HttpRequestP12HttpResponseE8_E15_M_init_functorERSt9_Any_dataOS5_
FNDA:1,_ZNSt14_Function_base13_Base_managerIZ4mainEUlP11HttpRequestP12HttpResponseE8_E15_M_init_functorERSt9_Any_dataOS5_
FN:207,_ZNSt14_Function_base13_Base_managerIZ4mainEUlP11HttpRequestP12HttpResponseE12_E15_M_init_functorERSt9_Any_dataOS5_
FNDA:1,_ZNSt14_Function_base13_Base_managerIZ4mainEUlP11HttpRequestP12HttpResponseE12_E15_M_init_functorERSt9_Any_dataOS5_
FN:207,_ZNSt14_Function_base13_Base_managerIZ4mainEUlP11HttpRequestP12HttpResponseE9_E15_M_init_functorERSt9_Any_dataOS5_
FNDA:1,_ZNSt14_Function_base13_Base_managerIZ4mainEUlP11HttpRequestP12HttpResponseE9_E15_M_init_functorERSt9_Any_dataOS5_
FN:207,_ZNSt14_Function_base13_Base_managerIZ4mainEUlP11HttpRequestP12HttpResponseE11_E15_M_init_functorERSt9_Any_dataOS5_
FNDA:1,_ZNSt14_Function_base13_Base_managerIZ4mainEUlP11HttpRequestP12HttpResponseE11_E15_M_init_functorERSt9_Any_dataOS5_
FN:207,_ZNSt14_Function_base13_Base_managerIZ4mainEUlP11HttpRequestP12HttpResponseE10_E15_M_init_functorERSt9_Any_dataOS5_
FNDA:1,_ZNSt14_Function_base13_Base_managerIZ4mainEUlP11HttpRequestP12HttpResponseE10_E15_M_init_functorERSt9_Any_dataOS5_
FN:207,_ZNSt14_Function_base13_Base_managerIZ4mainEUlP11HttpRequestP12HttpResponseE23_E15_M_init_functorERSt9_Any_dataOS5_
FNDA:1,_ZNSt14_Function_base13_Base_managerIZ4mainEUlP11HttpRequestP12HttpResponseE23_E15_M_init_functorERSt9_Any_dataOS5_
FN:207,_ZNSt14_Function_base13_Base_managerIZ4mainEUlP11HttpRequestP12HttpResponseE27_E15_M_init_functorERSt9_Any_dataOS5_
FNDA:1,_ZNSt14_Function_base13_Base_managerIZ4mainEUlP11HttpRequestP12HttpResponseE27_E15_M_init_functorERSt9_Any_dataOS5_
FN:207,_ZNSt14_Function_base13_Base_managerIZ4mainEUlP11HttpRequestP12HttpResponseE_E15_M_init_functorERSt9_Any_dataOS5_
FNDA:1,_ZNSt14_Function_base13_Base_managerIZ4mainEUlP11HttpRequestP12HttpResponseE_E15_M_init_functorERSt9_Any_dataOS5_
FN:207,_ZNSt14_Function_base13_Base_managerIZ4mainEUlP11HttpRequestP12HttpResponseE26_E15_M_init_functorERSt9_Any_dataOS5_
FNDA:1,_ZNSt14_Function_base13_Base_managerIZ4mainEUlP11HttpRequestP12HttpResponseE26_E15_M_init_functorERSt9_Any_dataOS5_
FN:207,_ZNSt14_Function_base13_Base_managerIZ4mainEUlP11HttpRequestP12HttpResponseE28_E15_M_init_functorERSt9_Any_dataOS5_
FNDA:1,_ZNSt14_Function_base13_Base_managerIZ4mainEUlP11HttpRequestP12HttpResponseE28_E15_M_init_functorERSt9_Any_dataOS5_
FN:207,_ZNSt14_Function_base13_Base_managerIZ4mainEUlP11HttpRequestP12HttpResponseE0_E15_M_init_functorERSt9_Any_dataOS5_
FNDA:1,_ZNSt14_Function_base13_Base_managerIZ4mainEUlP11HttpRequestP12HttpResponseE0_E15_M_init_functorERSt9_Any_dataOS5_
FN:207,_ZNSt14_Function_base13_Base_managerIZ4mainEUlP11HttpRequestP12HttpResponseE25_E15_M_init_functorERSt9_Any_dataOS5_
FNDA:1,_ZNSt14_Function_base13_Base_managerIZ4mainEUlP11HttpRequestP12HttpResponseE25_E15_M_init_functorERSt9_Any_dataOS5_
FN:207,_ZNSt14_Function_base13_Base_managerIZ4mainEUlP11HttpRequestP12HttpResponseE29_E15_M_init_functorERSt9_Any_dataOS5_
FNDA:1,_ZNSt14_Function_base13_Base_managerIZ4mainEUlP11HttpRequestP12HttpResponseE29_E15_M_init_functorERSt9_Any_dataOS5_
FN:207,_ZNSt14_Function_base13_Base_managerIZ4mainEUlP11HttpRequestP12HttpResponseE24_E15_M_init_functorERSt9_Any_dataOS5_
FNDA:1,_ZNSt14_Function_base13_Base_managerIZ4mainEUlP11HttpRequestP12HttpResponseE24_E15_M_init_functorERSt9_Any_dataOS5_
FN:207,_ZNSt14_Function_base13_Base_managerIZ4mainEUlP11HttpRequestP12HttpResponseE1_E15_M_init_functorERSt9_Any_dataOS5_
FNDA:1,_ZNSt14_Function_base13_Base_managerIZ4mainEUlP11HttpRequestP12HttpResponseE1_E15_M_init_functorERSt9_Any_dataOS5_
FN:227,_ZNSt14_Function_base13_Base_managerIZ4mainEUlP11HttpRequestP12HttpResponseE13_E21_M_not_empty_functionIS5_EEbRKT_
FNDA:1,_ZNSt14_Function_base13_Base_managerIZ4mainEUlP11HttpRequestP12HttpResponseE13_E21_M_not_empty_functionIS5_EEbRKT_
FN:227,_ZNSt14_Function_base13_Base_managerIZ4mainEUlP11HttpRequestP12HttpResponseE7_E21_M_not_empty_functionIS5_EEbRKT_
FNDA:1,_ZNSt14_Function_base13_Base_managerIZ4mainEUlP11HttpRequestP12HttpResponseE7_E21_M_not_empty_functionIS5_EEbRKT_
FN:227,_ZNSt14_Function_base13_Base_managerIZ4mainEUlP11HttpRequestP12HttpResponseE54_E21_M_not_empty_functionIS5_EEbRKT_
FNDA:1,_ZNSt14_Function_base13_Base_managerIZ4mainEUlP11HttpRequestP12HttpResponseE54_E21_M_not_empty_functionIS5_EEbRKT_
FN:227,_ZNSt14_Function_base13_Base_managerIZ4mainEUlP11HttpRequestP12HttpResponseE67_E21_M_not_empty_functionIS5_EEbRKT_
FNDA:1,_ZNSt14_Function_base13_Base_managerIZ4mainEUlP11HttpRequestP12HttpResponseE67_E21_M_not_empty_functionIS5_EEbRKT_
FN:227,_ZNSt14_Function_base13_Base_managerIZ4mainEUlP11HttpRequestP12HttpResponseE62_E21_M_not_empty_functionIS5_EEbRKT_
FNDA:1,_ZNSt14_Function_base13_Base_managerIZ4mainEUlP11HttpRequestP12HttpResponseE62_E21_M_not_empty_functionIS5_EEbRKT_
FN:227,_ZNSt14_Function_base13_Base_managerIZ4mainEUlP11HttpRequestP12HttpResponseE51_E21_M_not_empty_functionIS5_EEbRKT_
FNDA:1,_ZNSt14_Function_base13_Base_managerIZ4mainEUlP11HttpRequestP12HttpResponseE51_E21_M_not_empty_functionIS5_EEbRKT_
FN:227,_ZNSt14_Function_base13_Base_managerIZ4mainEUlP11HttpRequestP12HttpResponseE73_E21_M_not_empty_functionIS5_EEbRKT_
FNDA:1,_ZNSt14_Function_base13_Base_managerIZ4mainEUlP11HttpRequestP12HttpResponseE73_E21_M_not_empty_functionIS5_EEbRKT_
FN:227,_ZNSt14_Function_base13_Base_managerIZ4mainEUlP11HttpRequestP12HttpResponseE8_E21_M_not_empty_functionIS5_EEbRKT_
FNDA:1,_ZNSt14_Function_base13_Base_managerIZ4mainEUlP11HttpRequestP12HttpResponseE8_E21_M_not_empty_functionIS5_EEbRKT_
FN:227,_ZNSt14_Function_base13_Base_managerIZ4mainEUlP11HttpRequestP12HttpResponseE53_E21_M_not_empty_functionIS5_EEbRKT_
FNDA:1,_ZNSt14_Function_base13_Base_managerIZ4mainEUlP11HttpRequestP12HttpResponseE53_E21_M_not_empty_functionIS5_EEbRKT_
FN:227,_ZNSt14_Function_base13_Base_managerIZ4mainEUlP11HttpRequestP12HttpResponseE10_E21_M_not_empty_functionIS5_EEbRKT_
FNDA:1,_ZNSt14_Function_base13_Base_managerIZ4mainEUlP11HttpRequestP12HttpResponseE10_E21_M_not_empty_functionIS5_EEbRKT_
FN:227,_ZNSt14_Function_base13_Base_managerIZ4mainEUlP11HttpRequestP12HttpResponseE63_E21_M_not_empty_functionIS5_EEbRKT_
FNDA:1,_ZNSt14_Function_base13_Base_managerIZ4mainEUlP11HttpRequestP12HttpResponseE63_E21_M_not_empty_functionIS5_EEbRKT_
FN:227,_ZNSt14_Function_base13_Base_managerIZ4mainEUlP11HttpRequestP12HttpResponseE_E21_M_not_empty_functionIS5_EEbRKT_
FNDA:1,_ZNSt14_Function_base13_Base_managerIZ4mainEUlP11HttpRequestP12HttpResponseE_E21_M_not_empty_functionIS5_EEbRKT_
FN:227,_ZNSt14_Function_base13_Base_managerIZ4mainEUlP11HttpRequestP12HttpResponseE74_E21_M_not_empty_functionIS5_EEbRKT_
FNDA:1,_ZNSt14_Function_base13_Base_managerIZ4mainEUlP11HttpRequestP12HttpResponseE74_E21_M_not_empty_functionIS5_EEbRKT_
FN:227,_ZNSt14_Function_base13_Base_managerIZ4mainEUlP11HttpRequestP12HttpResponseE9_E21_M_not_empty_functionIS5_EEbRKT_
FNDA:1,_ZNSt14_Function_base13_Base_managerIZ4mainEUlP11HttpRequestP12HttpResponseE9_E21_M_not_empty_functionIS5_EEbRKT_
FN:227,_ZNSt14_Function_base13_Base_managerIZ4mainEUlP11HttpRequestP12HttpResponseE64_E21_M_not_empty_functionIS5_EEbRKT_
FNDA:1,_ZNSt14_Function_base13_Base_managerIZ4mainEUlP11HttpRequestP12HttpResponseE64_E21_M_not_empty_functionIS5_EEbRKT_
FN:227,_ZNSt14_Function_base13_Base_managerIZ4mainEUlP11HttpRequestP12HttpResponseE52_E21_M_not_empty_functionIS5_EEbRKT_
FNDA:1,_ZNSt14_Function_base13_Base_managerIZ4mainEUlP11HttpRequestP12HttpResponseE52_E21_M_not_empty_functionIS5_EEbRKT_
FN:227,_ZNSt14_Function_base13_Base_managerIZ4mainEUlP11HttpRequestP12HttpResponseE75_E21_M_not_empty_functionIS5_EEbRKT_
FNDA:1,_ZNSt14_Function_base13_Base_managerIZ4mainEUlP11HttpRequestP12HttpResponseE75_E21_M_not_empty_functionIS5_EEbRKT_
FN:227,_ZNSt14_Function_base13_Base_managerIZ4mainEUlP11HttpRequestP12HttpResponseE57_E21_M_not_empty_functionIS5_EEbRKT_
FNDA:1,_ZNSt14_Function_base13_Base_managerIZ4mainEUlP11HttpRequestP12HttpResponseE57_E21_M_not_empty_functionIS5_EEbRKT_
FN:227,_ZNSt14_Function_base13_Base_managerIZ4mainEUlP11HttpRequestP12HttpResponseE2_E21_M_not_empty_functionIS5_EEbRKT_
FNDA:1,_ZNSt14_Function_base13_Base_managerIZ4mainEUlP11HttpRequestP12HttpResponseE2_E21_M_not_empty_functionIS5_EEbRKT_
FN:227,_ZNSt14_Function_base13_Base_managerIZ4mainEUlP11HttpRequestP12HttpResponseE59_E21_M_not_empty_functionIS5_EEbRKT_
FNDA:1,_ZNSt14_Function_base13_Base_managerIZ4mainEUlP11HttpRequestP12HttpResponseE59_E21_M_not_empty_functionIS5_EEbRKT_
FN:227,_ZNSt14_Function_base13_Base_managerIZ4mainEUlP11HttpRequestP12HttpResponseE60_E21_M_not_empty_functionIS5_EEbRKT_
FNDA:1,_ZNSt14_Function_base13_Base_managerIZ4mainEUlP11HttpRequestP12HttpResponseE60_E21_M_not_empty_functionIS5_EEbRKT_
FN:227,_ZNSt14_Function_base13_Base_managerIZ4mainEUlP11HttpRequestP12HttpResponseE68_E21_M_not_empty_functionIS5_EEbRKT_
FNDA:1,_ZNSt14_Function_base13_Base_managerIZ4mainEUlP11HttpRequestP12HttpResponseE68_E21_M_not_empty_functionIS5_EEbRKT_
FN:227,_ZNSt14_Function_base13_Base_managerIZ4mainEUlP11HttpRequestP12HttpResponseE3_E21_M_not_empty_functionIS5_EEbRKT_
FNDA:1,_ZNSt14_Function_base13_Base_managerIZ4mainEUlP11HttpRequestP12HttpResponseE3_E21_M_not_empty_functionIS5_EEbRKT_
FN:227,_ZNSt14_Function_base13_Base_managerIZ4mainEUlP11HttpRequestP12HttpResponseE58_E21_M_not_empty_functionIS5_EEbRKT_
FNDA:1,_ZNSt14_Function_base13_Base_managerIZ4mainEUlP11HttpRequestP12HttpResponseE58_E21_M_not_empty_functionIS5_EEbRKT_
FN:227,_ZNSt14_Function_base13_Base_managerIZ4mainEUlP11HttpRequestP12HttpResponseE1_E21_M_not_empty_functionIS5_EEbRKT_
FNDA:1,_ZNSt14_Function_base13_Base_managerIZ4mainEUlP11HttpRequestP12HttpResponseE1_E21_M_not_empty_functionIS5_EEbRKT_
FN:227,_ZNSt14_Function_base13_Base_managerIZ4mainEUlP11HttpRequestP12HttpResponseE69_E21_M_not_empty_functionIS5_EEbRKT_
FNDA:1,_ZNSt14_Function_base13_Base_managerIZ4mainEUlP11HttpRequestP12HttpResponseE69_E21_M_not_empty_functionIS5_EEbRKT_
FN:227,_ZNSt14_Function_base13_Base_managerIZ4mainEUlP11HttpRequestP12HttpResponseE66_E21_M_not_empty_functionIS5_EEbRKT_
FNDA:1,_ZNSt14_Function_base13_Base_managerIZ4mainEUlP11HttpRequestP12HttpResponseE66_E21_M_not_empty_functionIS5_EEbRKT_
FN:227,_ZNSt14_Function_base13_Base_managerIZ4mainEUlP11HttpRequestP12HttpResponseE4_E21_M_not_empty_functionIS5_EEbRKT_
FNDA:1,_ZNSt14_Function_base13_Base_managerIZ4mainEUlP11HttpRequestP12HttpResponseE4_E21_M_not_empty_functionIS5_EEbRKT_
FN:227,_ZNSt14_Function_base13_Base_managerIZ4mainEUlP11HttpRequestP12HttpResponseE72_E21_M_not_empty_functionIS5_EEbRKT_
FNDA:1,_ZNSt14_Function_base13_Base_managerIZ4mainEUlP11HttpRequestP12HttpResponseE72_E21_M_not_empty_functionIS5_EEbRKT_
FN:227,_ZNSt14_Function_base13_Base_managerIZ4mainEUlP11HttpRequestP12HttpResponseE70_E21_M_not_empty_functionIS5_EEbRKT_
FNDA:1,_ZNSt14_Function_base13_Base_managerIZ4mainEUlP11HttpRequestP12HttpResponseE70_E21_M_not_empty_functionIS5_EEbRKT_
FN:227,_ZNSt14_Function_base13_Base_managerIZ4mainEUlP11HttpRequestP12HttpResponseE5_E21_M_not_empty_functionIS5_EEbRKT_
FNDA:1,_ZNSt14_Function_base13_Base_managerIZ4mainEUlP11HttpRequestP12HttpResponseE5_E21_M_not_empty_functionIS5_EEbRKT_
FN:227,_ZNSt14_Function_base13_Base_managerIZ4mainEUlP11HttpRequestP12HttpResponseE56_E21_M_not_empty_functionIS5_EEbRKT_
FNDA:1,_ZNSt14_Function_base13_Base_managerIZ4mainEUlP11HttpRequestP12HttpResponseE56_E21_M_not_empty_functionIS5_EEbRKT_
FN:227,_ZNSt14_Function_base13_Base_managerIZ4mainEUlP11HttpRequestP12HttpResponseE61_E21_M_not_empty_functionIS5_EEbRKT_
FNDA:1,_ZNSt14_Function_base13_Base_managerIZ4mainEUlP11HttpRequestP12HttpResponseE61_E21_M_not_empty_functionIS5_EEbRKT_
FN:227,_ZNSt14_Function_base13_Base_managerIZ4mainEUlP11HttpRequestP12HttpResponseE71_E21_M_not_empty_functionIS5_EEbRKT_
FNDA:1,_ZNSt14_Function_base13_Base_managerIZ4mainEUlP11HttpRequestP12HttpResponseE71_E21_M_not_empty_functionIS5_EEbRKT_
FN:227,_ZNSt14_Function_base13_Base_managerIZ4mainEUlP11HttpRequestP12HttpResponseE6_E21_M_not_empty_functionIS5_EEbRKT_
FNDA:1,_ZNSt14_Function_base13_Base_managerIZ4mainEUlP11HttpRequestP12HttpResponseE6_E21_M_not_empty_functionIS5_EEbRKT_
FN:227,_ZNSt14_Function_base13_Base_managerIZ4mainEUlP11HttpRequestP12HttpResponseE0_E21_M_not_empty_functionIS5_EEbRKT_
FNDA:1,_ZNSt14_Function_base13_Base_managerIZ4mainEUlP11HttpRequestP12HttpResponseE0_E21_M_not_empty_functionIS5_EEbRKT_
FN:227,_ZNSt14_Function_base13_Base_managerIZ4mainEUlP11HttpRequestP12HttpResponseE55_E21_M_not_empty_functionIS5_EEbRKT_
FNDA:1,_ZNSt14_Function_base13_Base_managerIZ4mainEUlP11HttpRequestP12HttpResponseE55_E21_M_not_empty_functionIS5_EEbRKT_
FN:227,_ZNSt14_Function_base13_Base_managerIZ4mainEUlP11HttpRequestP12HttpResponseE65_E21_M_not_empty_functionIS5_EEbRKT_
FNDA:1,_ZNSt14_Function_base13_Base_managerIZ4mainEUlP11HttpRequestP12HttpResponseE65_E21_M_not_empty_functionIS5_EEbRKT_
FN:227,_ZNSt14_Function_base13_Base_managerIZ4mainEUlP11HttpRequestP12HttpResponseE24_E21_M_not_empty_functionIS5_EEbRKT_
FNDA:1,_ZNSt14_Function_base13_Base_managerIZ4mainEUlP11HttpRequestP12HttpResponseE24_E21_M_not_empty_functionIS5_EEbRKT_
FN:227,_ZNSt14_Function_base13_Base_managerIZ4mainEUlP11HttpRequestP12HttpResponseE19_E21_M_not_empty_functionIS5_EEbRKT_
FNDA:1,_ZNSt14_Function_base13_Base_managerIZ4mainEUlP11HttpRequestP12HttpResponseE19_E21_M_not_empty_functionIS5_EEbRKT_
FN:227,_ZNSt14_Function_base13_Base_managerIZ4mainEUlP11HttpRequestP12HttpResponseE42_E21_M_not_empty_functionIS5_EEbRKT_
FNDA:1,_ZNSt14_Function_base13_Base_managerIZ4mainEUlP11HttpRequestP12HttpResponseE42_E21_M_not_empty_functionIS5_EEbRKT_
FN:227,_ZNSt14_Function_base13_Base_managerIZ4mainEUlP11HttpRequestP12HttpResponseE85_E21_M_not_empty_functionIS5_EEbRKT_
FNDA:1,_ZNSt14_Function_base13_Base_managerIZ4mainEUlP11HttpRequestP12HttpResponseE85_E21_M_not_empty_functionIS5_EEbRKT_
FN:227,_ZNSt14_Function_base13_Base_managerIZ4mainEUlP11HttpRequestP12HttpResponseE20_E21_M_not_empty_functionIS5_EEbRKT_
FNDA:1,_ZNSt14_Function_base13_Base_managerIZ4mainEUlP11HttpRequestP12HttpResponseE20_E21_M_not_empty_functionIS5_EEbRKT_
FN:227,_ZNSt14_Function_base13_Base_managerIZ4mainEUlP11HttpRequestP12HttpResponseE41_E21_M_not_empty_functionIS5_EEbRKT_
FNDA:1,_ZNSt14_Function_base13_Base_managerIZ4mainEUlP11HttpRequestP12HttpResponseE41_E21_M_not_empty_functionIS5_EEbRKT_
FN:227,_ZNSt14_Function_base13_Base_managerIZ4mainEUlP11HttpRequestP12HttpResponseE40_E21_M_not_empty_functionIS5_EEbRKT_
FNDA:1,_ZNSt14_Function_base13_Base_managerIZ4mainEUlP11HttpRequestP12HttpResponseE40_E21_M_not_empty_functionIS5_EEbRKT_
FN:227,_ZNSt14_Function_base13_Base_managerIZ4mainEUlP11HttpRequestP12HttpResponseE21_E21_M_not_empty_functionIS5_EEbRKT_
FNDA:1,_ZNSt14_Function_base13_Base_managerIZ4mainEUlP11HttpRequestP12HttpResponseE21_E21_M_not_empty_functionIS5_EEbRKT_
FN:227,_ZNSt14_Function_base13_Base_managerIZ4mainEUlP11HttpRequestP12HttpResponseE39_E21_M_not_empty_functionIS5_EEbRKT_
FNDA:1,_ZNSt14_Function_base13_Base_managerIZ4mainEUlP11HttpRequestP12HttpResponseE39_E21_M_not_empty_functionIS5_EEbRKT_
FN:227,_ZNSt14_Function_base13_Base_managerIZ4mainEUlP11HttpRequestP12HttpResponseE22_E21_M_not_empty_functionIS5_EEbRKT_
FNDA:1,_ZNSt14_Function_base13_Base_managerIZ4mainEUlP11HttpRequestP12HttpResponseE22_E21_M_not_empty_functionIS5_EEbRKT_
FN:227,_ZNSt14_Function_base13_Base_managerIZ4mainEUlP11HttpRequestP12HttpResponseE38_E21_M_not_empty_functionIS5_EEbRKT_
FNDA:1,_ZNSt14_Function_base13_Base_managerIZ4mainEUlP11HttpRequestP12HttpResponseE38_E21_M_not_empty_functionIS5_EEbRKT_
FN:227,_ZNSt14_Function_base13_Base_managerIZ4mainEUlP11HttpRequestP12HttpResponseE23_E21_M_not_empty_functionIS5_EEbRKT_
FNDA:1,_ZNSt14_Function_base13_Base_managerIZ4mainEUlP11HttpRequestP12HttpResponseE23_E21_M_not_empty_functionIS5_EEbRKT_
FN:227,_ZNSt14_Function_base13_Base_managerIZ4mainEUlP11HttpRequestP12HttpResponseE37_E21_M_not_empty_functionIS5_EEbRKT_
FNDA:1,_ZNSt14_Function_base13_Base_managerIZ4mainEUlP11HttpRequestP12HttpResponseE37_E21_M_not_empty_functionIS5_EEbRKT_
FN:227,_ZNSt14_Function_base13_Base_managerIZ4mainEUlP11HttpRequestP12HttpResponseE11_E21_M_not_empty_functionIS5_EEbRKT_
FNDA:1,_ZNSt14_Function_base13_Base_managerIZ4mainEUlP11HttpRequestP12HttpResponseE11_E21_M_not_empty_functionIS5_EEbRKT_
FN:227,_ZNSt14_Function_base13_Base_managerIZ4mainEUlP11HttpRequestP12HttpResponseE25_E21_M_not_empty_functionIS5_EEbRKT_
FNDA:1,_ZNSt14_Function_base13_Base_managerIZ4mainEUlP11HttpRequestP12HttpResponseE25_E21_M_not_empty_functionIS5_EEbRKT_
FN:227,_ZNSt14_Function_base13_Base_managerIZ4mainEUlP11HttpRequestP12HttpResponseE36_E21_M_not_empty_functionIS5_EEbRKT_
FNDA:1,_ZNSt14_Function_base13_Base_managerIZ4mainEUlP11HttpRequestP12HttpResponseE36_E21_M_not_empty_functionIS5_EEbRKT_
FN:227,_ZNSt14_Function_base13_Base_managerIZ4mainEUlP11HttpRequestP12HttpResponseE26_E21_M_not_empty_functionIS5_EEbRKT_
FNDA:1,_ZNSt14_Function_base13_Base_managerIZ4mainEUlP11HttpRequestP12HttpResponseE26_E21_M_not_empty_functionIS5_EEbRKT_
FN:227,_ZNSt14_Function_base13_Base_managerIZ4mainEUlP11HttpRequestP12HttpResponseE35_E21_M_not_empty_functionIS5_EEbRKT_
FNDA:1,_ZNSt14_Function_base13_Base_managerIZ4mainEUlP11HttpRequestP12HttpResponseE35_E21_M_not_empty_functionIS5_EEbRKT_
FN:227,_ZNSt14_Function_base13_Base_managerIZ4mainEUlP11HttpRequestP12HttpResponseE34_E21_M_not_empty_functionIS5_EEbRKT_
FNDA:1,_ZNSt14_Function_base13_Base_managerIZ4mainEUlP11HttpRequestP12HttpResponseE34_E21_M_not_empty_functionIS5_EEbRKT_
FN:227,_ZNSt14_Function_base13_Base_managerIZ4mainEUlP11HttpRequestP12HttpResponseE27_E21_M_not_empty_functionIS5_EEbRKT_
FNDA:1,_ZNSt14_Function_base13_Base_managerIZ4mainEUlP11HttpRequestP12HttpResponseE27_E21_M_not_empty_functionIS5_EEbRKT_
FN:227,_ZNSt14_Function_base13_Base_managerIZ4mainEUlP11HttpRequestP12HttpResponseE28_E21_M_not_empty_functionIS5_EEbRKT_
FNDA:1,_ZNSt14_Function_base13_Base_managerIZ4mainEUlP11HttpRequestP12HttpResponseE28_E21_M_not_empty_functionIS5_EEbRKT_
FN:227,_ZNSt14_Function_base13_Base_managerIZ4mainEUlP11HttpRequestP12HttpResponseE33_E21_M_not_empty_functionIS5_EEbRKT_
FNDA:1,_ZNSt14_Function_base13_Base_managerIZ4mainEUlP11HttpRequestP12HttpResponseE33_E21_M_not_empty_functionIS5_EEbRKT_
FN:227,_ZNSt14_Function_base13_Base_managerIZ4mainEUlP11HttpRequestP12HttpResponseE29_E21_M_not_empty_functionIS5_EEbRKT_
FNDA:1,_ZNSt14_Function_base13_Base_managerIZ4mainEUlP11HttpRequestP12HttpResponseE29_E21_M_not_empty_functionIS5_EEbRKT_
FN:227,_ZNSt14_Function_base13_Base_managerIZ4mainEUlP11HttpRequestP12HttpResponseE32_E21_M_not_empty_functionIS5_EEbRKT_
FNDA:1,_ZNSt14_Function_base13_Base_managerIZ4mainEUlP11HttpRequestP12HttpResponseE32_E21_M_not_empty_functionIS5_EEbRKT_
FN:227,_ZNSt14_Function_base13_Base_managerIZ4mainEUlP11HttpRequestP12HttpResponseE30_E21_M_not_empty_functionIS5_EEbRKT_
FNDA:1,_ZNSt14_Function_base13_Base_managerIZ4mainEUlP11HttpRequestP12HttpResponseE30_E21_M_not_empty_functionIS5_EEbRKT_
FN:227,_ZNSt14_Function_base13_Base_managerIZ4mainEUlP11HttpRequestP12HttpResponseE43_E21_M_not_empty_functionIS5_EEbRKT_
FNDA:1,_ZNSt14_Function_base13_Base_managerIZ4mainEUlP11HttpRequestP12HttpResponseE43_E21_M_not_empty_functionIS5_EEbRKT_
FN:227,_ZNSt14_Function_base13_Base_managerIZ4mainEUlP11HttpRequestP12HttpResponseE76_E21_M_not_empty_functionIS5_EEbRKT_
FNDA:1,_ZNSt14_Function_base13_Base_managerIZ4mainEUlP11HttpRequestP12HttpResponseE76_E21_M_not_empty_functionIS5_EEbRKT_
FN:227,_ZNSt14_Function_base13_Base_managerIZ4mainEUlP11HttpRequestP12HttpResponseE50_E21_M_not_empty_functionIS5_EEbRKT_
FNDA:1,_ZNSt14_Function_base13_Base_managerIZ4mainEUlP11HttpRequestP12HttpResponseE50_E21_M_not_empty_functionIS5_EEbRKT_
FN:227,_ZNSt14_Function_base13_Base_managerIZ4mainEUlP11HttpRequestP12HttpResponseE77_E21_M_not_empty_functionIS5_EEbRKT_
FNDA:1,_ZNSt14_Function_base13_Base_managerIZ4mainEUlP11HttpRequestP12HttpResponseE77_E21_M_not_empty_functionIS5_EEbRKT_
FN:227,_ZNSt14_Function_base13_Base_managerIZ4mainEUlP11HttpRequestP12HttpResponseE12_E21_M_not_empty_functionIS5_EEbRKT_
FNDA:1,_ZNSt14_Function_base13_Base_managerIZ4mainEUlP11HttpRequestP12HttpResponseE12_E21_M_not_empty_functionIS5_EEbRKT_
FN:227,_ZNSt14_Function_base13_Base_managerIZ4mainEUlP11HttpRequestP12HttpResponseE49_E21_M_not_empty_functionIS5_EEbRKT_
FNDA:1,_ZNSt14_Function_base13_Base_managerIZ4mainEUlP11HttpRequestP12HttpResponseE49_E21_M_not_empty_functionIS5_EEbRKT_
FN:227,_ZNSt14_Function_base13_Base_managerIZ4mainEUlP11HttpRequestP12HttpResponseE78_E21_M_not_empty_functionIS5_EEbRKT_
FNDA:1,_ZNSt14_Function_base13_Base_managerIZ4mainEUlP11HttpRequestP12HttpResponseE78_E21_M_not_empty_functionIS5_EEbRKT_
FN:227,_ZNSt14_Function_base13_Base_managerIZ4mainEUlP11HttpRequestP12HttpResponseE31_E21_M_not_empty_functionIS5_EEbRKT_
FNDA:1,_ZNSt14_Function_base13_Base_managerIZ4mainEUlP11HttpRequestP12HttpResponseE31_E21_M_not_empty_functionIS5_EEbRKT_
FN:227,_ZNSt14_Function_base13_Base_managerIZ4mainEUlP11HttpRequestP12HttpResponseE48_E21_M_not_empty_functionIS5_EEbRKT_
FNDA:1,_ZNSt14_Function_base13_Base_managerIZ4mainEUlP11HttpRequestP12HttpResponseE48_E21_M_not_empty_functionIS5_EEbRKT_
FN:227,_ZNSt14_Function_base13_Base_managerIZ4mainEUlP11HttpRequestP12HttpResponseE79_E21_M_not_empty_functionIS5_EEbRKT_
FNDA:1,_ZNSt14_Function_base13_Base_managerIZ4mainEUlP11HttpRequestP12HttpResponseE79_E21_M_not_empty_functionIS5_EEbRKT_
FN:227,_ZNSt14_Function_base13_Base_managerIZ4mainEUlP11HttpRequestP12HttpResponseE14_E21_M_not_empty_functionIS5_EEbRKT_
FNDA:1,_ZNSt14_Function_base13_Base_managerIZ4mainEUlP11HttpRequestP12HttpResponseE14_E21_M_not_empty_functionIS5_EEbRKT_
FN:227,_ZNSt14_Function_base13_Base_managerIZ4mainEUlP11HttpRequestP12HttpResponseE47_E21_M_not_empty_functionIS5_EEbRKT_
FNDA:1,_ZNSt14_Function_base13_Base_managerIZ4mainEUlP11HttpRequestP12HttpResponseE47_E21_M_not_empty_functionIS5_EEbRKT_
FN:227,_ZNSt14_Function_base13_Base_managerIZ4mainEUlP11HttpRequestP12HttpResponseE80_E21_M_not_empty_functionIS5_EEbRKT_
FNDA:1,_ZNSt14_Function_base13_Base_managerIZ4mainEUlP11HttpRequestP12HttpResponseE80_E21_M_not_empty_functionIS5_EEbRKT_
FN:227,_ZNSt14_Function_base13_Base_managerIZ4mainEUlP11HttpRequestP12HttpResponseE15_E21_M_not_empty_functionIS5_EEbRKT_
FNDA:1,_ZNSt14_Function_base13_Base_managerIZ4mainEUlP11HttpRequestP12HttpResponseE15_E21_M_not_empty_functionIS5_EEbRKT_
FN:227,_ZNSt14_Function_base13_Base_managerIZ4mainEUlP11HttpRequestP12HttpResponseE46_E21_M_not_empty_functionIS5_EEbRKT_
FNDA:1,_ZNSt14_Function_base13_Base_managerIZ4mainEUlP11HttpRequestP12HttpResponseE46_E21_M_not_empty_functionIS5_EEbRKT_
FN:227,_ZNSt14_Function_base13_Base_managerIZ4mainEUlP11HttpRequestP12HttpResponseE81_E21_M_not_empty_functionIS5_EEbRKT_
FNDA:1,_ZNSt14_Function_base13_Base_managerIZ4mainEUlP11HttpRequestP12HttpResponseE81_E21_M_not_empty_functionIS5_EEbRKT_
FN:227,_ZNSt14_Function_base13_Base_managerIZ4mainEUlP11HttpRequestP12HttpResponseE16_E21_M_not_empty_functionIS5_EEbRKT_
FNDA:1,_ZNSt14_Function_base13_Base_managerIZ4mainEUlP11HttpRequestP12HttpResponseE16_E21_M_not_empty_functionIS5_EEbRKT_
FN:227,_ZNSt14_Function_base13_Base_managerIZ4mainEUlP11HttpRequestP12HttpResponseE45_E21_M_not_empty_functionIS5_EEbRKT_
FNDA:1,_ZNSt14_Function_base13_Base_managerIZ4mainEUlP11HttpRequestP12HttpResponseE45_E21_M_not_empty_functionIS5_EEbRKT_
FN:227,_ZNSt14_Function_base13_Base_managerIZ4mainEUlP11HttpRequestP12HttpResponseE82_E21_M_not_empty_functionIS5_EEbRKT_
FNDA:1,_ZNSt14_Function_base13_Base_managerIZ4mainEUlP11HttpRequestP12HttpResponseE82_E21_M_not_empty_functionIS5_EEbRKT_
FN:227,_ZNSt14_Function_base13_Base_managerIZ4mainEUlP11HttpRequestP12HttpResponseE17_E21_M_not_empty_functionIS5_EEbRKT_
FNDA:1,_ZNSt14_Function_base13_Base_managerIZ4mainEUlP11HttpRequestP12HttpResponseE17_E21_M_not_empty_functionIS5_EEbRKT_
FN:227,_ZNSt14_Function_base13_Base_managerIZ4mainEUlP11HttpRequestP12HttpResponseE44_E21_M_not_empty_functionIS5_EEbRKT_
FNDA:1,_ZNSt14_Function_base13_Base_managerIZ4mainEUlP11HttpRequestP12HttpResponseE44_E21_M_not_empty_functionIS5_EEbRKT_
FN:227,_ZNSt14_Function_base13_Base_managerIZ4mainEUlP11HttpRequestP12HttpResponseE83_E21_M_not_empty_functionIS5_EEbRKT_
FNDA:1,_ZNSt14_Function_base13_Base_managerIZ4mainEUlP11HttpRequestP12HttpResponseE83_E21_M_not_empty_functionIS5_EEbRKT_
FN:227,_ZNSt14_Function_base13_Base_managerIZ4mainEUlP11HttpRequestP12HttpResponseE18_E21_M_not_empty_functionIS5_EEbRKT_
FNDA:1,_ZNSt14_Function_base13_Base_managerIZ4mainEUlP11HttpRequestP12HttpResponseE18_E21_M_not_empty_functionIS5_EEbRKT_
FN:227,_ZNSt14_Function_base13_Base_managerIZ4mainEUlP11HttpRequestP12HttpResponseE84_E21_M_not_empty_functionIS5_EEbRKT_
FNDA:1,_ZNSt14_Function_base13_Base_managerIZ4mainEUlP11HttpRequestP12HttpResponseE84_E21_M_not_empty_functionIS5_EEbRKT_
FN:232,_ZNSt14_Function_base13_Base_managerIZ4mainEUlP11HttpRequestP12HttpResponseE33_E15_M_init_functorERSt9_Any_dataOS5_St17integral_constantIbLb1EE
FNDA:1,_ZNSt14_Function_base13_Base_managerIZ4mainEUlP11HttpRequestP12HttpResponseE33_E15_M_init_functorERSt9_Any_dataOS5_St17integral_constantIbLb1EE
FN:232,_ZNSt14_Function_base13_Base_managerIZ4mainEUlP11HttpRequestP12HttpResponseE78_E15_M_init_functorERSt9_Any_dataOS5_St17integral_constantIbLb1EE
FNDA:1,_ZNSt14_Function_base13_Base_managerIZ4mainEUlP11HttpRequestP12HttpResponseE78_E15_M_init_functorERSt9_Any_dataOS5_St17integral_constantIbLb1EE
FN:232,_ZNSt14_Function_base13_Base_managerIZ4mainEUlP11HttpRequestP12HttpResponseE11_E15_M_init_functorERSt9_Any_dataOS5_St17integral_constantIbLb1EE
FNDA:1,_ZNSt14_Function_base13_Base_managerIZ4mainEUlP11HttpRequestP12HttpResponseE11_E15_M_init_functorERSt9_Any_dataOS5_St17integral_constantIbLb1EE
FN:232,_ZNSt14_Function_base13_Base_managerIZ4mainEUlP11HttpRequestP12HttpResponseE7_E15_M_init_functorERSt9_Any_dataOS5_St17integral_constantIbLb1EE
FNDA:1,_ZNSt14_Function_base13_Base_managerIZ4mainEUlP11HttpRequestP12HttpResponseE7_E15_M_init_functorERSt9_Any_dataOS5_St17integral_constantIbLb1EE
FN:232,_ZNSt14_Function_base13_Base_managerIZ4mainEUlP11HttpRequestP12HttpResponseE69_E15_M_init_functorERSt9_Any_dataOS5_St17integral_constantIbLb1EE
FNDA:1,_ZNSt14_Function_base13_Base_managerIZ4mainEUlP11HttpRequestP12HttpResponseE69_E15_M_init_functorERSt9_Any_dataOS5_St17integral_constantIbLb1EE
FN:232,_ZNSt14_Function_base13_Base_managerIZ4mainEUlP11HttpRequestP12HttpResponseE8_E15_M_init_functorERSt9_Any_dataOS5_St17integral_constantIbLb1EE
FNDA:1,_ZNSt14_Function_base13_Base_managerIZ4mainEUlP11HttpRequestP12HttpResponseE8_E15_M_init_functorERSt9_Any_dataOS5_St17integral_constantIbLb1EE
FN:232,_ZNSt14_Function_base13_Base_managerIZ4mainEUlP11HttpRequestP12HttpResponseE84_E15_M_init_functorERSt9_Any_dataOS5_St17integral_constantIbLb1EE
FNDA:1,_ZNSt14_Function_base13_Base_managerIZ4mainEUlP11HttpRequestP12HttpResponseE84_E15_M_init_functorERSt9_Any_dataOS5_St17integral_constantIbLb1EE
FN:232,_ZNSt14_Function_base13_Base_managerIZ4mainEUlP11HttpRequestP12HttpResponseE68_E15_M_init_functorERSt9_Any_dataOS5_St17integral_constantIbLb1EE
FNDA:1,_ZNSt14_Function_base13_Base_managerIZ4mainEUlP11HttpRequestP12HttpResponseE68_E15_M_init_functorERSt9_Any_dataOS5_St17integral_constantIbLb1EE
FN:232,_ZNSt14_Function_base13_Base_managerIZ4mainEUlP11HttpRequestP12HttpResponseE9_E15_M_init_functorERSt9_Any_dataOS5_St17integral_constantIbLb1EE
FNDA:1,_ZNSt14_Function_base13_Base_managerIZ4mainEUlP11HttpRequestP12HttpResponseE9_E15_M_init_functorERSt9_Any_dataOS5_St17integral_constantIbLb1EE
FN:232,_ZNSt14_Function_base13_Base_managerIZ4mainEUlP11HttpRequestP12HttpResponseE67_E15_M_init_functorERSt9_Any_dataOS5_St17integral_constantIbLb1EE
FNDA:1,_ZNSt14_Function_base13_Base_managerIZ4mainEUlP11HttpRequestP12HttpResponseE67_E15_M_init_functorERSt9_Any_dataOS5_St17integral_constantIbLb1EE
FN:232,_ZNSt14_Function_base13_Base_managerIZ4mainEUlP11HttpRequestP12HttpResponseE10_E15_M_init_functorERSt9_Any_dataOS5_St17integral_constantIbLb1EE
FNDA:1,_ZNSt14_Function_base13_Base_managerIZ4mainEUlP11HttpRequestP12HttpResponseE10_E15_M_init_functorERSt9_Any_dataOS5_St17integral_constantIbLb1EE
FN:232,_ZNSt14_Function_base13_Base_managerIZ4mainEUlP11HttpRequestP12HttpResponseE85_E15_M_init_functorERSt9_Any_dataOS5_St17integral_constantIbLb1EE
FNDA:1,_ZNSt14_Function_base13_Base_managerIZ4mainEUlP11HttpRequestP12HttpResponseE85_E15_M_init_functorERSt9_Any_dataOS5_St17integral_constantIbLb1EE
FN:232,_ZNSt14_Function_base13_Base_managerIZ4mainEUlP11HttpRequestP12HttpResponseE66_E15_M_init_functorERSt9_Any_dataOS5_St17integral_constantIbLb1EE
FNDA:1,_ZNSt14_Function_base13_Base_managerIZ4mainEUlP11HttpRequestP12HttpResponseE66_E15_M_init_functorERSt9_Any_dataOS5_St17integral_constantIbLb1EE
FN:232,_ZNSt14_Function_base13_Base_managerIZ4mainEUlP11HttpRequestP12HttpResponseE70_E15_M_init_functorERSt9_Any_dataOS5_St17integral_constantIbLb1EE
FNDA:1,_ZNSt14_Function_base13_Base_managerIZ4mainEUlP11HttpRequestP12HttpResponseE70_E15_M_init_functorERSt9_Any_dataOS5_St17integral_constantIbLb1EE
FN:232,_ZNSt14_Function_base13_Base_managerIZ4mainEUlP11HttpRequestP12HttpResponseE65_E15_M_init_functorERSt9_Any_dataOS5_St17integral_constantIbLb1EE
FNDA:1,_ZNSt14_Function_base13_Base_managerIZ4mainEUlP11HttpRequestP12HttpResponseE65_E15_M_init_functorERSt9_Any_dataOS5_St17integral_constantIbLb1EE
FN:232,_ZNSt14_Function_base13_Base_managerIZ4mainEUlP11HttpRequestP12HttpResponseE12_E15_M_init_functorERSt9_Any_dataOS5_St17integral_constantIbLb1EE
FNDA:1,_ZNSt14_Function_base13_Base_managerIZ4mainEUlP11HttpRequestP12HttpResponseE12_E15_M_init_functorERSt9_Any_dataOS5_St17integral_constantIbLb1EE
FN:232,_ZNSt14_Function_base13_Base_managerIZ4mainEUlP11HttpRequestP12HttpResponseE64_E15_M_init_functorERSt9_Any_dataOS5_St17integral_constantIbLb1EE
FNDA:1,_ZNSt14_Function_base13_Base_managerIZ4mainEUlP11HttpRequestP12HttpResponseE64_E15_M_init_functorERSt9_Any_dataOS5_St17integral_constantIbLb1EE
FN:232,_ZNSt14_Function_base13_Base_managerIZ4mainEUlP11HttpRequestP12HttpResponseE63_E15_M_init_functorERSt9_Any_dataOS5_St17integral_constantIbLb1EE
FNDA:1,_ZNSt14_Function_base13_Base_managerIZ4mainEUlP11HttpRequestP12HttpResponseE63_E15_M_init_functorERSt9_Any_dataOS5_St17integral_constantIbLb1EE
FN:232,_ZNSt14_Function_base13_Base_managerIZ4mainEUlP11HttpRequestP12HttpResponseE13_E15_M_init_functorERSt9_Any_dataOS5_St17integral_constantIbLb1EE
FNDA:1,_ZNSt14_Function_base13_Base_managerIZ4mainEUlP11HttpRequestP12HttpResponseE13_E15_M_init_functorERSt9_Any_dataOS5_St17integral_constantIbLb1EE
FN:232,_ZNSt14_Function_base13_Base_managerIZ4mainEUlP11HttpRequestP12HttpResponseE62_E15_M_init_functorERSt9_Any_dataOS5_St17integral_constantIbLb1EE
FNDA:1,_ZNSt14_Function_base13_Base_managerIZ4mainEUlP11HttpRequestP12HttpResponseE62_E15_M_init_functorERSt9_Any_dataOS5_St17integral_constantIbLb1EE
FN:232,_ZNSt14_Function_base13_Base_managerIZ4mainEUlP11HttpRequestP12HttpResponseE14_E15_M_init_functorERSt9_Any_dataOS5_St17integral_constantIbLb1EE
FNDA:1,_ZNSt14_Function_base13_Base_managerIZ4mainEUlP11HttpRequestP12HttpResponseE14_E15_M_init_functorERSt9_Any_dataOS5_St17integral_constantIbLb1EE
FN:232,_ZNSt14_Function_base13_Base_managerIZ4mainEUlP11HttpRequestP12HttpResponseE61_E15_M_init_functorERSt9_Any_dataOS5_St17integral_constantIbLb1EE
FNDA:1,_ZNSt14_Function_base13_Base_managerIZ4mainEUlP11HttpRequestP12HttpResponseE61_E15_M_init_functorERSt9_Any_dataOS5_St17integral_constantIbLb1EE
FN:232,_ZNSt14_Function_base13_Base_managerIZ4mainEUlP11HttpRequestP12HttpResponseE60_E15_M_init_functorERSt9_Any_dataOS5_St17integral_constantIbLb1EE
FNDA:1,_ZNSt14_Function_base13_Base_managerIZ4mainEUlP11HttpRequestP12HttpResponseE60_E15_M_init_functorERSt9_Any_dataOS5_St17integral_constantIbLb1EE
FN:232,_ZNSt14_Function_base13_Base_managerIZ4mainEUlP11HttpRequestP12HttpResponseE15_E15_M_init_functorERSt9_Any_dataOS5_St17integral_constantIbLb1EE
FNDA:1,_ZNSt14_Function_base13_Base_managerIZ4mainEUlP11HttpRequestP12HttpResponseE15_E15_M_init_functorERSt9_Any_dataOS5_St17integral_constantIbLb1EE
FN:232,_ZNSt14_Function_base13_Base_managerIZ4mainEUlP11HttpRequestP12HttpResponseE81_E15_M_init_functorERSt9_Any_dataOS5_St17integral_constantIbLb1EE
FNDA:1,_ZNSt14_Function_base13_Base_managerIZ4mainEUlP11HttpRequestP12HttpResponseE81_E15_M_init_functorERSt9_Any_dataOS5_St17integral_constantIbLb1EE
FN:232,_ZNSt14_Function_base13_Base_managerIZ4mainEUlP11HttpRequestP12HttpResponseE_E15_M_init_functorERSt9_Any_dataOS5_St17integral_constantIbLb1EE
FNDA:1,_ZNSt14_Function_base13_Base_managerIZ4mainEUlP11HttpRequestP12HttpResponseE_E15_M_init_functorERSt9_Any_dataOS5_St17integral_constantIbLb1EE
FN:232,_ZNSt14_Function_base13_Base_managerIZ4mainEUlP11HttpRequestP12HttpResponseE77_E15_M_init_functorERSt9_Any_dataOS5_St17integral_constantIbLb1EE
FNDA:1,_ZNSt14_Function_base13_Base_managerIZ4mainEUlP11HttpRequestP12HttpResponseE77_E15_M_init_functorERSt9_Any_dataOS5_St17integral_constantIbLb1EE
FN:232,_ZNSt14_Function_base13_Base_managerIZ4mainEUlP11HttpRequestP12HttpResponseE79_E15_M_init_functorERSt9_Any_dataOS5_St17integral_constantIbLb1EE
FNDA:1,_ZNSt14_Function_base13_Base_managerIZ4mainEUlP11HttpRequestP12HttpResponseE79_E15_M_init_functorERSt9_Any_dataOS5_St17integral_constantIbLb1EE
FN:232,_ZNSt14_Function_base13_Base_managerIZ4mainEUlP11HttpRequestP12HttpResponseE76_E15_M_init_functorERSt9_Any_dataOS5_St17integral_constantIbLb1EE
FNDA:1,_ZNSt14_Function_base13_Base_managerIZ4mainEUlP11HttpRequestP12HttpResponseE76_E15_M_init_functorERSt9_Any_dataOS5_St17integral_constantIbLb1EE
FN:232,_ZNSt14_Function_base13_Base_managerIZ4mainEUlP11HttpRequestP12HttpResponseE0_E15_M_init_functorERSt9_Any_dataOS5_St17integral_constantIbLb1EE
FNDA:1,_ZNSt14_Function_base13_Base_managerIZ4mainEUlP11HttpRequestP12HttpResponseE0_E15_M_init_functorERSt9_Any_dataOS5_St17integral_constantIbLb1EE
FN:232,_ZNSt14_Function_base13_Base_managerIZ4mainEUlP11HttpRequestP12HttpResponseE75_E15_M_init_functorERSt9_Any_dataOS5_St17integral_constantIbLb1EE
FNDA:1,_ZNSt14_Function_base13_Base_managerIZ4mainEUlP11HttpRequestP12HttpResponseE75_E15_M_init_functorERSt9_Any_dataOS5_St17integral_constantIbLb1EE
FN:232,_ZNSt14_Function_base13_Base_managerIZ4mainEUlP11HttpRequestP12HttpResponseE1_E15_M_init_functorERSt9_Any_dataOS5_St17integral_constantIbLb1EE
FNDA:1,_ZNSt14_Function_base13_Base_managerIZ4mainEUlP11HttpRequestP12HttpResponseE1_E15_M_init_functorERSt9_Any_dataOS5_St17integral_constantIbLb1EE
FN:232,_ZNSt14_Function_base13_Base_managerIZ4mainEUlP11HttpRequestP12HttpResponseE80_E15_M_init_functorERSt9_Any_dataOS5_St17integral_constantIbLb1EE
FNDA:1,_ZNSt14_Function_base13_Base_managerIZ4mainEUlP11HttpRequestP12HttpResponseE80_E15_M_init_functorERSt9_Any_dataOS5_St17integral_constantIbLb1EE
FN:232,_ZNSt14_Function_base13_Base_managerIZ4mainEUlP11HttpRequestP12HttpResponseE2_E15_M_init_functorERSt9_Any_dataOS5_St17integral_constantIbLb1EE
FNDA:1,_ZNSt14_Function_base13_Base_managerIZ4mainEUlP11HttpRequestP12HttpResponseE2_E15_M_init_functorERSt9_Any_dataOS5_St17integral_constantIbLb1EE
FN:232,_ZNSt14_Function_base13_Base_managerIZ4mainEUlP11HttpRequestP12HttpResponseE74_E15_M_init_functorERSt9_Any_dataOS5_St17integral_constantIbLb1EE
FNDA:1,_ZNSt14_Function_base13_Base_managerIZ4mainEUlP11HttpRequestP12HttpResponseE74_E15_M_init_functorERSt9_Any_dataOS5_St17integral_constantIbLb1EE
FN:232,_ZNSt14_Function_base13_Base_managerIZ4mainEUlP11HttpRequestP12HttpResponseE16_E15_M_init_functorERSt9_Any_dataOS5_St17integral_constantIbLb1EE
FNDA:1,_ZNSt14_Function_base13_Base_managerIZ4mainEUlP11HttpRequestP12HttpResponseE16_E15_M_init_functorERSt9_Any_dataOS5_St17integral_constantIbLb1EE
FN:232,_ZNSt14_Function_base13_Base_managerIZ4mainEUlP11HttpRequestP12HttpResponseE3_E15_M_init_functorERSt9_Any_dataOS5_St17integral_constantIbLb1EE
FNDA:1,_ZNSt14_Function_base13_Base_managerIZ4mainEUlP11HttpRequestP12HttpResponseE3_E15_M_init_functorERSt9_Any_dataOS5_St17integral_constantIbLb1EE
FN:232,_ZNSt14_Function_base13_Base_managerIZ4mainEUlP11HttpRequestP12HttpResponseE73_E15_M_init_functorERSt9_Any_dataOS5_St17integral_constantIbLb1EE
FNDA:1,_ZNSt14_Function_base13_Base_managerIZ4mainEUlP11HttpRequestP12HttpResponseE73_E15_M_init_functorERSt9_Any_dataOS5_St17integral_constantIbLb1EE
FN:232,_ZNSt14_Function_base13_Base_managerIZ4mainEUlP11HttpRequestP12HttpResponseE4_E15_M_init_functorERSt9_Any_dataOS5_St17integral_constantIbLb1EE
FNDA:1,_ZNSt14_Function_base13_Base_managerIZ4mainEUlP11HttpRequestP12HttpResponseE4_E15_M_init_functorERSt9_Any_dataOS5_St17integral_constantIbLb1EE
FN:232,_ZNSt14_Function_base13_Base_managerIZ4mainEUlP11HttpRequestP12HttpResponseE72_E15_M_init_functorERSt9_Any_dataOS5_St17integral_constantIbLb1EE
FNDA:1,_ZNSt14_Function_base13_Base_managerIZ4mainEUlP11HttpRequestP12HttpResponseE72_E15_M_init_functorERSt9_Any_dataOS5_St17integral_constantIbLb1EE
FN:232,_ZNSt14_Function_base13_Base_managerIZ4mainEUlP11HttpRequestP12HttpResponseE82_E15_M_init_functorERSt9_Any_dataOS5_St17integral_constantIbLb1EE
FNDA:1,_ZNSt14_Function_base13_Base_managerIZ4mainEUlP11HttpRequestP12HttpResponseE82_E15_M_init_functorERSt9_Any_dataOS5_St17integral_constantIbLb1EE
FN:232,_ZNSt14_Function_base13_Base_managerIZ4mainEUlP11HttpRequestP12HttpResponseE5_E15_M_init_functorERSt9_Any_dataOS5_St17integral_constantIbLb1EE
FNDA:1,_ZNSt14_Function_base13_Base_managerIZ4mainEUlP11HttpRequestP12HttpResponseE5_E15_M_init_functorERSt9_Any_dataOS5_St17integral_constantIbLb1EE
FN:232,_ZNSt14_Function_base13_Base_managerIZ4mainEUlP11HttpRequestP12HttpResponseE71_E15_M_init_functorERSt9_Any_dataOS5_St17integral_constantIbLb1EE
FNDA:1,_ZNSt14_Function_base13_Base_managerIZ4mainEUlP11HttpRequestP12HttpResponseE71_E15_M_init_functorERSt9_Any_dataOS5_St17integral_constantIbLb1EE
FN:232,_ZNSt14_Function_base13_Base_managerIZ4mainEUlP11HttpRequestP12HttpResponseE6_E15_M_init_functorERSt9_Any_dataOS5_St17integral_constantIbLb1EE
FNDA:1,_ZNSt14_Function_base13_Base_managerIZ4mainEUlP11HttpRequestP12HttpResponseE6_E15_M_init_functorERSt9_Any_dataOS5_St17integral_constantIbLb1EE
FN:232,_ZNSt14_Function_base13_Base_managerIZ4mainEUlP11HttpRequestP12HttpResponseE83_E15_M_init_functorERSt9_Any_dataOS5_St17integral_constantIbLb1EE
FNDA:1,_ZNSt14_Function_base13_Base_managerIZ4mainEUlP11HttpRequestP12HttpResponseE83_E15_M_init_functorERSt9_Any_dataOS5_St17integral_constantIbLb1EE
FN:232,_ZNSt14_Function_base13_Base_managerIZ4mainEUlP11HttpRequestP12HttpResponseE39_E15_M_init_functorERSt9_Any_dataOS5_St17integral_constantIbLb1EE
FNDA:1,_ZNSt14_Function_base13_Base_managerIZ4mainEUlP11HttpRequestP12HttpResponseE39_E15_M_init_functorERSt9_Any_dataOS5_St17integral_constantIbLb1EE
FN:232,_ZNSt14_Function_base13_Base_managerIZ4mainEUlP11HttpRequestP12HttpResponseE45_E15_M_init_functorERSt9_Any_dataOS5_St17integral_constantIbLb1EE
FNDA:1,_ZNSt14_Function_base13_Base_managerIZ4mainEUlP11HttpRequestP12HttpResponseE45_E15_M_init_functorERSt9_Any_dataOS5_St17integral_constantIbLb1EE
FN:232,_ZNSt14_Function_base13_Base_managerIZ4mainEUlP11HttpRequestP12HttpResponseE25_E15_M_init_functorERSt9_Any_dataOS5_St17integral_constantIbLb1EE
FNDA:1,_ZNSt14_Function_base13_Base_managerIZ4mainEUlP11HttpRequestP12HttpResponseE25_E15_M_init_functorERSt9_Any_dataOS5_St17integral_constantIbLb1EE
FN:232,_ZNSt14_Function_base13_Base_managerIZ4mainEUlP11HttpRequestP12HttpResponseE44_E15_M_init_functorERSt9_Any_dataOS5_St17integral_constantIbLb1EE
FNDA:1,_ZNSt14_Function_base13_Base_managerIZ4mainEUlP11HttpRequestP12HttpResponseE44_E15_M_init_functorERSt9_Any_dataOS5_St17integral_constantIbLb1EE
FN:232,_ZNSt14_Function_base13_Base_managerIZ4mainEUlP11HttpRequestP12HttpResponseE26_E15_M_init_functorERSt9_Any_dataOS5_St17integral_constantIbLb1EE
FNDA:1,_ZNSt14_Function_base13_Base_managerIZ4mainEUlP11HttpRequestP12HttpResponseE26_E15_M_init_functorERSt9_Any_dataOS5_St17integral_constantIbLb1EE
FN:232,_ZNSt14_Function_base13_Base_managerIZ4mainEUlP11HttpRequestP12HttpResponseE43_E15_M_init_functorERSt9_Any_dataOS5_St17integral_constantIbLb1EE
FNDA:1,_ZNSt14_Function_base13_Base_managerIZ4mainEUlP11HttpRequestP12HttpResponseE43_E15_M_init_functorERSt9_Any_dataOS5_St17integral_constantIbLb1EE
FN:232,_ZNSt14_Function_base13_Base_managerIZ4mainEUlP11HttpRequestP12HttpResponseE42_E15_M_init_functorERSt9_Any_dataOS5_St17integral_constantIbLb1EE
FNDA:1,_ZNSt14_Function_base13_Base_managerIZ4mainEUlP11HttpRequestP12HttpResponseE42_E15_M_init_functorERSt9_Any_dataOS5_St17integral_constantIbLb1EE
FN:232,_ZNSt14_Function_base13_Base_managerIZ4mainEUlP11HttpRequestP12HttpResponseE27_E15_M_init_functorERSt9_Any_dataOS5_St17integral_constantIbLb1EE
FNDA:1,_ZNSt14_Function_base13_Base_managerIZ4mainEUlP11HttpRequestP12HttpResponseE27_E15_M_init_functorERSt9_Any_dataOS5_St17integral_constantIbLb1EE
FN:232,_ZNSt14_Function_base13_Base_managerIZ4mainEUlP11HttpRequestP12HttpResponseE41_E15_M_init_functorERSt9_Any_dataOS5_St17integral_constantIbLb1EE
FNDA:1,_ZNSt14_Function_base13_Base_managerIZ4mainEUlP11HttpRequestP12HttpResponseE41_E15_M_init_functorERSt9_Any_dataOS5_St17integral_constantIbLb1EE
FN:232,_ZNSt14_Function_base13_Base_managerIZ4mainEUlP11HttpRequestP12HttpResponseE28_E15_M_init_functorERSt9_Any_dataOS5_St17integral_constantIbLb1EE
FNDA:1,_ZNSt14_Function_base13_Base_managerIZ4mainEUlP11HttpRequestP12HttpResponseE28_E15_M_init_functorERSt9_Any_dataOS5_St17integral_constantIbLb1EE
FN:232,_ZNSt14_Function_base13_Base_managerIZ4mainEUlP11HttpRequestP12HttpResponseE40_E15_M_init_functorERSt9_Any_dataOS5_St17integral_constantIbLb1EE
FNDA:1,_ZNSt14_Function_base13_Base_managerIZ4mainEUlP11HttpRequestP12HttpResponseE40_E15_M_init_functorERSt9_Any_dataOS5_St17integral_constantIbLb1EE
FN:232,_ZNSt14_Function_base13_Base_managerIZ4mainEUlP11HttpRequestP12HttpResponseE46_E15_M_init_functorERSt9_Any_dataOS5_St17integral_constantIbLb1EE
FNDA:1,_ZNSt14_Function_base13_Base_managerIZ4mainEUlP11HttpRequestP12HttpResponseE46_E15_M_init_functorERSt9_Any_dataOS5_St17integral_constantIbLb1EE
FN:232,_ZNSt14_Function_base13_Base_managerIZ4mainEUlP11HttpRequestP12HttpResponseE29_E15_M_init_functorERSt9_Any_dataOS5_St17integral_constantIbLb1EE
FNDA:1,_ZNSt14_Function_base13_Base_managerIZ4mainEUlP11HttpRequestP12HttpResponseE29_E15_M_init_functorERSt9_Any_dataOS5_St17integral_constantIbLb1EE
FN:232,_ZNSt14_Function_base13_Base_managerIZ4mainEUlP11HttpRequestP12HttpResponseE38_E15_M_init_functorERSt9_Any_dataOS5_St17integral_constantIbLb1EE
FNDA:1,_ZNSt14_Function_base13_Base_managerIZ4mainEUlP11HttpRequestP12HttpResponseE38_E15_M_init_functorERSt9_Any_dataOS5_St17integral_constantIbLb1EE
FN:232,_ZNSt14_Function_base13_Base_managerIZ4mainEUlP11HttpRequestP12HttpResponseE30_E15_M_init_functorERSt9_Any_dataOS5_St17integral_constantIbLb1EE
FNDA:1,_ZNSt14_Function_base13_Base_managerIZ4mainEUlP11HttpRequestP12HttpResponseE30_E15_M_init_functorERSt9_Any_dataOS5_St17integral_constantIbLb1EE
FN:232,_ZNSt14_Function_base13_Base_managerIZ4mainEUlP11HttpRequestP12HttpResponseE37_E15_M_init_functorERSt9_Any_dataOS5_St17integral_constantIbLb1EE
FNDA:1,_ZNSt14_Function_base13_Base_managerIZ4mainEUlP11HttpRequestP12HttpResponseE37_E15_M_init_functorERSt9_Any_dataOS5_St17integral_constantIbLb1EE
FN:232,_ZNSt14_Function_base13_Base_managerIZ4mainEUlP11HttpRequestP12HttpResponseE36_E15_M_init_functorERSt9_Any_dataOS5_St17integral_constantIbLb1EE
FNDA:1,_ZNSt14_Function_base13_Base_managerIZ4mainEUlP11HttpRequestP12HttpResponseE36_E15_M_init_functorERSt9_Any_dataOS5_St17integral_constantIbLb1EE
FN:232,_ZNSt14_Function_base13_Base_managerIZ4mainEUlP11HttpRequestP12HttpResponseE31_E15_M_init_functorERSt9_Any_dataOS5_St17integral_constantIbLb1EE
FNDA:1,_ZNSt14_Function_base13_Base_managerIZ4mainEUlP11HttpRequestP12HttpResponseE31_E15_M_init_functorERSt9_Any_dataOS5_St17integral_constantIbLb1EE
FN:232,_ZNSt14_Function_base13_Base_managerIZ4mainEUlP11HttpRequestP12HttpResponseE35_E15_M_init_functorERSt9_Any_dataOS5_St17integral_constantIbLb1EE
FNDA:1,_ZNSt14_Function_base13_Base_managerIZ4mainEUlP11HttpRequestP12HttpResponseE35_E15_M_init_functorERSt9_Any_dataOS5_St17integral_constantIbLb1EE
FN:232,_ZNSt14_Function_base13_Base_managerIZ4mainEUlP11HttpRequestP12HttpResponseE32_E15_M_init_functorERSt9_Any_dataOS5_St17integral_constantIbLb1EE
FNDA:1,_ZNSt14_Function_base13_Base_managerIZ4mainEUlP11HttpRequestP12HttpResponseE32_E15_M_init_functorERSt9_Any_dataOS5_St17integral_constantIbLb1EE
FN:232,_ZNSt14_Function_base13_Base_managerIZ4mainEUlP11HttpRequestP12HttpResponseE34_E15_M_init_functorERSt9_Any_dataOS5_St17integral_constantIbLb1EE
FNDA:1,_ZNSt14_Function_base13_Base_managerIZ4mainEUlP11HttpRequestP12HttpResponseE34_E15_M_init_functorERSt9_Any_dataOS5_St17integral_constantIbLb1EE
FN:232,_ZNSt14_Function_base13_Base_managerIZ4mainEUlP11HttpRequestP12HttpResponseE52_E15_M_init_functorERSt9_Any_dataOS5_St17integral_constantIbLb1EE
FNDA:1,_ZNSt14_Function_base13_Base_managerIZ4mainEUlP11HttpRequestP12HttpResponseE52_E15_M_init_functorERSt9_Any_dataOS5_St17integral_constantIbLb1EE
FN:232,_ZNSt14_Function_base13_Base_managerIZ4mainEUlP11HttpRequestP12HttpResponseE58_E15_M_init_functorERSt9_Any_dataOS5_St17integral_constantIbLb1EE
FNDA:1,_ZNSt14_Function_base13_Base_managerIZ4mainEUlP11HttpRequestP12HttpResponseE58_E15_M_init_functorERSt9_Any_dataOS5_St17integral_constantIbLb1EE
FN:232,_ZNSt14_Function_base13_Base_managerIZ4mainEUlP11HttpRequestP12HttpResponseE57_E15_M_init_functorERSt9_Any_dataOS5_St17integral_constantIbLb1EE
FNDA:1,_ZNSt14_Function_base13_Base_managerIZ4mainEUlP11HttpRequestP12HttpResponseE57_E15_M_init_functorERSt9_Any_dataOS5_St17integral_constantIbLb1EE
FN:232,_ZNSt14_Function_base13_Base_managerIZ4mainEUlP11HttpRequestP12HttpResponseE17_E15_M_init_functorERSt9_Any_dataOS5_St17integral_constantIbLb1EE
FNDA:1,_ZNSt14_Function_base13_Base_managerIZ4mainEUlP11HttpRequestP12HttpResponseE17_E15_M_init_functorERSt9_Any_dataOS5_St17integral_constantIbLb1EE
FN:232,_ZNSt14_Function_base13_Base_managerIZ4mainEUlP11HttpRequestP12HttpResponseE56_E15_M_init_functorERSt9_Any_dataOS5_St17integral_constantIbLb1EE
FNDA:1,_ZNSt14_Function_base13_Base_managerIZ4mainEUlP11HttpRequestP12HttpResponseE56_E15_M_init_functorERSt9_Any_dataOS5_St17integral_constantIbLb1EE
FN:232,_ZNSt14_Function_base13_Base_managerIZ4mainEUlP11HttpRequestP12HttpResponseE18_E15_M_init_functorERSt9_Any_dataOS5_St17integral_constantIbLb1EE
FNDA:1,_ZNSt14_Function_base13_Base_managerIZ4mainEUlP11HttpRequestP12HttpResponseE18_E15_M_init_functorERSt9_Any_dataOS5_St17integral_constantIbLb1EE
FN:232,_ZNSt14_Function_base13_Base_managerIZ4mainEUlP11HttpRequestP12HttpResponseE55_E15_M_init_functorERSt9_Any_dataOS5_St17integral_constantIbLb1EE
FNDA:1,_ZNSt14_Function_base13_Base_managerIZ4mainEUlP11HttpRequestP12HttpResponseE55_E15_M_init_functorERSt9_Any_dataOS5_St17integral_constantIbLb1EE
FN:232,_ZNSt14_Function_base13_Base_managerIZ4mainEUlP11HttpRequestP12HttpResponseE54_E15_M_init_functorERSt9_Any_dataOS5_St17integral_constantIbLb1EE
FNDA:1,_ZNSt14_Function_base13_Base_managerIZ4mainEUlP11HttpRequestP12HttpResponseE54_E15_M_init_functorERSt9_Any_dataOS5_St17integral_constantIbLb1EE
FN:232,_ZNSt14_Function_base13_Base_managerIZ4mainEUlP11HttpRequestP12HttpResponseE19_E15_M_init_functorERSt9_Any_dataOS5_St17integral_constantIbLb1EE
FNDA:1,_ZNSt14_Function_base13_Base_managerIZ4mainEUlP11HttpRequestP12HttpResponseE19_E15_M_init_functorERSt9_Any_dataOS5_St17integral_constantIbLb1EE
FN:232,_ZNSt14_Function_base13_Base_managerIZ4mainEUlP11HttpRequestP12HttpResponseE53_E15_M_init_functorERSt9_Any_dataOS5_St17integral_constantIbLb1EE
FNDA:1,_ZNSt14_Function_base13_Base_managerIZ4mainEUlP11HttpRequestP12HttpResponseE53_E15_M_init_functorERSt9_Any_dataOS5_St17integral_constantIbLb1EE
FN:232,_ZNSt14_Function_base13_Base_managerIZ4mainEUlP11HttpRequestP12HttpResponseE20_E15_M_init_functorERSt9_Any_dataOS5_St17integral_constantIbLb1EE
FNDA:1,_ZNSt14_Function_base13_Base_managerIZ4mainEUlP11HttpRequestP12HttpResponseE20_E15_M_init_functorERSt9_Any_dataOS5_St17integral_constantIbLb1EE
FN:232,_ZNSt14_Function_base13_Base_managerIZ4mainEUlP11HttpRequestP12HttpResponseE59_E15_M_init_functorERSt9_Any_dataOS5_St17integral_constantIbLb1EE
FNDA:1,_ZNSt14_Function_base13_Base_managerIZ4mainEUlP11HttpRequestP12HttpResponseE59_E15_M_init_functorERSt9_Any_dataOS5_St17integral_constantIbLb1EE
FN:232,_ZNSt14_Function_base13_Base_managerIZ4mainEUlP11HttpRequestP12HttpResponseE51_E15_M_init_functorERSt9_Any_dataOS5_St17integral_constantIbLb1EE
FNDA:1,_ZNSt14_Function_base13_Base_managerIZ4mainEUlP11HttpRequestP12HttpResponseE51_E15_M_init_functorERSt9_Any_dataOS5_St17integral_constantIbLb1EE
FN:232,_ZNSt14_Function_base13_Base_managerIZ4mainEUlP11HttpRequestP12HttpResponseE21_E15_M_init_functorERSt9_Any_dataOS5_St17integral_constantIbLb1EE
FNDA:1,_ZNSt14_Function_base13_Base_managerIZ4mainEUlP11HttpRequestP12HttpResponseE21_E15_M_init_functorERSt9_Any_dataOS5_St17integral_constantIbLb1EE
FN:232,_ZNSt14_Function_base13_Base_managerIZ4mainEUlP11HttpRequestP12HttpResponseE50_E15_M_init_functorERSt9_Any_dataOS5_St17integral_constantIbLb1EE
FNDA:1,_ZNSt14_Function_base13_Base_managerIZ4mainEUlP11HttpRequestP12HttpResponseE50_E15_M_init_functorERSt9_Any_dataOS5_St17integral_constantIbLb1EE
FN:232,_ZNSt14_Function_base13_Base_managerIZ4mainEUlP11HttpRequestP12HttpResponseE22_E15_M_init_functorERSt9_Any_dataOS5_St17integral_constantIbLb1EE
FNDA:1,_ZNSt14_Function_base13_Base_managerIZ4mainEUlP11HttpRequestP12HttpResponseE22_E15_M_init_functorERSt9_Any_dataOS5_St17integral_constantIbLb1EE
FN:232,_ZNSt14_Function_base13_Base_managerIZ4mainEUlP11HttpRequestP12HttpResponseE49_E15_M_init_functorERSt9_Any_dataOS5_St17integral_constantIbLb1EE
FNDA:1,_ZNSt14_Function_base13_Base_managerIZ4mainEUlP11HttpRequestP12HttpResponseE49_E15_M_init_functorERSt9_Any_dataOS5_St17integral_constantIbLb1EE
FN:232,_ZNSt14_Function_base13_Base_managerIZ4mainEUlP11HttpRequestP12HttpResponseE48_E15_M_init_functorERSt9_Any_dataOS5_St17integral_constantIbLb1EE
FNDA:1,_ZNSt14_Function_base13_Base_managerIZ4mainEUlP11HttpRequestP12HttpResponseE48_E15_M_init_functorERSt9_Any_dataOS5_St17integral_constantIbLb1EE
FN:232,_ZNSt14_Function_base13_Base_managerIZ4mainEUlP11HttpRequestP12HttpResponseE23_E15_M_init_functorERSt9_Any_dataOS5_St17integral_constantIbLb1EE
FNDA:1,_ZNSt14_Function_base13_Base_managerIZ4mainEUlP11HttpRequestP12HttpResponseE23_E15_M_init_functorERSt9_Any_dataOS5_St17integral_constantIbLb1EE
FN:232,_ZNSt14_Function_base13_Base_managerIZ4mainEUlP11HttpRequestP12HttpResponseE47_E15_M_init_functorERSt9_Any_dataOS5_St17integral_constantIbLb1EE
FNDA:1,_ZNSt14_Function_base13_Base_managerIZ4mainEUlP11HttpRequestP12HttpResponseE47_E15_M_init_functorERSt9_Any_dataOS5_St17integral_constantIbLb1EE
FN:232,_ZNSt14_Function_base13_Base_managerIZ4mainEUlP11HttpRequestP12HttpResponseE24_E15_M_init_functorERSt9_Any_dataOS5_St17integral_constantIbLb1EE
FNDA:1,_ZNSt14_Function_base13_Base_managerIZ4mainEUlP11HttpRequestP12HttpResponseE24_E15_M_init_functorERSt9_Any_dataOS5_St17integral_constantIbLb1EE
FN:240,_ZNSt14_Function_baseC2Ev
FNDA:605,_ZNSt14_Function_baseC2Ev
FN:242,_ZNSt14_Function_baseD2Ev
FNDA:518,_ZNSt14_Function_baseD2Ev
FN:248,_ZNKSt14_Function_base8_M_emptyEv
FNDA:346,_ZNKSt14_Function_base8_M_emptyEv
FN:268,_ZNSt17_Function_handlerIFiP11HttpRequestP12HttpResponseEZ4mainEUlS1_S3_E58_E10_M_managerERSt9_Any_dataRKS7_St18_Manager_operation
FNDA:8,_ZNSt17_Function_handlerIFiP11HttpRequestP12HttpResponseEZ4mainEUlS1_S3_E58_E10_M_managerERSt9_Any_dataRKS7_St18_Manager_operation
FN:268,_ZNSt17_Function_handlerIFiP11HttpRequestP12HttpResponseEZ4mainEUlS1_S3_E20_E10_M_managerERSt9_Any_dataRKS7_St18_Manager_operation
FNDA:8,_ZNSt17_Function_handlerIFiP11HttpRequestP12HttpResponseEZ4mainEUlS1_S3_E20_E10_M_managerERSt9_Any_dataRKS7_St18_Manager_operation
FN:268,_ZNSt17_Function_handlerIFiP11HttpRequestP12HttpResponseEZ4mainEUlS1_S3_E57_E10_M_managerERSt9_Any_dataRKS7_St18_Manager_operation
FNDA:8,_ZNSt17_Function_handlerIFiP11HttpRequestP12HttpResponseEZ4mainEUlS1_S3_E57_E10_M_managerERSt9_Any_dataRKS7_St18_Manager_operation
FN:268,_ZNSt17_Function_handlerIFiP11HttpRequestP12HttpResponseEZ4mainEUlS1_S3_E74_E10_M_managerERSt9_Any_dataRKS7_St18_Manager_operation
FNDA:8,_ZNSt17_Function_handlerIFiP11HttpRequestP12HttpResponseEZ4mainEUlS1_S3_E74_E10_M_managerERSt9_Any_dataRKS7_St18_Manager_operation
FN:268,_ZNSt17_Function_handlerIFiP11HttpRequestP12HttpResponseEZ4mainEUlS1_S3_E7_E10_M_managerERSt9_Any_dataRKS7_St18_Manager_operation
FNDA:8,_ZNSt17_Function_handlerIFiP11HttpRequestP12HttpResponseEZ4mainEUlS1_S3_E7_E10_M_managerERSt9_Any_dataRKS7_St18_Manager_operation
FN:268,_ZNSt17_Function_handlerIFiP11HttpRequestP12HttpResponseEZ4mainEUlS1_S3_E21_E10_M_managerERSt9_Any_dataRKS7_St18_Manager_operation
FNDA:8,_ZNSt17_Function_handlerIFiP11HttpRequestP12HttpResponseEZ4mainEUlS1_S3_E21_E10_M_managerERSt9_Any_dataRKS7_St18_Manager_operation
FN:268,_ZNSt17_Function_handlerIFiP11HttpRequestP12HttpResponseEZ4mainEUlS1_S3_E50_E10_M_managerERSt9_Any_dataRKS7_St18_Manager_operation
FNDA:8,_ZNSt17_Function_handlerIFiP11HttpRequestP12HttpResponseEZ4mainEUlS1_S3_E50_E10_M_managerERSt9_Any_dataRKS7_St18_Manager_operation
FN:268,_ZNSt17_Function_handlerIFiP11HttpRequestP12HttpResponseEZ4mainEUlS1_S3_E22_E10_M_managerERSt9_Any_dataRKS7_St18_Manager_operation
FNDA:8,_ZNSt17_Function_handlerIFiP11HttpRequestP12HttpResponseEZ4mainEUlS1_S3_E22_E10_M_managerERSt9_Any_dataRKS7_St18_Manager_operation
FN:268,_ZNSt17_Function_handlerIFiP11HttpRequestP12HttpResponseEZ4mainEUlS1_S3_E67_E10_M_managerERSt9_Any_dataRKS7_St18_Manager_operation
FNDA:8,_ZNSt17_Function_handlerIFiP11HttpRequestP12HttpResponseEZ4mainEUlS1_S3_E67_E10_M_managerERSt9_Any_dataRKS7_St18_Manager_operation
FN:268,_ZNSt17_Function_handlerIFiP11HttpRequestP12HttpResponseEZ4mainEUlS1_S3_E75_E10_M_managerERSt9_Any_dataRKS7_St18_Manager_operation
FNDA:8,_ZNSt17_Function_handlerIFiP11HttpRequestP12HttpResponseEZ4mainEUlS1_S3_E75_E10_M_managerERSt9_Any_dataRKS7_St18_Manager_operation
FN:268,_ZNSt17_Function_handlerIFiP11HttpRequestP12HttpResponseEZ4mainEUlS1_S3_E6_E10_M_managerERSt9_Any_dataRKS7_St18_Manager_operation
FNDA:8,_ZNSt17_Function_handlerIFiP11HttpRequestP12HttpResponseEZ4mainEUlS1_S3_E6_E10_M_managerERSt9_Any_dataRKS7_St18_Manager_operation
FN:268,_ZNSt17_Function_handlerIFiP11HttpRequestP12HttpResponseEZ4mainEUlS1_S3_E23_E10_M_managerERSt9_Any_dataRKS7_St18_Manager_operation
FNDA:8,_ZNSt17_Function_handlerIFiP11HttpRequestP12HttpResponseEZ4mainEUlS1_S3_E23_E10_M_managerERSt9_Any_dataRKS7_St18_Manager_operation
FN:268,_ZNSt17_Function_handlerIFiP11HttpRequestP12HttpResponseEZ4mainEUlS1_S3_E49_E10_M_managerERSt9_Any_dataRKS7_St18_Manager_operation
FNDA:8,_ZNSt17_Function_handlerIFiP11HttpRequestP12HttpResponseEZ4mainEUlS1_S3_E49_E10_M_managerERSt9_Any_dataRKS7_St18_Manager_operation
FN:268,_ZNSt17_Function_handlerIFiP11HttpRequestP12HttpResponseEZ4mainEUlS1_S3_E24_E10_M_managerERSt9_Any_dataRKS7_St18_Manager_operation
FNDA:8,_ZNSt17_Function_handlerIFiP11HttpRequestP12HttpResponseEZ4mainEUlS1_S3_E24_E10_M_managerERSt9_Any_dataRKS7_St18_Manager_operation
FN:268,_ZNSt17_Function_handlerIFiP11HttpRequestP12HttpResponseEZ4mainEUlS1_S3_E19_E10_M_managerERSt9_Any_dataRKS7_St18_Manager_operation
FNDA:8,_ZNSt17_Function_handlerIFiP11HttpRequestP12HttpResponseEZ4mainEUlS1_S3_E19_E10_M_managerERSt9_Any_dataRKS7_St18_Manager_operation
FN:268,_ZNSt17_Function_handlerIFiP11HttpRequestP12HttpResponseEZ4mainEUlS1_S3_E76_E10_M_managerERSt9_Any_dataRKS7_St18_Manager_operation
FNDA:8,_ZNSt17_Function_handlerIFiP11HttpRequestP12HttpResponseEZ4mainEUlS1_S3_E76_E10_M_managerERSt9_Any_dataRKS7_St18_Manager_operation
FN:268,_ZNSt17_Function_handlerIFiP11HttpRequestP12HttpResponseEZ4mainEUlS1_S3_E5_E10_M_managerERSt9_Any_dataRKS7_St18_Manager_operation
FNDA:8,_ZNSt17_Function_handlerIFiP11HttpRequestP12HttpResponseEZ4mainEUlS1_S3_E5_E10_M_managerERSt9_Any_dataRKS7_St18_Manager_operation
FN:268,_ZNSt17_Function_handlerIFiP11HttpRequestP12HttpResponseEZ4mainEUlS1_S3_E25_E10_M_managerERSt9_Any_dataRKS7_St18_Manager_operation
FNDA:8,_ZNSt17_Function_handlerIFiP11HttpRequestP12HttpResponseEZ4mainEUlS1_S3_E25_E10_M_managerERSt9_Any_dataRKS7_St18_Manager_operation
FN:268,_ZNSt17_Function_handlerIFiP11HttpRequestP12HttpResponseEZ4mainEUlS1_S3_E48_E10_M_managerERSt9_Any_dataRKS7_St18_Manager_operation
FNDA:8,_ZNSt17_Function_handlerIFiP11HttpRequestP12HttpResponseEZ4mainEUlS1_S3_E48_E10_M_managerERSt9_Any_dataRKS7_St18_Manager_operation
FN:268,_ZNSt17_Function_handlerIFiP11HttpRequestP12HttpResponseEZ4mainEUlS1_S3_E26_E10_M_managerERSt9_Any_dataRKS7_St18_Manager_operation
FNDA:8,_ZNSt17_Function_handlerIFiP11HttpRequestP12HttpResponseEZ4mainEUlS1_S3_E26_E10_M_managerERSt9_Any_dataRKS7_St18_Manager_operation
FN:268,_ZNSt17_Function_handlerIFiP11HttpRequestP12HttpResponseEZ4mainEUlS1_S3_E66_E10_M_managerERSt9_Any_dataRKS7_St18_Manager_operation
FNDA:8,_ZNSt17_Function_handlerIFiP11HttpRequestP12HttpResponseEZ4mainEUlS1_S3_E66_E10_M_managerERSt9_Any_dataRKS7_St18_Manager_operation
FN:268,_ZNSt17_Function_handlerIFiP11HttpRequestP12HttpResponseEZ4mainEUlS1_S3_E77_E10_M_managerERSt9_Any_dataRKS7_St18_Manager_operation
FNDA:8,_ZNSt17_Function_handlerIFiP11HttpRequestP12HttpResponseEZ4mainEUlS1_S3_E77_E10_M_managerERSt9_Any_dataRKS7_St18_Manager_operation
FN:268,_ZNSt17_Function_handlerIFiP11HttpRequestP12HttpResponseEZ4mainEUlS1_S3_E4_E10_M_managerERSt9_Any_dataRKS7_St18_Manager_operation
FNDA:8,_ZNSt17_Function_handlerIFiP11HttpRequestP12HttpResponseEZ4mainEUlS1_S3_E4_E10_M_managerERSt9_Any_dataRKS7_St18_Manager_operation
FN:268,_ZNSt17_Function_handlerIFiP11HttpRequestP12HttpResponseEZ4mainEUlS1_S3_E27_E10_M_managerERSt9_Any_dataRKS7_St18_Manager_operation
FNDA:8,_ZNSt17_Function_handlerIFiP11HttpRequestP12HttpResponseEZ4mainEUlS1_S3_E27_E10_M_managerERSt9_Any_dataRKS7_St18_Manager_operation
FN:268,_ZNSt17_Function_handlerIFiP11HttpRequestP12HttpResponseEZ4mainEUlS1_S3_E47_E10_M_managerERSt9_Any_dataRKS7_St18_Manager_operation
FNDA:6,_ZNSt17_Function_handlerIFiP11HttpRequestP12HttpResponseEZ4mainEUlS1_S3_E47_E10_M_managerERSt9_Any_dataRKS7_St18_Manager_operation
FN:268,_ZNSt17_Function_handlerIFiP11HttpRequestP12HttpResponseEZ4mainEUlS1_S3_E16_E10_M_managerERSt9_Any_dataRKS7_St18_Manager_operation
FNDA:8,_ZNSt17_Function_handlerIFiP11HttpRequestP12HttpResponseEZ4mainEUlS1_S3_E16_E10_M_managerERSt9_Any_dataRKS7_St18_Manager_operation
FN:268,_ZNSt17_Function_handlerIFiP11HttpRequestP12HttpResponseEZ4mainEUlS1_S3_E12_E10_M_managerERSt9_Any_dataRKS7_St18_Manager_operation
FNDA:8,_ZNSt17_Function_handlerIFiP11HttpRequestP12HttpResponseEZ4mainEUlS1_S3_E12_E10_M_managerERSt9_Any_dataRKS7_St18_Manager_operation
FN:268,_ZNSt17_Function_handlerIFiP11HttpRequestP12HttpResponseEZ4mainEUlS1_S3_E70_E10_M_managerERSt9_Any_dataRKS7_St18_Manager_operation
FNDA:8,_ZNSt17_Function_handlerIFiP11HttpRequestP12HttpResponseEZ4mainEUlS1_S3_E70_E10_M_managerERSt9_Any_dataRKS7_St18_Manager_operation
FN:268,_ZNSt17_Function_handlerIFiP11HttpRequestP12HttpResponseEZ4mainEUlS1_S3_E55_E10_M_managerERSt9_Any_dataRKS7_St18_Manager_operation
FNDA:8,_ZNSt17_Function_handlerIFiP11HttpRequestP12HttpResponseEZ4mainEUlS1_S3_E55_E10_M_managerERSt9_Any_dataRKS7_St18_Manager_operation
FN:268,_ZNSt17_Function_handlerIFiP11HttpRequestP12HttpResponseEZ4mainEUlS1_S3_E11_E10_M_managerERSt9_Any_dataRKS7_St18_Manager_operation
FNDA:8,_ZNSt17_Function_handlerIFiP11HttpRequestP12HttpResponseEZ4mainEUlS1_S3_E11_E10_M_managerERSt9_Any_dataRKS7_St18_Manager_operation
FN:268,_ZNSt17_Function_handlerIFiP11HttpRequestP12HttpResponseEZ4mainEUlS1_S3_E13_E10_M_managerERSt9_Any_dataRKS7_St18_Manager_operation
FNDA:8,_ZNSt17_Function_handlerIFiP11HttpRequestP12HttpResponseEZ4mainEUlS1_S3_E13_E10_M_managerERSt9_Any_dataRKS7_St18_Manager_operation
FN:268,_ZNSt17_Function_handlerIFiP11HttpRequestP12HttpResponseEZ4mainEUlS1_S3_E54_E10_M_managerERSt9_Any_dataRKS7_St18_Manager_operation
FNDA:8,_ZNSt17_Function_handlerIFiP11HttpRequestP12HttpResponseEZ4mainEUlS1_S3_E54_E10_M_managerERSt9_Any_dataRKS7_St18_Manager_operation
FN:268,_ZNSt17_Function_handlerIFiP11HttpRequestP12HttpResponseEZ4mainEUlS1_S3_E14_E10_M_managerERSt9_Any_dataRKS7_St18_Manager_operation
FNDA:8,_ZNSt17_Function_handlerIFiP11HttpRequestP12HttpResponseEZ4mainEUlS1_S3_E14_E10_M_managerERSt9_Any_dataRKS7_St18_Manager_operation
FN:268,_ZNSt17_Function_handlerIFiP11HttpRequestP12HttpResponseEZ4mainEUlS1_S3_E71_E10_M_managerERSt9_Any_dataRKS7_St18_Manager_operation
FNDA:8,_ZNSt17_Function_handlerIFiP11HttpRequestP12HttpResponseEZ4mainEUlS1_S3_E71_E10_M_managerERSt9_Any_dataRKS7_St18_Manager_operation
FN:268,_ZNSt17_Function_handlerIFiP11HttpRequestP12HttpResponseEZ4mainEUlS1_S3_E69_E10_M_managerERSt9_Any_dataRKS7_St18_Manager_operation
FNDA:8,_ZNSt17_Function_handlerIFiP11HttpRequestP12HttpResponseEZ4mainEUlS1_S3_E69_E10_M_managerERSt9_Any_dataRKS7_St18_Manager_operation
FN:268,_ZNSt17_Function_handlerIFiP11HttpRequestP12HttpResponseEZ4mainEUlS1_S3_E10_E10_M_managerERSt9_Any_dataRKS7_St18_Manager_operation
FNDA:8,_ZNSt17_Function_handlerIFiP11HttpRequestP12HttpResponseEZ4mainEUlS1_S3_E10_E10_M_managerERSt9_Any_dataRKS7_St18_Manager_operation
FN:268,_ZNSt17_Function_handlerIFiP11HttpRequestP12HttpResponseEZ4mainEUlS1_S3_E15_E10_M_managerERSt9_Any_dataRKS7_St18_Manager_operation
FNDA:9,_ZNSt17_Function_handlerIFiP11HttpRequestP12HttpResponseEZ4mainEUlS1_S3_E15_E10_M_managerERSt9_Any_dataRKS7_St18_Manager_operation
FN:268,_ZNSt17_Function_handlerIFiP11HttpRequestP12HttpResponseEZ4mainEUlS1_S3_E53_E10_M_managerERSt9_Any_dataRKS7_St18_Manager_operation
FNDA:8,_ZNSt17_Function_handlerIFiP11HttpRequestP12HttpResponseEZ4mainEUlS1_S3_E53_E10_M_managerERSt9_Any_dataRKS7_St18_Manager_operation
FN:268,_ZNSt17_Function_handlerIFiP11HttpRequestP12HttpResponseEZ4mainEUlS1_S3_E41_E10_M_managerERSt9_Any_dataRKS7_St18_Manager_operation
FNDA:8,_ZNSt17_Function_handlerIFiP11HttpRequestP12HttpResponseEZ4mainEUlS1_S3_E41_E10_M_managerERSt9_Any_dataRKS7_St18_Manager_operation
FN:268,_ZNSt17_Function_handlerIFiP11HttpRequestP12HttpResponseEZ4mainEUlS1_S3_E72_E10_M_managerERSt9_Any_dataRKS7_St18_Manager_operation
FNDA:8,_ZNSt17_Function_handlerIFiP11HttpRequestP12HttpResponseEZ4mainEUlS1_S3_E72_E10_M_managerERSt9_Any_dataRKS7_St18_Manager_operation
FN:268,_ZNSt17_Function_handlerIFiP11HttpRequestP12HttpResponseEZ4mainEUlS1_S3_E56_E10_M_managerERSt9_Any_dataRKS7_St18_Manager_operation
FNDA:8,_ZNSt17_Function_handlerIFiP11HttpRequestP12HttpResponseEZ4mainEUlS1_S3_E56_E10_M_managerERSt9_Any_dataRKS7_St18_Manager_operation
FN:268,_ZNSt17_Function_handlerIFiP11HttpRequestP12HttpResponseEZ4mainEUlS1_S3_E9_E10_M_managerERSt9_Any_dataRKS7_St18_Manager_operation
FNDA:8,_ZNSt17_Function_handlerIFiP11HttpRequestP12HttpResponseEZ4mainEUlS1_S3_E9_E10_M_managerERSt9_Any_dataRKS7_St18_Manager_operation
FN:268,_ZNSt17_Function_handlerIFiP11HttpRequestP12HttpResponseEZ4mainEUlS1_S3_E17_E10_M_managerERSt9_Any_dataRKS7_St18_Manager_operation
FNDA:8,_ZNSt17_Function_handlerIFiP11HttpRequestP12HttpResponseEZ4mainEUlS1_S3_E17_E10_M_managerERSt9_Any_dataRKS7_St18_Manager_operation
FN:268,_ZNSt17_Function_handlerIFiP11HttpRequestP12HttpResponseEZ4mainEUlS1_S3_E52_E10_M_managerERSt9_Any_dataRKS7_St18_Manager_operation
FNDA:8,_ZNSt17_Function_handlerIFiP11HttpRequestP12HttpResponseEZ4mainEUlS1_S3_E52_E10_M_managerERSt9_Any_dataRKS7_St18_Manager_operation
FN:268,_ZNSt17_Function_handlerIFiP11HttpRequestP12HttpResponseEZ4mainEUlS1_S3_E18_E10_M_managerERSt9_Any_dataRKS7_St18_Manager_operation
FNDA:8,_ZNSt17_Function_handlerIFiP11HttpRequestP12HttpResponseEZ4mainEUlS1_S3_E18_E10_M_managerERSt9_Any_dataRKS7_St18_Manager_operation
FN:268,_ZNSt17_Function_handlerIFiP11HttpRequestP12HttpResponseEZ4mainEUlS1_S3_E68_E10_M_managerERSt9_Any_dataRKS7_St18_Manager_operation
FNDA:8,_ZNSt17_Function_handlerIFiP11HttpRequestP12HttpResponseEZ4mainEUlS1_S3_E68_E10_M_managerERSt9_Any_dataRKS7_St18_Manager_operation
FN:268,_ZNSt17_Function_handlerIFiP11HttpRequestP12HttpResponseEZ4mainEUlS1_S3_E73_E10_M_managerERSt9_Any_dataRKS7_St18_Manager_operation
FNDA:8,_ZNSt17_Function_handlerIFiP11HttpRequestP12HttpResponseEZ4mainEUlS1_S3_E73_E10_M_managerERSt9_Any_dataRKS7_St18_Manager_operation
FN:268,_ZNSt17_Function_handlerIFiP11HttpRequestP12HttpResponseEZ4mainEUlS1_S3_E8_E10_M_managerERSt9_Any_dataRKS7_St18_Manager_operation
FNDA:8,_ZNSt17_Function_handlerIFiP11HttpRequestP12HttpResponseEZ4mainEUlS1_S3_E8_E10_M_managerERSt9_Any_dataRKS7_St18_Manager_operation
FN:268,_ZNSt17_Function_handlerIFiP11HttpRequestP12HttpResponseEZ4mainEUlS1_S3_E62_E10_M_managerERSt9_Any_dataRKS7_St18_Manager_operation
FNDA:8,_ZNSt17_Function_handlerIFiP11HttpRequestP12HttpResponseEZ4mainEUlS1_S3_E62_E10_M_managerERSt9_Any_dataRKS7_St18_Manager_operation
FN:268,_ZNSt17_Function_handlerIFiP11HttpRequestP12HttpResponseEZ4mainEUlS1_S3_E51_E10_M_managerERSt9_Any_dataRKS7_St18_Manager_operation
FNDA:8,_ZNSt17_Function_handlerIFiP11HttpRequestP12HttpResponseEZ4mainEUlS1_S3_E51_E10_M_managerERSt9_Any_dataRKS7_St18_Manager_operation
FN:268,_ZNSt17_Function_handlerIFiP11HttpRequestP12HttpResponseEZ4mainEUlS1_S3_E61_E10_M_managerERSt9_Any_dataRKS7_St18_Manager_operation
FNDA:8,_ZNSt17_Function_handlerIFiP11HttpRequestP12HttpResponseEZ4mainEUlS1_S3_E61_E10_M_managerERSt9_Any_dataRKS7_St18_Manager_operation
FN:268,_ZNSt17_Function_handlerIFiP11HttpRequestP12HttpResponseEZ4mainEUlS1_S3_E80_E10_M_managerERSt9_Any_dataRKS7_St18_Manager_operation
FNDA:8,_ZNSt17_Function_handlerIFiP11HttpRequestP12HttpResponseEZ4mainEUlS1_S3_E80_E10_M_managerERSt9_Any_dataRKS7_St18_Manager_operation
FN:268,_ZNSt17_Function_handlerIFiP11HttpRequestP12HttpResponseEZ4mainEUlS1_S3_E1_E10_M_managerERSt9_Any_dataRKS7_St18_Manager_operation
FNDA:8,_ZNSt17_Function_handlerIFiP11HttpRequestP12HttpResponseEZ4mainEUlS1_S3_E1_E10_M_managerERSt9_Any_dataRKS7_St18_Manager_operation
FN:268,_ZNSt17_Function_handlerIFiP11HttpRequestP12HttpResponseEZ4mainEUlS1_S3_E33_E10_M_managerERSt9_Any_dataRKS7_St18_Manager_operation
FNDA:8,_ZNSt17_Function_handlerIFiP11HttpRequestP12HttpResponseEZ4mainEUlS1_S3_E33_E10_M_managerERSt9_Any_dataRKS7_St18_Manager_operation
FN:268,_ZNSt17_Function_handlerIFiP11HttpRequestP12HttpResponseEZ4mainEUlS1_S3_E44_E10_M_managerERSt9_Any_dataRKS7_St18_Manager_operation
FNDA:8,_ZNSt17_Function_handlerIFiP11HttpRequestP12HttpResponseEZ4mainEUlS1_S3_E44_E10_M_managerERSt9_Any_dataRKS7_St18_Manager_operation
FN:268,_ZNSt17_Function_handlerIFiP11HttpRequestP12HttpResponseEZ4mainEUlS1_S3_E34_E10_M_managerERSt9_Any_dataRKS7_St18_Manager_operation
FNDA:8,_ZNSt17_Function_handlerIFiP11HttpRequestP12HttpResponseEZ4mainEUlS1_S3_E34_E10_M_managerERSt9_Any_dataRKS7_St18_Manager_operation
FN:268,_ZNSt17_Function_handlerIFiP11HttpRequestP12HttpResponseEZ4mainEUlS1_S3_E64_E10_M_managerERSt9_Any_dataRKS7_St18_Manager_operation
FNDA:8,_ZNSt17_Function_handlerIFiP11HttpRequestP12HttpResponseEZ4mainEUlS1_S3_E64_E10_M_managerERSt9_Any_dataRKS7_St18_Manager_operation
FN:268,_ZNSt17_Function_handlerIFiP11HttpRequestP12HttpResponseEZ4mainEUlS1_S3_E81_E10_M_managerERSt9_Any_dataRKS7_St18_Manager_operation
FNDA:8,_ZNSt17_Function_handlerIFiP11HttpRequestP12HttpResponseEZ4mainEUlS1_S3_E81_E10_M_managerERSt9_Any_dataRKS7_St18_Manager_operation
FN:268,_ZNSt17_Function_handlerIFiP11HttpRequestP12HttpResponseEZ4mainEUlS1_S3_E0_E10_M_managerERSt9_Any_dataRKS7_St18_Manager_operation
FNDA:8,_ZNSt17_Function_handlerIFiP11HttpRequestP12HttpResponseEZ4mainEUlS1_S3_E0_E10_M_managerERSt9_Any_dataRKS7_St18_Manager_operation
FN:268,_ZNSt17_Function_handlerIFiP11HttpRequestP12HttpResponseEZ4mainEUlS1_S3_E35_E10_M_managerERSt9_Any_dataRKS7_St18_Manager_operation
FNDA:8,_ZNSt17_Function_handlerIFiP11HttpRequestP12HttpResponseEZ4mainEUlS1_S3_E35_E10_M_managerERSt9_Any_dataRKS7_St18_Manager_operation
FN:268,_ZNSt17_Function_handlerIFiP11HttpRequestP12HttpResponseEZ4mainEUlS1_S3_E43_E10_M_managerERSt9_Any_dataRKS7_St18_Manager_operation
FNDA:8,_ZNSt17_Function_handlerIFiP11HttpRequestP12HttpResponseEZ4mainEUlS1_S3_E43_E10_M_managerERSt9_Any_dataRKS7_St18_Manager_operation
FN:268,_ZNSt17_Function_handlerIFiP11HttpRequestP12HttpResponseEZ4mainEUlS1_S3_E36_E10_M_managerERSt9_Any_dataRKS7_St18_Manager_operation
FNDA:8,_ZNSt17_Function_handlerIFiP11HttpRequestP12HttpResponseEZ4mainEUlS1_S3_E36_E10_M_managerERSt9_Any_dataRKS7_St18_Manager_operation
FN:268,_ZNSt17_Function_handlerIFiP11HttpRequestP12HttpResponseEZ4mainEUlS1_S3_E28_E10_M_managerERSt9_Any_dataRKS7_St18_Manager_operation
FNDA:6,_ZNSt17_Function_handlerIFiP11HttpRequestP12HttpResponseEZ4mainEUlS1_S3_E28_E10_M_managerERSt9_Any_dataRKS7_St18_Manager_operation
FN:268,_ZNSt17_Function_handlerIFiP11HttpRequestP12HttpResponseEZ4mainEUlS1_S3_E82_E10_M_managerERSt9_Any_dataRKS7_St18_Manager_operation
FNDA:8,_ZNSt17_Function_handlerIFiP11HttpRequestP12HttpResponseEZ4mainEUlS1_S3_E82_E10_M_managerERSt9_Any_dataRKS7_St18_Manager_operation
FN:268,_ZNSt17_Function_handlerIFiP11HttpRequestP12HttpResponseEZ4mainEUlS1_S3_E_E10_M_managerERSt9_Any_dataRKS7_St18_Manager_operation
FNDA:8,_ZNSt17_Function_handlerIFiP11HttpRequestP12HttpResponseEZ4mainEUlS1_S3_E_E10_M_managerERSt9_Any_dataRKS7_St18_Manager_operation
FN:268,_ZNSt17_Function_handlerIFiP11HttpRequestP12HttpResponseEZ4mainEUlS1_S3_E37_E10_M_managerERSt9_Any_dataRKS7_St18_Manager_operation
FNDA:9,_ZNSt17_Function_handlerIFiP11HttpRequestP12HttpResponseEZ4mainEUlS1_S3_E37_E10_M_managerERSt9_Any_dataRKS7_St18_Manager_operation
FN:268,_ZNSt17_Function_handlerIFiP11HttpRequestP12HttpResponseEZ4mainEUlS1_S3_E42_E10_M_managerERSt9_Any_dataRKS7_St18_Manager_operation
FNDA:8,_ZNSt17_Function_handlerIFiP11HttpRequestP12HttpResponseEZ4mainEUlS1_S3_E42_E10_M_managerERSt9_Any_dataRKS7_St18_Manager_operation
FN:268,_ZNSt17_Function_handlerIFiP11HttpRequestP12HttpResponseEZ4mainEUlS1_S3_E38_E10_M_managerERSt9_Any_dataRKS7_St18_Manager_operation
FNDA:8,_ZNSt17_Function_handlerIFiP11HttpRequestP12HttpResponseEZ4mainEUlS1_S3_E38_E10_M_managerERSt9_Any_dataRKS7_St18_Manager_operation
FN:268,_ZNSt17_Function_handlerIFiP11HttpRequestP12HttpResponseEZ4mainEUlS1_S3_E63_E10_M_managerERSt9_Any_dataRKS7_St18_Manager_operation
FNDA:8,_ZNSt17_Function_handlerIFiP11HttpRequestP12HttpResponseEZ4mainEUlS1_S3_E63_E10_M_managerERSt9_Any_dataRKS7_St18_Manager_operation
FN:268,_ZNSt17_Function_handlerIFiP11HttpRequestP12HttpResponseEZ4mainEUlS1_S3_E83_E10_M_managerERSt9_Any_dataRKS7_St18_Manager_operation
FNDA:8,_ZNSt17_Function_handlerIFiP11HttpRequestP12HttpResponseEZ4mainEUlS1_S3_E83_E10_M_managerERSt9_Any_dataRKS7_St18_Manager_operation
FN:268,_ZNSt17_Function_handlerIFiP11HttpRequestP12HttpResponseEZ4mainEUlS1_S3_E39_E10_M_managerERSt9_Any_dataRKS7_St18_Manager_operation
FNDA:8,_ZNSt17_Function_handlerIFiP11HttpRequestP12HttpResponseEZ4mainEUlS1_S3_E39_E10_M_managerERSt9_Any_dataRKS7_St18_Manager_operation
FN:268,_ZNSt17_Function_handlerIFiP11HttpRequestP12HttpResponseEZ4mainEUlS1_S3_E85_E10_M_managerERSt9_Any_dataRKS7_St18_Manager_operation
FNDA:8,_ZNSt17_Function_handlerIFiP11HttpRequestP12HttpResponseEZ4mainEUlS1_S3_E85_E10_M_managerERSt9_Any_dataRKS7_St18_Manager_operation
FN:268,_ZNSt17_Function_handlerIFiP11HttpRequestP12HttpResponseEZ4mainEUlS1_S3_E40_E10_M_managerERSt9_Any_dataRKS7_St18_Manager_operation
FNDA:8,_ZNSt17_Function_handlerIFiP11HttpRequestP12HttpResponseEZ4mainEUlS1_S3_E40_E10_M_managerERSt9_Any_dataRKS7_St18_Manager_operation
FN:268,_ZNSt17_Function_handlerIFiP11HttpRequestP12HttpResponseEZ4mainEUlS1_S3_E84_E10_M_managerERSt9_Any_dataRKS7_St18_Manager_operation
FNDA:8,_ZNSt17_Function_handlerIFiP11HttpRequestP12HttpResponseEZ4mainEUlS1_S3_E84_E10_M_managerERSt9_Any_dataRKS7_St18_Manager_operation
FN:268,_ZNSt17_Function_handlerIFiP11HttpRequestP12HttpResponseEZ4mainEUlS1_S3_E60_E10_M_managerERSt9_Any_dataRKS7_St18_Manager_operation
FNDA:8,_ZNSt17_Function_handlerIFiP11HttpRequestP12HttpResponseEZ4mainEUlS1_S3_E60_E10_M_managerERSt9_Any_dataRKS7_St18_Manager_operation
FN:268,_ZNSt17_Function_handlerIFiP11HttpRequestP12HttpResponseEZ4mainEUlS1_S3_E59_E10_M_managerERSt9_Any_dataRKS7_St18_Manager_operation
FNDA:8,_ZNSt17_Function_handlerIFiP11HttpRequestP12HttpResponseEZ4mainEUlS1_S3_E59_E10_M_managerERSt9_Any_dataRKS7_St18_Manager_operation
FN:268,_ZNSt17_Function_handlerIFiP11HttpRequestP12HttpResponseEZ4mainEUlS1_S3_E78_E10_M_managerERSt9_Any_dataRKS7_St18_Manager_operation
FNDA:8,_ZNSt17_Function_handlerIFiP11HttpRequestP12HttpResponseEZ4mainEUlS1_S3_E78_E10_M_managerERSt9_Any_dataRKS7_St18_Manager_operation
FN:268,_ZNSt17_Function_handlerIFiP11HttpRequestP12HttpResponseEZ4mainEUlS1_S3_E3_E10_M_managerERSt9_Any_dataRKS7_St18_Manager_operation
FNDA:8,_ZNSt17_Function_handlerIFiP11HttpRequestP12HttpResponseEZ4mainEUlS1_S3_E3_E10_M_managerERSt9_Any_dataRKS7_St18_Manager_operation
FN:268,_ZNSt17_Function_handlerIFiP11HttpRequestP12HttpResponseEZ4mainEUlS1_S3_E29_E10_M_managerERSt9_Any_dataRKS7_St18_Manager_operation
FNDA:8,_ZNSt17_Function_handlerIFiP11HttpRequestP12HttpResponseEZ4mainEUlS1_S3_E29_E10_M_managerERSt9_Any_dataRKS7_St18_Manager_operation
FN:268,_ZNSt17_Function_handlerIFiP11HttpRequestP12HttpResponseEZ4mainEUlS1_S3_E46_E10_M_managerERSt9_Any_dataRKS7_St18_Manager_operation
FNDA:8,_ZNSt17_Function_handlerIFiP11HttpRequestP12HttpResponseEZ4mainEUlS1_S3_E46_E10_M_managerERSt9_Any_dataRKS7_St18_Manager_operation
FN:268,_ZNSt17_Function_handlerIFiP11HttpRequestP12HttpResponseEZ4mainEUlS1_S3_E30_E10_M_managerERSt9_Any_dataRKS7_St18_Manager_operation
FNDA:8,_ZNSt17_Function_handlerIFiP11HttpRequestP12HttpResponseEZ4mainEUlS1_S3_E30_E10_M_managerERSt9_Any_dataRKS7_St18_Manager_operation
FN:268,_ZNSt17_Function_handlerIFiP11HttpRequestP12HttpResponseEZ4mainEUlS1_S3_E65_E10_M_managerERSt9_Any_dataRKS7_St18_Manager_operation
FNDA:8,_ZNSt17_Function_handlerIFiP11HttpRequestP12HttpResponseEZ4mainEUlS1_S3_E65_E10_M_managerERSt9_Any_dataRKS7_St18_Manager_operation
FN:268,_ZNSt17_Function_handlerIFiP11HttpRequestP12HttpResponseEZ4mainEUlS1_S3_E79_E10_M_managerERSt9_Any_dataRKS7_St18_Manager_operation
FNDA:8,_ZNSt17_Function_handlerIFiP11HttpRequestP12HttpResponseEZ4mainEUlS1_S3_E79_E10_M_managerERSt9_Any_dataRKS7_St18_Manager_operation
FN:268,_ZNSt17_Function_handlerIFiP11HttpRequestP12HttpResponseEZ4mainEUlS1_S3_E2_E10_M_managerERSt9_Any_dataRKS7_St18_Manager_operation
FNDA:8,_ZNSt17_Function_handlerIFiP11HttpRequestP12HttpResponseEZ4mainEUlS1_S3_E2_E10_M_managerERSt9_Any_dataRKS7_St18_Manager_operation
FN:268,_ZNSt17_Function_handlerIFiP11HttpRequestP12HttpResponseEZ4mainEUlS1_S3_E31_E10_M_managerERSt9_Any_dataRKS7_St18_Manager_operation
FNDA:8,_ZNSt17_Function_handlerIFiP11HttpRequestP12HttpResponseEZ4mainEUlS1_S3_E31_E10_M_managerERSt9_Any_dataRKS7_St18_Manager_operation
FN:268,_ZNSt17_Function_handlerIFiP11HttpRequestP12HttpResponseEZ4mainEUlS1_S3_E45_E10_M_managerERSt9_Any_dataRKS7_St18_Manager_operation
FNDA:8,_ZNSt17_Function_handlerIFiP11HttpRequestP12HttpResponseEZ4mainEUlS1_S3_E45_E10_M_managerERSt9_Any_dataRKS7_St18_Manager_operation
FN:268,_ZNSt17_Function_handlerIFiP11HttpRequestP12HttpResponseEZ4mainEUlS1_S3_E32_E10_M_managerERSt9_Any_dataRKS7_St18_Manager_operation
FNDA:8,_ZNSt17_Function_handlerIFiP11HttpRequestP12HttpResponseEZ4mainEUlS1_S3_E32_E10_M_managerERSt9_Any_dataRKS7_St18_Manager_operation
FN:289,_ZNSt17_Function_handlerIFiP11HttpRequestP12HttpResponseEZ4mainEUlS1_S3_E_E9_M_invokeERKSt9_Any_dataOS1_OS3_
FNDA:0,_ZNSt17_Function_handlerIFiP11HttpRequestP12HttpResponseEZ4mainEUlS1_S3_E_E9_M_invokeERKSt9_Any_dataOS1_OS3_
FN:289,_ZNSt17_Function_handlerIFiP11HttpRequestP12HttpResponseEZ4mainEUlS1_S3_E55_E9_M_invokeERKSt9_Any_dataOS1_OS3_
FNDA:0,_ZNSt17_Function_handlerIFiP11HttpRequestP12HttpResponseEZ4mainEUlS1_S3_E55_E9_M_invokeERKSt9_Any_dataOS1_OS3_
FN:289,_ZNSt17_Function_handlerIFiP11HttpRequestP12HttpResponseEZ4mainEUlS1_S3_E57_E9_M_invokeERKSt9_Any_dataOS1_OS3_
FNDA:0,_ZNSt17_Function_handlerIFiP11HttpRequestP12HttpResponseEZ4mainEUlS1_S3_E57_E9_M_invokeERKSt9_Any_dataOS1_OS3_
FN:289,_ZNSt17_Function_handlerIFiP11HttpRequestP12HttpResponseEZ4mainEUlS1_S3_E59_E9_M_invokeERKSt9_Any_dataOS1_OS3_
FNDA:0,_ZNSt17_Function_handlerIFiP11HttpRequestP12HttpResponseEZ4mainEUlS1_S3_E59_E9_M_invokeERKSt9_Any_dataOS1_OS3_
FN:289,_ZNSt17_Function_handlerIFiP11HttpRequestP12HttpResponseEZ4mainEUlS1_S3_E62_E9_M_invokeERKSt9_Any_dataOS1_OS3_
FNDA:0,_ZNSt17_Function_handlerIFiP11HttpRequestP12HttpResponseEZ4mainEUlS1_S3_E62_E9_M_invokeERKSt9_Any_dataOS1_OS3_
FN:289,_ZNSt17_Function_handlerIFiP11HttpRequestP12HttpResponseEZ4mainEUlS1_S3_E4_E9_M_invokeERKSt9_Any_dataOS1_OS3_
FNDA:0,_ZNSt17_Function_handlerIFiP11HttpRequestP12HttpResponseEZ4mainEUlS1_S3_E4_E9_M_invokeERKSt9_Any_dataOS1_OS3_
FN:289,_ZNSt17_Function_handlerIFiP11HttpRequestP12HttpResponseEZ4mainEUlS1_S3_E68_E9_M_invokeERKSt9_Any_dataOS1_OS3_
FNDA:0,_ZNSt17_Function_handlerIFiP11HttpRequestP12HttpResponseEZ4mainEUlS1_S3_E68_E9_M_invokeERKSt9_Any_dataOS1_OS3_
FN:289,_ZNSt17_Function_handlerIFiP11HttpRequestP12HttpResponseEZ4mainEUlS1_S3_E7_E9_M_invokeERKSt9_Any_dataOS1_OS3_
FNDA:0,_ZNSt17_Function_handlerIFiP11HttpRequestP12HttpResponseEZ4mainEUlS1_S3_E7_E9_M_invokeERKSt9_Any_dataOS1_OS3_
FN:289,_ZNSt17_Function_handlerIFiP11HttpRequestP12HttpResponseEZ4mainEUlS1_S3_E11_E9_M_invokeERKSt9_Any_dataOS1_OS3_
FNDA:0,_ZNSt17_Function_handlerIFiP11HttpRequestP12HttpResponseEZ4mainEUlS1_S3_E11_E9_M_invokeERKSt9_Any_dataOS1_OS3_
FN:289,_ZNSt17_Function_handlerIFiP11HttpRequestP12HttpResponseEZ4mainEUlS1_S3_E70_E9_M_invokeERKSt9_Any_dataOS1_OS3_
FNDA:0,_ZNSt17_Function_handlerIFiP11HttpRequestP12HttpResponseEZ4mainEUlS1_S3_E70_E9_M_invokeERKSt9_Any_dataOS1_OS3_
FN:289,_ZNSt17_Function_handlerIFiP11HttpRequestP12HttpResponseEZ4mainEUlS1_S3_E60_E9_M_invokeERKSt9_Any_dataOS1_OS3_
FNDA:0,_ZNSt17_Function_handlerIFiP11HttpRequestP12HttpResponseEZ4mainEUlS1_S3_E60_E9_M_invokeERKSt9_Any_dataOS1_OS3_
FN:289,_ZNSt17_Function_handlerIFiP11HttpRequestP12HttpResponseEZ4mainEUlS1_S3_E3_E9_M_invokeERKSt9_Any_dataOS1_OS3_
FNDA:0,_ZNSt17_Function_handlerIFiP11HttpRequestP12HttpResponseEZ4mainEUlS1_S3_E3_E9_M_invokeERKSt9_Any_dataOS1_OS3_
FN:289,_ZNSt17_Function_handlerIFiP11HttpRequestP12HttpResponseEZ4mainEUlS1_S3_E64_E9_M_invokeERKSt9_Any_dataOS1_OS3_
FNDA:0,_ZNSt17_Function_handlerIFiP11HttpRequestP12HttpResponseEZ4mainEUlS1_S3_E64_E9_M_invokeERKSt9_Any_dataOS1_OS3_
FN:289,_ZNSt17_Function_handlerIFiP11HttpRequestP12HttpResponseEZ4mainEUlS1_S3_E67_E9_M_invokeERKSt9_Any_dataOS1_OS3_
FNDA:0,_ZNSt17_Function_handlerIFiP11HttpRequestP12HttpResponseEZ4mainEUlS1_S3_E67_E9_M_invokeERKSt9_Any_dataOS1_OS3_
FN:289,_ZNSt17_Function_handlerIFiP11HttpRequestP12HttpResponseEZ4mainEUlS1_S3_E8_E9_M_invokeERKSt9_Any_dataOS1_OS3_
FNDA:0,_ZNSt17_Function_handlerIFiP11HttpRequestP12HttpResponseEZ4mainEUlS1_S3_E8_E9_M_invokeERKSt9_Any_dataOS1_OS3_
FN:289,_ZNSt17_Function_handlerIFiP11HttpRequestP12HttpResponseEZ4mainEUlS1_S3_E10_E9_M_invokeERKSt9_Any_dataOS1_OS3_
FNDA:0,_ZNSt17_Function_handlerIFiP11HttpRequestP12HttpResponseEZ4mainEUlS1_S3_E10_E9_M_invokeERKSt9_Any_dataOS1_OS3_
FN:289,_ZNSt17_Function_handlerIFiP11HttpRequestP12HttpResponseEZ4mainEUlS1_S3_E56_E9_M_invokeERKSt9_Any_dataOS1_OS3_
FNDA:0,_ZNSt17_Function_handlerIFiP11HttpRequestP12HttpResponseEZ4mainEUlS1_S3_E56_E9_M_invokeERKSt9_Any_dataOS1_OS3_
FN:289,_ZNSt17_Function_handlerIFiP11HttpRequestP12HttpResponseEZ4mainEUlS1_S3_E1_E9_M_invokeERKSt9_Any_dataOS1_OS3_
FNDA:0,_ZNSt17_Function_handlerIFiP11HttpRequestP12HttpResponseEZ4mainEUlS1_S3_E1_E9_M_invokeERKSt9_Any_dataOS1_OS3_
FN:289,_ZNSt17_Function_handlerIFiP11HttpRequestP12HttpResponseEZ4mainEUlS1_S3_E5_E9_M_invokeERKSt9_Any_dataOS1_OS3_
FNDA:0,_ZNSt17_Function_handlerIFiP11HttpRequestP12HttpResponseEZ4mainEUlS1_S3_E5_E9_M_invokeERKSt9_Any_dataOS1_OS3_
FN:289,_ZNSt17_Function_handlerIFiP11HttpRequestP12HttpResponseEZ4mainEUlS1_S3_E66_E9_M_invokeERKSt9_Any_dataOS1_OS3_
FNDA:0,_ZNSt17_Function_handlerIFiP11HttpRequestP12HttpResponseEZ4mainEUlS1_S3_E66_E9_M_invokeERKSt9_Any_dataOS1_OS3_
FN:289,_ZNSt17_Function_handlerIFiP11HttpRequestP12HttpResponseEZ4mainEUlS1_S3_E65_E9_M_invokeERKSt9_Any_dataOS1_OS3_
FNDA:0,_ZNSt17_Function_handlerIFiP11HttpRequestP12HttpResponseEZ4mainEUlS1_S3_E65_E9_M_invokeERKSt9_Any_dataOS1_OS3_
FN:289,_ZNSt17_Function_handlerIFiP11HttpRequestP12HttpResponseEZ4mainEUlS1_S3_E61_E9_M_invokeERKSt9_Any_dataOS1_OS3_
FNDA:0,_ZNSt17_Function_handlerIFiP11HttpRequestP12HttpResponseEZ4mainEUlS1_S3_E61_E9_M_invokeERKSt9_Any_dataOS1_OS3_
FN:289,_ZNSt17_Function_handlerIFiP11HttpRequestP12HttpResponseEZ4mainEUlS1_S3_E9_E9_M_invokeERKSt9_Any_dataOS1_OS3_
FNDA:0,_ZNSt17_Function_handlerIFiP11HttpRequestP12HttpResponseEZ4mainEUlS1_S3_E9_E9_M_invokeERKSt9_Any_dataOS1_OS3_
FN:289,_ZNSt17_Function_handlerIFiP11HttpRequestP12HttpResponseEZ4mainEUlS1_S3_E69_E9_M_invokeERKSt9_Any_dataOS1_OS3_
FNDA:0,_ZNSt17_Function_handlerIFiP11HttpRequestP12HttpResponseEZ4mainEUlS1_S3_E69_E9_M_invokeERKSt9_Any_dataOS1_OS3_
FN:289,_ZNSt17_Function_handlerIFiP11HttpRequestP12HttpResponseEZ4mainEUlS1_S3_E2_E9_M_invokeERKSt9_Any_dataOS1_OS3_
FNDA:0,_ZNSt17_Function_handlerIFiP11HttpRequestP12HttpResponseEZ4mainEUlS1_S3_E2_E9_M_invokeERKSt9_Any_dataOS1_OS3_
FN:289,_ZNSt17_Function_handlerIFiP11HttpRequestP12HttpResponseEZ4mainEUlS1_S3_E0_E9_M_invokeERKSt9_Any_dataOS1_OS3_
FNDA:0,_ZNSt17_Function_handlerIFiP11HttpRequestP12HttpResponseEZ4mainEUlS1_S3_E0_E9_M_invokeERKSt9_Any_dataOS1_OS3_
FN:289,_ZNSt17_Function_handlerIFiP11HttpRequestP12HttpResponseEZ4mainEUlS1_S3_E6_E9_M_invokeERKSt9_Any_dataOS1_OS3_
FNDA:0,_ZNSt17_Function_handlerIFiP11HttpRequestP12HttpResponseEZ4mainEUlS1_S3_E6_E9_M_invokeERKSt9_Any_dataOS1_OS3_
FN:289,_ZNSt17_Function_handlerIFiP11HttpRequestP12HttpResponseEZ4mainEUlS1_S3_E58_E9_M_invokeERKSt9_Any_dataOS1_OS3_
FNDA:0,_ZNSt17_Function_handlerIFiP11HttpRequestP12HttpResponseEZ4mainEUlS1_S3_E58_E9_M_invokeERKSt9_Any_dataOS1_OS3_
FN:289,_ZNSt17_Function_handlerIFiP11HttpRequestP12HttpResponseEZ4mainEUlS1_S3_E34_E9_M_invokeERKSt9_Any_dataOS1_OS3_
FNDA:0,_ZNSt17_Function_handlerIFiP11HttpRequestP12HttpResponseEZ4mainEUlS1_S3_E34_E9_M_invokeERKSt9_Any_dataOS1_OS3_
FN:289,_ZNSt17_Function_handlerIFiP11HttpRequestP12HttpResponseEZ4mainEUlS1_S3_E27_E9_M_invokeERKSt9_Any_dataOS1_OS3_
FNDA:0,_ZNSt17_Function_handlerIFiP11HttpRequestP12HttpResponseEZ4mainEUlS1_S3_E27_E9_M_invokeERKSt9_Any_dataOS1_OS3_
FN:289,_ZNSt17_Function_handlerIFiP11HttpRequestP12HttpResponseEZ4mainEUlS1_S3_E78_E9_M_invokeERKSt9_Any_dataOS1_OS3_
FNDA:0,_ZNSt17_Function_handlerIFiP11HttpRequestP12HttpResponseEZ4mainEUlS1_S3_E78_E9_M_invokeERKSt9_Any_dataOS1_OS3_
FN:289,_ZNSt17_Function_handlerIFiP11HttpRequestP12HttpResponseEZ4mainEUlS1_S3_E28_E9_M_invokeERKSt9_Any_dataOS1_OS3_
FNDA:0,_ZNSt17_Function_handlerIFiP11HttpRequestP12HttpResponseEZ4mainEUlS1_S3_E28_E9_M_invokeERKSt9_Any_dataOS1_OS3_
FN:289,_ZNSt17_Function_handlerIFiP11HttpRequestP12HttpResponseEZ4mainEUlS1_S3_E47_E9_M_invokeERKSt9_Any_dataOS1_OS3_
FNDA:0,_ZNSt17_Function_handlerIFiP11HttpRequestP12HttpResponseEZ4mainEUlS1_S3_E47_E9_M_invokeERKSt9_Any_dataOS1_OS3_
FN:289,_ZNSt17_Function_handlerIFiP11HttpRequestP12HttpResponseEZ4mainEUlS1_S3_E29_E9_M_invokeERKSt9_Any_dataOS1_OS3_
FNDA:0,_ZNSt17_Function_handlerIFiP11HttpRequestP12HttpResponseEZ4mainEUlS1_S3_E29_E9_M_invokeERKSt9_Any_dataOS1_OS3_
FN:289,_ZNSt17_Function_handlerIFiP11HttpRequestP12HttpResponseEZ4mainEUlS1_S3_E79_E9_M_invokeERKSt9_Any_dataOS1_OS3_
FNDA:0,_ZNSt17_Function_handlerIFiP11HttpRequestP12HttpResponseEZ4mainEUlS1_S3_E79_E9_M_invokeERKSt9_Any_dataOS1_OS3_
FN:289,_ZNSt17_Function_handlerIFiP11HttpRequestP12HttpResponseEZ4mainEUlS1_S3_E30_E9_M_invokeERKSt9_Any_dataOS1_OS3_
FNDA:0,_ZNSt17_Function_handlerIFiP11HttpRequestP12HttpResponseEZ4mainEUlS1_S3_E30_E9_M_invokeERKSt9_Any_dataOS1_OS3_
FN:289,_ZNSt17_Function_handlerIFiP11HttpRequestP12HttpResponseEZ4mainEUlS1_S3_E46_E9_M_invokeERKSt9_Any_dataOS1_OS3_
FNDA:0,_ZNSt17_Function_handlerIFiP11HttpRequestP12HttpResponseEZ4mainEUlS1_S3_E46_E9_M_invokeERKSt9_Any_dataOS1_OS3_
FN:289,_ZNSt17_Function_handlerIFiP11HttpRequestP12HttpResponseEZ4mainEUlS1_S3_E31_E9_M_invokeERKSt9_Any_dataOS1_OS3_
FNDA:0,_ZNSt17_Function_handlerIFiP11HttpRequestP12HttpResponseEZ4mainEUlS1_S3_E31_E9_M_invokeERKSt9_Any_dataOS1_OS3_
FN:289,_ZNSt17_Function_handlerIFiP11HttpRequestP12HttpResponseEZ4mainEUlS1_S3_E80_E9_M_invokeERKSt9_Any_dataOS1_OS3_
FNDA:0,_ZNSt17_Function_handlerIFiP11HttpRequestP12HttpResponseEZ4mainEUlS1_S3_E80_E9_M_invokeERKSt9_Any_dataOS1_OS3_
FN:289,_ZNSt17_Function_handlerIFiP11HttpRequestP12HttpResponseEZ4mainEUlS1_S3_E32_E9_M_invokeERKSt9_Any_dataOS1_OS3_
FNDA:0,_ZNSt17_Function_handlerIFiP11HttpRequestP12HttpResponseEZ4mainEUlS1_S3_E32_E9_M_invokeERKSt9_Any_dataOS1_OS3_
FN:289,_ZNSt17_Function_handlerIFiP11HttpRequestP12HttpResponseEZ4mainEUlS1_S3_E45_E9_M_invokeERKSt9_Any_dataOS1_OS3_
FNDA:0,_ZNSt17_Function_handlerIFiP11HttpRequestP12HttpResponseEZ4mainEUlS1_S3_E45_E9_M_invokeERKSt9_Any_dataOS1_OS3_
FN:289,_ZNSt17_Function_handlerIFiP11HttpRequestP12HttpResponseEZ4mainEUlS1_S3_E33_E9_M_invokeERKSt9_Any_dataOS1_OS3_
FNDA:0,_ZNSt17_Function_handlerIFiP11HttpRequestP12HttpResponseEZ4mainEUlS1_S3_E33_E9_M_invokeERKSt9_Any_dataOS1_OS3_
FN:289,_ZNSt17_Function_handlerIFiP11HttpRequestP12HttpResponseEZ4mainEUlS1_S3_E81_E9_M_invokeERKSt9_Any_dataOS1_OS3_
FNDA:0,_ZNSt17_Function_handlerIFiP11HttpRequestP12HttpResponseEZ4mainEUlS1_S3_E81_E9_M_invokeERKSt9_Any_dataOS1_OS3_
FN:289,_ZNSt17_Function_handlerIFiP11HttpRequestP12HttpResponseEZ4mainEUlS1_S3_E71_E9_M_invokeERKSt9_Any_dataOS1_OS3_
FNDA:0,_ZNSt17_Function_handlerIFiP11HttpRequestP12HttpResponseEZ4mainEUlS1_S3_E71_E9_M_invokeERKSt9_Any_dataOS1_OS3_
FN:289,_ZNSt17_Function_handlerIFiP11HttpRequestP12HttpResponseEZ4mainEUlS1_S3_E44_E9_M_invokeERKSt9_Any_dataOS1_OS3_
FNDA:0,_ZNSt17_Function_handlerIFiP11HttpRequestP12HttpResponseEZ4mainEUlS1_S3_E44_E9_M_invokeERKSt9_Any_dataOS1_OS3_
FN:289,_ZNSt17_Function_handlerIFiP11HttpRequestP12HttpResponseEZ4mainEUlS1_S3_E35_E9_M_invokeERKSt9_Any_dataOS1_OS3_
FNDA:0,_ZNSt17_Function_handlerIFiP11HttpRequestP12HttpResponseEZ4mainEUlS1_S3_E35_E9_M_invokeERKSt9_Any_dataOS1_OS3_
FN:289,_ZNSt17_Function_handlerIFiP11HttpRequestP12HttpResponseEZ4mainEUlS1_S3_E82_E9_M_invokeERKSt9_Any_dataOS1_OS3_
FNDA:0,_ZNSt17_Function_handlerIFiP11HttpRequestP12HttpResponseEZ4mainEUlS1_S3_E82_E9_M_invokeERKSt9_Any_dataOS1_OS3_
FN:289,_ZNSt17_Function_handlerIFiP11HttpRequestP12HttpResponseEZ4mainEUlS1_S3_E36_E9_M_invokeERKSt9_Any_dataOS1_OS3_
FNDA:0,_ZNSt17_Function_handlerIFiP11HttpRequestP12HttpResponseEZ4mainEUlS1_S3_E36_E9_M_invokeERKSt9_Any_dataOS1_OS3_
FN:289,_ZNSt17_Function_handlerIFiP11HttpRequestP12HttpResponseEZ4mainEUlS1_S3_E43_E9_M_invokeERKSt9_Any_dataOS1_OS3_
FNDA:0,_ZNSt17_Function_handlerIFiP11HttpRequestP12HttpResponseEZ4mainEUlS1_S3_E43_E9_M_invokeERKSt9_Any_dataOS1_OS3_
FN:289,_ZNSt17_Function_handlerIFiP11HttpRequestP12HttpResponseEZ4mainEUlS1_S3_E37_E9_M_invokeERKSt9_Any_dataOS1_OS3_
FNDA:0,_ZNSt17_Function_handlerIFiP11HttpRequestP12HttpResponseEZ4mainEUlS1_S3_E37_E9_M_invokeERKSt9_Any_dataOS1_OS3_
FN:289,_ZNSt17_Function_handlerIFiP11HttpRequestP12HttpResponseEZ4mainEUlS1_S3_E83_E9_M_invokeERKSt9_Any_dataOS1_OS3_
FNDA:0,_ZNSt17_Function_handlerIFiP11HttpRequestP12HttpResponseEZ4mainEUlS1_S3_E83_E9_M_invokeERKSt9_Any_dataOS1_OS3_
FN:289,_ZNSt17_Function_handlerIFiP11HttpRequestP12HttpResponseEZ4mainEUlS1_S3_E38_E9_M_invokeERKSt9_Any_dataOS1_OS3_
FNDA:0,_ZNSt17_Function_handlerIFiP11HttpRequestP12HttpResponseEZ4mainEUlS1_S3_E38_E9_M_invokeERKSt9_Any_dataOS1_OS3_
FN:289,_ZNSt17_Function_handlerIFiP11HttpRequestP12HttpResponseEZ4mainEUlS1_S3_E42_E9_M_invokeERKSt9_Any_dataOS1_OS3_
FNDA:0,_ZNSt17_Function_handlerIFiP11HttpRequestP12HttpResponseEZ4mainEUlS1_S3_E42_E9_M_invokeERKSt9_Any_dataOS1_OS3_
FN:289,_ZNSt17_Function_handlerIFiP11HttpRequestP12HttpResponseEZ4mainEUlS1_S3_E39_E9_M_invokeERKSt9_Any_dataOS1_OS3_
FNDA:0,_ZNSt17_Function_handlerIFiP11HttpRequestP12HttpResponseEZ4mainEUlS1_S3_E39_E9_M_invokeERKSt9_Any_dataOS1_OS3_
FN:289,_ZNSt17_Function_handlerIFiP11HttpRequestP12HttpResponseEZ4mainEUlS1_S3_E84_E9_M_invokeERKSt9_Any_dataOS1_OS3_
FNDA:0,_ZNSt17_Function_handlerIFiP11HttpRequestP12HttpResponseEZ4mainEUlS1_S3_E84_E9_M_invokeERKSt9_Any_dataOS1_OS3_
FN:289,_ZNSt17_Function_handlerIFiP11HttpRequestP12HttpResponseEZ4mainEUlS1_S3_E40_E9_M_invokeERKSt9_Any_dataOS1_OS3_
FNDA:0,_ZNSt17_Function_handlerIFiP11HttpRequestP12HttpResponseEZ4mainEUlS1_S3_E40_E9_M_invokeERKSt9_Any_dataOS1_OS3_
FN:289,_ZNSt17_Function_handlerIFiP11HttpRequestP12HttpResponseEZ4mainEUlS1_S3_E85_E9_M_invokeERKSt9_Any_dataOS1_OS3_
FNDA:0,_ZNSt17_Function_handlerIFiP11HttpRequestP12HttpResponseEZ4mainEUlS1_S3_E85_E9_M_invokeERKSt9_Any_dataOS1_OS3_
FN:289,_ZNSt17_Function_handlerIFiP11HttpRequestP12HttpResponseEZ4mainEUlS1_S3_E41_E9_M_invokeERKSt9_Any_dataOS1_OS3_
FNDA:0,_ZNSt17_Function_handlerIFiP11HttpRequestP12HttpResponseEZ4mainEUlS1_S3_E41_E9_M_invokeERKSt9_Any_dataOS1_OS3_
FN:289,_ZNSt17_Function_handlerIFiP11HttpRequestP12HttpResponseEZ4mainEUlS1_S3_E26_E9_M_invokeERKSt9_Any_dataOS1_OS3_
FNDA:0,_ZNSt17_Function_handlerIFiP11HttpRequestP12HttpResponseEZ4mainEUlS1_S3_E26_E9_M_invokeERKSt9_Any_dataOS1_OS3_
FN:289,_ZNSt17_Function_handlerIFiP11HttpRequestP12HttpResponseEZ4mainEUlS1_S3_E12_E9_M_invokeERKSt9_Any_dataOS1_OS3_
FNDA:0,_ZNSt17_Function_handlerIFiP11HttpRequestP12HttpResponseEZ4mainEUlS1_S3_E12_E9_M_invokeERKSt9_Any_dataOS1_OS3_
FN:289,_ZNSt17_Function_handlerIFiP11HttpRequestP12HttpResponseEZ4mainEUlS1_S3_E13_E9_M_invokeERKSt9_Any_dataOS1_OS3_
FNDA:0,_ZNSt17_Function_handlerIFiP11HttpRequestP12HttpResponseEZ4mainEUlS1_S3_E13_E9_M_invokeERKSt9_Any_dataOS1_OS3_
FN:289,_ZNSt17_Function_handlerIFiP11HttpRequestP12HttpResponseEZ4mainEUlS1_S3_E54_E9_M_invokeERKSt9_Any_dataOS1_OS3_
FNDA:0,_ZNSt17_Function_handlerIFiP11HttpRequestP12HttpResponseEZ4mainEUlS1_S3_E54_E9_M_invokeERKSt9_Any_dataOS1_OS3_
FN:289,_ZNSt17_Function_handlerIFiP11HttpRequestP12HttpResponseEZ4mainEUlS1_S3_E14_E9_M_invokeERKSt9_Any_dataOS1_OS3_
FNDA:0,_ZNSt17_Function_handlerIFiP11HttpRequestP12HttpResponseEZ4mainEUlS1_S3_E14_E9_M_invokeERKSt9_Any_dataOS1_OS3_
FN:289,_ZNSt17_Function_handlerIFiP11HttpRequestP12HttpResponseEZ4mainEUlS1_S3_E72_E9_M_invokeERKSt9_Any_dataOS1_OS3_
FNDA:0,_ZNSt17_Function_handlerIFiP11HttpRequestP12HttpResponseEZ4mainEUlS1_S3_E72_E9_M_invokeERKSt9_Any_dataOS1_OS3_
FN:289,_ZNSt17_Function_handlerIFiP11HttpRequestP12HttpResponseEZ4mainEUlS1_S3_E15_E9_M_invokeERKSt9_Any_dataOS1_OS3_
FNDA:0,_ZNSt17_Function_handlerIFiP11HttpRequestP12HttpResponseEZ4mainEUlS1_S3_E15_E9_M_invokeERKSt9_Any_dataOS1_OS3_
FN:289,_ZNSt17_Function_handlerIFiP11HttpRequestP12HttpResponseEZ4mainEUlS1_S3_E53_E9_M_invokeERKSt9_Any_dataOS1_OS3_
FNDA:0,_ZNSt17_Function_handlerIFiP11HttpRequestP12HttpResponseEZ4mainEUlS1_S3_E53_E9_M_invokeERKSt9_Any_dataOS1_OS3_
FN:289,_ZNSt17_Function_handlerIFiP11HttpRequestP12HttpResponseEZ4mainEUlS1_S3_E16_E9_M_invokeERKSt9_Any_dataOS1_OS3_
FNDA:0,_ZNSt17_Function_handlerIFiP11HttpRequestP12HttpResponseEZ4mainEUlS1_S3_E16_E9_M_invokeERKSt9_Any_dataOS1_OS3_
FN:289,_ZNSt17_Function_handlerIFiP11HttpRequestP12HttpResponseEZ4mainEUlS1_S3_E73_E9_M_invokeERKSt9_Any_dataOS1_OS3_
FNDA:0,_ZNSt17_Function_handlerIFiP11HttpRequestP12HttpResponseEZ4mainEUlS1_S3_E73_E9_M_invokeERKSt9_Any_dataOS1_OS3_
FN:289,_ZNSt17_Function_handlerIFiP11HttpRequestP12HttpResponseEZ4mainEUlS1_S3_E17_E9_M_invokeERKSt9_Any_dataOS1_OS3_
FNDA:0,_ZNSt17_Function_handlerIFiP11HttpRequestP12HttpResponseEZ4mainEUlS1_S3_E17_E9_M_invokeERKSt9_Any_dataOS1_OS3_
FN:289,_ZNSt17_Function_handlerIFiP11HttpRequestP12HttpResponseEZ4mainEUlS1_S3_E52_E9_M_invokeERKSt9_Any_dataOS1_OS3_
FNDA:0,_ZNSt17_Function_handlerIFiP11HttpRequestP12HttpResponseEZ4mainEUlS1_S3_E52_E9_M_invokeERKSt9_Any_dataOS1_OS3_
FN:289,_ZNSt17_Function_handlerIFiP11HttpRequestP12HttpResponseEZ4mainEUlS1_S3_E18_E9_M_invokeERKSt9_Any_dataOS1_OS3_
FNDA:0,_ZNSt17_Function_handlerIFiP11HttpRequestP12HttpResponseEZ4mainEUlS1_S3_E18_E9_M_invokeERKSt9_Any_dataOS1_OS3_
FN:289,_ZNSt17_Function_handlerIFiP11HttpRequestP12HttpResponseEZ4mainEUlS1_S3_E63_E9_M_invokeERKSt9_Any_dataOS1_OS3_
FNDA:0,_ZNSt17_Function_handlerIFiP11HttpRequestP12HttpResponseEZ4mainEUlS1_S3_E63_E9_M_invokeERKSt9_Any_dataOS1_OS3_
FN:289,_ZNSt17_Function_handlerIFiP11HttpRequestP12HttpResponseEZ4mainEUlS1_S3_E19_E9_M_invokeERKSt9_Any_dataOS1_OS3_
FNDA:0,_ZNSt17_Function_handlerIFiP11HttpRequestP12HttpResponseEZ4mainEUlS1_S3_E19_E9_M_invokeERKSt9_Any_dataOS1_OS3_
FN:289,_ZNSt17_Function_handlerIFiP11HttpRequestP12HttpResponseEZ4mainEUlS1_S3_E20_E9_M_invokeERKSt9_Any_dataOS1_OS3_
FNDA:0,_ZNSt17_Function_handlerIFiP11HttpRequestP12HttpResponseEZ4mainEUlS1_S3_E20_E9_M_invokeERKSt9_Any_dataOS1_OS3_
FN:289,_ZNSt17_Function_handlerIFiP11HttpRequestP12HttpResponseEZ4mainEUlS1_S3_E48_E9_M_invokeERKSt9_Any_dataOS1_OS3_
FNDA:0,_ZNSt17_Function_handlerIFiP11HttpRequestP12HttpResponseEZ4mainEUlS1_S3_E48_E9_M_invokeERKSt9_Any_dataOS1_OS3_
FN:289,_ZNSt17_Function_handlerIFiP11HttpRequestP12HttpResponseEZ4mainEUlS1_S3_E77_E9_M_invokeERKSt9_Any_dataOS1_OS3_
FNDA:0,_ZNSt17_Function_handlerIFiP11HttpRequestP12HttpResponseEZ4mainEUlS1_S3_E77_E9_M_invokeERKSt9_Any_dataOS1_OS3_
FN:289,_ZNSt17_Function_handlerIFiP11HttpRequestP12HttpResponseEZ4mainEUlS1_S3_E25_E9_M_invokeERKSt9_Any_dataOS1_OS3_
FNDA:0,_ZNSt17_Function_handlerIFiP11HttpRequestP12HttpResponseEZ4mainEUlS1_S3_E25_E9_M_invokeERKSt9_Any_dataOS1_OS3_
FN:289,_ZNSt17_Function_handlerIFiP11HttpRequestP12HttpResponseEZ4mainEUlS1_S3_E49_E9_M_invokeERKSt9_Any_dataOS1_OS3_
FNDA:0,_ZNSt17_Function_handlerIFiP11HttpRequestP12HttpResponseEZ4mainEUlS1_S3_E49_E9_M_invokeERKSt9_Any_dataOS1_OS3_
FN:289,_ZNSt17_Function_handlerIFiP11HttpRequestP12HttpResponseEZ4mainEUlS1_S3_E24_E9_M_invokeERKSt9_Any_dataOS1_OS3_
FNDA:0,_ZNSt17_Function_handlerIFiP11HttpRequestP12HttpResponseEZ4mainEUlS1_S3_E24_E9_M_invokeERKSt9_Any_dataOS1_OS3_
FN:289,_ZNSt17_Function_handlerIFiP11HttpRequestP12HttpResponseEZ4mainEUlS1_S3_E76_E9_M_invokeERKSt9_Any_dataOS1_OS3_
FNDA:0,_ZNSt17_Function_handlerIFiP11HttpRequestP12HttpResponseEZ4mainEUlS1_S3_E76_E9_M_invokeERKSt9_Any_dataOS1_OS3_
FN:289,_ZNSt17_Function_handlerIFiP11HttpRequestP12HttpResponseEZ4mainEUlS1_S3_E50_E9_M_invokeERKSt9_Any_dataOS1_OS3_
FNDA:0,_ZNSt17_Function_handlerIFiP11HttpRequestP12HttpResponseEZ4mainEUlS1_S3_E50_E9_M_invokeERKSt9_Any_dataOS1_OS3_
FN:289,_ZNSt17_Function_handlerIFiP11HttpRequestP12HttpResponseEZ4mainEUlS1_S3_E74_E9_M_invokeERKSt9_Any_dataOS1_OS3_
FNDA:0,_ZNSt17_Function_handlerIFiP11HttpRequestP12HttpResponseEZ4mainEUlS1_S3_E74_E9_M_invokeERKSt9_Any_dataOS1_OS3_
FN:289,_ZNSt17_Function_handlerIFiP11HttpRequestP12HttpResponseEZ4mainEUlS1_S3_E51_E9_M_invokeERKSt9_Any_dataOS1_OS3_
FNDA:0,_ZNSt17_Function_handlerIFiP11HttpRequestP12HttpResponseEZ4mainEUlS1_S3_E51_E9_M_invokeERKSt9_Any_dataOS1_OS3_
FN:289,_ZNSt17_Function_handlerIFiP11HttpRequestP12HttpResponseEZ4mainEUlS1_S3_E21_E9_M_invokeERKSt9_Any_dataOS1_OS3_
FNDA:0,_ZNSt17_Function_handlerIFiP11HttpRequestP12HttpResponseEZ4mainEUlS1_S3_E21_E9_M_invokeERKSt9_Any_dataOS1_OS3_
FN:289,_ZNSt17_Function_handlerIFiP11HttpRequestP12HttpResponseEZ4mainEUlS1_S3_E75_E9_M_invokeERKSt9_Any_dataOS1_OS3_
FNDA:0,_ZNSt17_Function_handlerIFiP11HttpRequestP12HttpResponseEZ4mainEUlS1_S3_E75_E9_M_invokeERKSt9_Any_dataOS1_OS3_
FN:289,_ZNSt17_Function_handlerIFiP11HttpRequestP12HttpResponseEZ4mainEUlS1_S3_E22_E9_M_invokeERKSt9_Any_dataOS1_OS3_
FNDA:0,_ZNSt17_Function_handlerIFiP11HttpRequestP12HttpResponseEZ4mainEUlS1_S3_E22_E9_M_invokeERKSt9_Any_dataOS1_OS3_
FN:289,_ZNSt17_Function_handlerIFiP11HttpRequestP12HttpResponseEZ4mainEUlS1_S3_E23_E9_M_invokeERKSt9_Any_dataOS1_OS3_
FNDA:0,_ZNSt17_Function_handlerIFiP11HttpRequestP12HttpResponseEZ4mainEUlS1_S3_E23_E9_M_invokeERKSt9_Any_dataOS1_OS3_
FN:330,_ZNSt8functionIFiP11HttpRequestP12HttpResponseEEC2Ev
FNDA:87,_ZNSt8functionIFiP11HttpRequestP12HttpResponseEEC2Ev
FN:428,_ZNSt8functionIFiP11HttpRequestP12HttpResponseEEaSEDn
FNDA:2,_ZNSt8functionIFiP11HttpRequestP12HttpResponseEEaSEDn
FN:498,_ZNKSt8functionIFiP11HttpRequestP12HttpResponseEEcvbEv
FNDA:346,_ZNKSt8functionIFiP11HttpRequestP12HttpResponseEEcvbEv
FN:587,_ZNSt8functionIFiP11HttpRequestP12HttpResponseEEC2ERKS5_
FNDA:346,_ZNSt8functionIFiP11HttpRequestP12HttpResponseEEC2ERKS5_
FN:601,_ZNSt8functionIFiP11HttpRequestP12HttpResponseEEC2IZ4mainEUlS1_S3_E16_vvEET_
FNDA:1,_ZNSt8functionIFiP11HttpRequestP12HttpResponseEEC2IZ4mainEUlS1_S3_E16_vvEET_
FN:601,_ZNSt8functionIFiP11HttpRequestP12HttpResponseEEC2IZ4mainEUlS1_S3_E35_vvEET_
FNDA:1,_ZNSt8functionIFiP11HttpRequestP12HttpResponseEEC2IZ4mainEUlS1_S3_E35_vvEET_
FN:601,_ZNSt8functionIFiP11HttpRequestP12HttpResponseEEC2IZ4mainEUlS1_S3_E17_vvEET_
FNDA:1,_ZNSt8functionIFiP11HttpRequestP12HttpResponseEEC2IZ4mainEUlS1_S3_E17_vvEET_
FN:601,_ZNSt8functionIFiP11HttpRequestP12HttpResponseEEC2IZ4mainEUlS1_S3_E18_vvEET_
FNDA:1,_ZNSt8functionIFiP11HttpRequestP12HttpResponseEEC2IZ4mainEUlS1_S3_E18_vvEET_
FN:601,_ZNSt8functionIFiP11HttpRequestP12HttpResponseEEC2IZ4mainEUlS1_S3_E19_vvEET_
FNDA:1,_ZNSt8functionIFiP11HttpRequestP12HttpResponseEEC2IZ4mainEUlS1_S3_E19_vvEET_
FN:601,_ZNSt8functionIFiP11HttpRequestP12HttpResponseEEC2IZ4mainEUlS1_S3_E20_vvEET_
FNDA:1,_ZNSt8functionIFiP11HttpRequestP12HttpResponseEEC2IZ4mainEUlS1_S3_E20_vvEET_
FN:601,_ZNSt8functionIFiP11HttpRequestP12HttpResponseEEC2IZ4mainEUlS1_S3_E21_vvEET_
FNDA:1,_ZNSt8functionIFiP11HttpRequestP12HttpResponseEEC2IZ4mainEUlS1_S3_E21_vvEET_
FN:601,_ZNSt8functionIFiP11HttpRequestP12HttpResponseEEC2IZ4mainEUlS1_S3_E22_vvEET_
FNDA:1,_ZNSt8functionIFiP11HttpRequestP12HttpResponseEEC2IZ4mainEUlS1_S3_E22_vvEET_
FN:601,_ZNSt8functionIFiP11HttpRequestP12HttpResponseEEC2IZ4mainEUlS1_S3_E23_vvEET_
FNDA:1,_ZNSt8functionIFiP11HttpRequestP12HttpResponseEEC2IZ4mainEUlS1_S3_E23_vvEET_
FN:601,_ZNSt8functionIFiP11HttpRequestP12HttpResponseEEC2IZ4mainEUlS1_S3_E24_vvEET_
FNDA:1,_ZNSt8functionIFiP11HttpRequestP12HttpResponseEEC2IZ4mainEUlS1_S3_E24_vvEET_
FN:601,_ZNSt8functionIFiP11HttpRequestP12HttpResponseEEC2IZ4mainEUlS1_S3_E25_vvEET_
FNDA:1,_ZNSt8functionIFiP11HttpRequestP12HttpResponseEEC2IZ4mainEUlS1_S3_E25_vvEET_
FN:601,_ZNSt8functionIFiP11HttpRequestP12HttpResponseEEC2IZ4mainEUlS1_S3_E26_vvEET_
FNDA:1,_ZNSt8functionIFiP11HttpRequestP12HttpResponseEEC2IZ4mainEUlS1_S3_E26_vvEET_
FN:601,_ZNSt8functionIFiP11HttpRequestP12HttpResponseEEC2IZ4mainEUlS1_S3_E27_vvEET_
FNDA:1,_ZNSt8functionIFiP11HttpRequestP12HttpResponseEEC2IZ4mainEUlS1_S3_E27_vvEET_
FN:601,_ZNSt8functionIFiP11HttpRequestP12HttpResponseEEC2IZ4mainEUlS1_S3_E28_vvEET_
FNDA:1,_ZNSt8functionIFiP11HttpRequestP12HttpResponseEEC2IZ4mainEUlS1_S3_E28_vvEET_
FN:601,_ZNSt8functionIFiP11HttpRequestP12HttpResponseEEC2IZ4mainEUlS1_S3_E29_vvEET_
FNDA:1,_ZNSt8functionIFiP11HttpRequestP12HttpResponseEEC2IZ4mainEUlS1_S3_E29_vvEET_
FN:601,_ZNSt8functionIFiP11HttpRequestP12HttpResponseEEC2IZ4mainEUlS1_S3_E30_vvEET_
FNDA:1,_ZNSt8functionIFiP11HttpRequestP12HttpResponseEEC2IZ4mainEUlS1_S3_E30_vvEET_
FN:601,_ZNSt8functionIFiP11HttpRequestP12HttpResponseEEC2IZ4mainEUlS1_S3_E31_vvEET_
FNDA:1,_ZNSt8functionIFiP11HttpRequestP12HttpResponseEEC2IZ4mainEUlS1_S3_E31_vvEET_
FN:601,_ZNSt8functionIFiP11HttpRequestP12HttpResponseEEC2IZ4mainEUlS1_S3_E32_vvEET_
FNDA:1,_ZNSt8functionIFiP11HttpRequestP12HttpResponseEEC2IZ4mainEUlS1_S3_E32_vvEET_
FN:601,_ZNSt8functionIFiP11HttpRequestP12HttpResponseEEC2IZ4mainEUlS1_S3_E33_vvEET_
FNDA:1,_ZNSt8functionIFiP11HttpRequestP12HttpResponseEEC2IZ4mainEUlS1_S3_E33_vvEET_
FN:601,_ZNSt8functionIFiP11HttpRequestP12HttpResponseEEC2IZ4mainEUlS1_S3_E34_vvEET_
FNDA:1,_ZNSt8functionIFiP11HttpRequestP12HttpResponseEEC2IZ4mainEUlS1_S3_E34_vvEET_
FN:601,_ZNSt8functionIFiP11HttpRequestP12HttpResponseEEC2IZ4mainEUlS1_S3_E36_vvEET_
FNDA:1,_ZNSt8functionIFiP11HttpRequestP12HttpResponseEEC2IZ4mainEUlS1_S3_E36_vvEET_
FN:601,_ZNSt8functionIFiP11HttpRequestP12HttpResponseEEC2IZ4mainEUlS1_S3_E5_vvEET_
FNDA:1,_ZNSt8functionIFiP11HttpRequestP12HttpResponseEEC2IZ4mainEUlS1_S3_E5_vvEET_
FN:601,_ZNSt8functionIFiP11HttpRequestP12HttpResponseEEC2IZ4mainEUlS1_S3_E85_vvEET_
FNDA:1,_ZNSt8functionIFiP11HttpRequestP12HttpResponseEEC2IZ4mainEUlS1_S3_E85_vvEET_
FN:601,_ZNSt8functionIFiP11HttpRequestP12HttpResponseEEC2IZ4mainEUlS1_S3_E84_vvEET_
FNDA:1,_ZNSt8functionIFiP11HttpRequestP12HttpResponseEEC2IZ4mainEUlS1_S3_E84_vvEET_
FN:601,_ZNSt8functionIFiP11HttpRequestP12HttpResponseEEC2IZ4mainEUlS1_S3_E83_vvEET_
FNDA:1,_ZNSt8functionIFiP11HttpRequestP12HttpResponseEEC2IZ4mainEUlS1_S3_E83_vvEET_
FN:601,_ZNSt8functionIFiP11HttpRequestP12HttpResponseEEC2IZ4mainEUlS1_S3_E_vvEET_
FNDA:1,_ZNSt8functionIFiP11HttpRequestP12HttpResponseEEC2IZ4mainEUlS1_S3_E_vvEET_
FN:601,_ZNSt8functionIFiP11HttpRequestP12HttpResponseEEC2IZ4mainEUlS1_S3_E0_vvEET_
FNDA:1,_ZNSt8functionIFiP11HttpRequestP12HttpResponseEEC2IZ4mainEUlS1_S3_E0_vvEET_
FN:601,_ZNSt8functionIFiP11HttpRequestP12HttpResponseEEC2IZ4mainEUlS1_S3_E1_vvEET_
FNDA:1,_ZNSt8functionIFiP11HttpRequestP12HttpResponseEEC2IZ4mainEUlS1_S3_E1_vvEET_
FN:601,_ZNSt8functionIFiP11HttpRequestP12HttpResponseEEC2IZ4mainEUlS1_S3_E2_vvEET_
FNDA:1,_ZNSt8functionIFiP11HttpRequestP12HttpResponseEEC2IZ4mainEUlS1_S3_E2_vvEET_
FN:601,_ZNSt8functionIFiP11HttpRequestP12HttpResponseEEC2IZ4mainEUlS1_S3_E3_vvEET_
FNDA:1,_ZNSt8functionIFiP11HttpRequestP12HttpResponseEEC2IZ4mainEUlS1_S3_E3_vvEET_
FN:601,_ZNSt8functionIFiP11HttpRequestP12HttpResponseEEC2IZ4mainEUlS1_S3_E4_vvEET_
FNDA:1,_ZNSt8functionIFiP11HttpRequestP12HttpResponseEEC2IZ4mainEUlS1_S3_E4_vvEET_
FN:601,_ZNSt8functionIFiP11HttpRequestP12HttpResponseEEC2IZ4mainEUlS1_S3_E15_vvEET_
FNDA:1,_ZNSt8functionIFiP11HttpRequestP12HttpResponseEEC2IZ4mainEUlS1_S3_E15_vvEET_
FN:601,_ZNSt8functionIFiP11HttpRequestP12HttpResponseEEC2IZ4mainEUlS1_S3_E6_vvEET_
FNDA:1,_ZNSt8functionIFiP11HttpRequestP12HttpResponseEEC2IZ4mainEUlS1_S3_E6_vvEET_
FN:601,_ZNSt8functionIFiP11HttpRequestP12HttpResponseEEC2IZ4mainEUlS1_S3_E7_vvEET_
FNDA:1,_ZNSt8functionIFiP11HttpRequestP12HttpResponseEEC2IZ4mainEUlS1_S3_E7_vvEET_
FN:601,_ZNSt8functionIFiP11HttpRequestP12HttpResponseEEC2IZ4mainEUlS1_S3_E8_vvEET_
FNDA:1,_ZNSt8functionIFiP11HttpRequestP12HttpResponseEEC2IZ4mainEUlS1_S3_E8_vvEET_
FN:601,_ZNSt8functionIFiP11HttpRequestP12HttpResponseEEC2IZ4mainEUlS1_S3_E9_vvEET_
FNDA:1,_ZNSt8functionIFiP11HttpRequestP12HttpResponseEEC2IZ4mainEUlS1_S3_E9_vvEET_
FN:601,_ZNSt8functionIFiP11HttpRequestP12HttpResponseEEC2IZ4mainEUlS1_S3_E10_vvEET_
FNDA:1,_ZNSt8functionIFiP11HttpRequestP12HttpResponseEEC2IZ4mainEUlS1_S3_E10_vvEET_
FN:601,_ZNSt8functionIFiP11HttpRequestP12HttpResponseEEC2IZ4mainEUlS1_S3_E11_vvEET_
FNDA:1,_ZNSt8functionIFiP11HttpRequestP12HttpResponseEEC2IZ4mainEUlS1_S3_E11_vvEET_
FN:601,_ZNSt8functionIFiP11HttpRequestP12HttpResponseEEC2IZ4mainEUlS1_S3_E12_vvEET_
FNDA:1,_ZNSt8functionIFiP11HttpRequestP12HttpResponseEEC2IZ4mainEUlS1_S3_E12_vvEET_
FN:601,_ZNSt8functionIFiP11HttpRequestP12HttpResponseEEC2IZ4mainEUlS1_S3_E13_vvEET_
FNDA:1,_ZNSt8functionIFiP11HttpRequestP12HttpResponseEEC2IZ4mainEUlS1_S3_E13_vvEET_
FN:601,_ZNSt8functionIFiP11HttpRequestP12HttpResponseEEC2IZ4mainEUlS1_S3_E14_vvEET_
FNDA:1,_ZNSt8functionIFiP11HttpRequestP12HttpResponseEEC2IZ4mainEUlS1_S3_E14_vvEET_
FN:601,_ZNSt8functionIFiP11HttpRequestP12HttpResponseEEC2IZ4mainEUlS1_S3_E71_vvEET_
FNDA:1,_ZNSt8functionIFiP11HttpRequestP12HttpResponseEEC2IZ4mainEUlS1_S3_E71_vvEET_
FN:601,_ZNSt8functionIFiP11HttpRequestP12HttpResponseEEC2IZ4mainEUlS1_S3_E60_vvEET_
FNDA:1,_ZNSt8functionIFiP11HttpRequestP12HttpResponseEEC2IZ4mainEUlS1_S3_E60_vvEET_
FN:601,_ZNSt8functionIFiP11HttpRequestP12HttpResponseEEC2IZ4mainEUlS1_S3_E61_vvEET_
FNDA:1,_ZNSt8functionIFiP11HttpRequestP12HttpResponseEEC2IZ4mainEUlS1_S3_E61_vvEET_
FN:601,_ZNSt8functionIFiP11HttpRequestP12HttpResponseEEC2IZ4mainEUlS1_S3_E62_vvEET_
FNDA:1,_ZNSt8functionIFiP11HttpRequestP12HttpResponseEEC2IZ4mainEUlS1_S3_E62_vvEET_
FN:601,_ZNSt8functionIFiP11HttpRequestP12HttpResponseEEC2IZ4mainEUlS1_S3_E63_vvEET_
FNDA:1,_ZNSt8functionIFiP11HttpRequestP12HttpResponseEEC2IZ4mainEUlS1_S3_E63_vvEET_
FN:601,_ZNSt8functionIFiP11HttpRequestP12HttpResponseEEC2IZ4mainEUlS1_S3_E64_vvEET_
FNDA:1,_ZNSt8functionIFiP11HttpRequestP12HttpResponseEEC2IZ4mainEUlS1_S3_E64_vvEET_
FN:601,_ZNSt8functionIFiP11HttpRequestP12HttpResponseEEC2IZ4mainEUlS1_S3_E65_vvEET_
FNDA:1,_ZNSt8functionIFiP11HttpRequestP12HttpResponseEEC2IZ4mainEUlS1_S3_E65_vvEET_
FN:601,_ZNSt8functionIFiP11HttpRequestP12HttpResponseEEC2IZ4mainEUlS1_S3_E66_vvEET_
FNDA:1,_ZNSt8functionIFiP11HttpRequestP12HttpResponseEEC2IZ4mainEUlS1_S3_E66_vvEET_
FN:601,_ZNSt8functionIFiP11HttpRequestP12HttpResponseEEC2IZ4mainEUlS1_S3_E67_vvEET_
FNDA:1,_ZNSt8functionIFiP11HttpRequestP12HttpResponseEEC2IZ4mainEUlS1_S3_E67_vvEET_
FN:601,_ZNSt8functionIFiP11HttpRequestP12HttpResponseEEC2IZ4mainEUlS1_S3_E68_vvEET_
FNDA:1,_ZNSt8functionIFiP11HttpRequestP12HttpResponseEEC2IZ4mainEUlS1_S3_E68_vvEET_
FN:601,_ZNSt8functionIFiP11HttpRequestP12HttpResponseEEC2IZ4mainEUlS1_S3_E69_vvEET_
FNDA:1,_ZNSt8functionIFiP11HttpRequestP12HttpResponseEEC2IZ4mainEUlS1_S3_E69_vvEET_
FN:601,_ZNSt8functionIFiP11HttpRequestP12HttpResponseEEC2IZ4mainEUlS1_S3_E70_vvEET_
FNDA:1,_ZNSt8functionIFiP11HttpRequestP12HttpResponseEEC2IZ4mainEUlS1_S3_E70_vvEET_
FN:601,_ZNSt8functionIFiP11HttpRequestP12HttpResponseEEC2IZ4mainEUlS1_S3_E59_vvEET_
FNDA:1,_ZNSt8functionIFiP11HttpRequestP12HttpResponseEEC2IZ4mainEUlS1_S3_E59_vvEET_
FN:601,_ZNSt8functionIFiP11HttpRequestP12HttpResponseEEC2IZ4mainEUlS1_S3_E72_vvEET_
FNDA:1,_ZNSt8functionIFiP11HttpRequestP12HttpResponseEEC2IZ4mainEUlS1_S3_E72_vvEET_
FN:601,_ZNSt8functionIFiP11HttpRequestP12HttpResponseEEC2IZ4mainEUlS1_S3_E73_vvEET_
FNDA:1,_ZNSt8functionIFiP11HttpRequestP12HttpResponseEEC2IZ4mainEUlS1_S3_E73_vvEET_
FN:601,_ZNSt8functionIFiP11HttpRequestP12HttpResponseEEC2IZ4mainEUlS1_S3_E74_vvEET_
FNDA:1,_ZNSt8functionIFiP11HttpRequestP12HttpResponseEEC2IZ4mainEUlS1_S3_E74_vvEET_
FN:601,_ZNSt8functionIFiP11HttpRequestP12HttpResponseEEC2IZ4mainEUlS1_S3_E75_vvEET_
FNDA:1,_ZNSt8functionIFiP11HttpRequestP12HttpResponseEEC2IZ4mainEUlS1_S3_E75_vvEET_
FN:601,_ZNSt8functionIFiP11HttpRequestP12HttpResponseEEC2IZ4mainEUlS1_S3_E76_vvEET_
FNDA:1,_ZNSt8functionIFiP11HttpRequestP12HttpResponseEEC2IZ4mainEUlS1_S3_E76_vvEET_
FN:601,_ZNSt8functionIFiP11HttpRequestP12HttpResponseEEC2IZ4mainEUlS1_S3_E77_vvEET_
FNDA:1,_ZNSt8functionIFiP11HttpRequestP12HttpResponseEEC2IZ4mainEUlS1_S3_E77_vvEET_
FN:601,_ZNSt8functionIFiP11HttpRequestP12HttpResponseEEC2IZ4mainEUlS1_S3_E78_vvEET_
FNDA:1,_ZNSt8functionIFiP11HttpRequestP12HttpResponseEEC2IZ4mainEUlS1_S3_E78_vvEET_
FN:601,_ZNSt8functionIFiP11HttpRequestP12HttpResponseEEC2IZ4mainEUlS1_S3_E79_vvEET_
FNDA:1,_ZNSt8functionIFiP11HttpRequestP12HttpResponseEEC2IZ4mainEUlS1_S3_E79_vvEET_
FN:601,_ZNSt8functionIFiP11HttpRequestP12HttpResponseEEC2IZ4mainEUlS1_S3_E80_vvEET_
FNDA:1,_ZNSt8functionIFiP11HttpRequestP12HttpResponseEEC2IZ4mainEUlS1_S3_E80_vvEET_
FN:601,_ZNSt8functionIFiP11HttpRequestP12HttpResponseEEC2IZ4mainEUlS1_S3_E81_vvEET_
FNDA:1,_ZNSt8functionIFiP11HttpRequestP12HttpResponseEEC2IZ4mainEUlS1_S3_E81_vvEET_
FN:601,_ZNSt8functionIFiP11HttpRequestP12HttpResponseEEC2IZ4mainEUlS1_S3_E48_vvEET_
FNDA:1,_ZNSt8functionIFiP11HttpRequestP12HttpResponseEEC2IZ4mainEUlS1_S3_E48_vvEET_
FN:601,_ZNSt8functionIFiP11HttpRequestP12HttpResponseEEC2IZ4mainEUlS1_S3_E37_vvEET_
FNDA:1,_ZNSt8functionIFiP11HttpRequestP12HttpResponseEEC2IZ4mainEUlS1_S3_E37_vvEET_
FN:601,_ZNSt8functionIFiP11HttpRequestP12HttpResponseEEC2IZ4mainEUlS1_S3_E38_vvEET_
FNDA:1,_ZNSt8functionIFiP11HttpRequestP12HttpResponseEEC2IZ4mainEUlS1_S3_E38_vvEET_
FN:601,_ZNSt8functionIFiP11HttpRequestP12HttpResponseEEC2IZ4mainEUlS1_S3_E39_vvEET_
FNDA:1,_ZNSt8functionIFiP11HttpRequestP12HttpResponseEEC2IZ4mainEUlS1_S3_E39_vvEET_
FN:601,_ZNSt8functionIFiP11HttpRequestP12HttpResponseEEC2IZ4mainEUlS1_S3_E40_vvEET_
FNDA:1,_ZNSt8functionIFiP11HttpRequestP12HttpResponseEEC2IZ4mainEUlS1_S3_E40_vvEET_
FN:601,_ZNSt8functionIFiP11HttpRequestP12HttpResponseEEC2IZ4mainEUlS1_S3_E41_vvEET_
FNDA:1,_ZNSt8functionIFiP11HttpRequestP12HttpResponseEEC2IZ4mainEUlS1_S3_E41_vvEET_
FN:601,_ZNSt8functionIFiP11HttpRequestP12HttpResponseEEC2IZ4mainEUlS1_S3_E42_vvEET_
FNDA:1,_ZNSt8functionIFiP11HttpRequestP12HttpResponseEEC2IZ4mainEUlS1_S3_E42_vvEET_
FN:601,_ZNSt8functionIFiP11HttpRequestP12HttpResponseEEC2IZ4mainEUlS1_S3_E43_vvEET_
FNDA:1,_ZNSt8functionIFiP11HttpRequestP12HttpResponseEEC2IZ4mainEUlS1_S3_E43_vvEET_
FN:601,_ZNSt8functionIFiP11HttpRequestP12HttpResponseEEC2IZ4mainEUlS1_S3_E44_vvEET_
FNDA:1,_ZNSt8functionIFiP11HttpRequestP12HttpResponseEEC2IZ4mainEUlS1_S3_E44_vvEET_
FN:601,_ZNSt8functionIFiP11HttpRequestP12HttpResponseEEC2IZ4mainEUlS1_S3_E45_vvEET_
FNDA:1,_ZNSt8functionIFiP11HttpRequestP12HttpResponseEEC2IZ4mainEUlS1_S3_E45_vvEET_
FN:601,_ZNSt8functionIFiP11HttpRequestP12HttpResponseEEC2IZ4mainEUlS1_S3_E46_vvEET_
FNDA:1,_ZNSt8functionIFiP11HttpRequestP12HttpResponseEEC2IZ4mainEUlS1_S3_E46_vvEET_
FN:601,_ZNSt8functionIFiP11HttpRequestP12HttpResponseEEC2IZ4mainEUlS1_S3_E47_vvEET_
FNDA:1,_ZNSt8functionIFiP11HttpRequestP12HttpResponseEEC2IZ4mainEUlS1_S3_E47_vvEET_
FN:601,_ZNSt8functionIFiP11HttpRequestP12HttpResponseEEC2IZ4mainEUlS1_S3_E82_vvEET_
FNDA:1,_ZNSt8functionIFiP11HttpRequestP12HttpResponseEEC2IZ4mainEUlS1_S3_E82_vvEET_
FN:601,_ZNSt8functionIFiP11HttpRequestP12HttpResponseEEC2IZ4mainEUlS1_S3_E49_vvEET_
FNDA:1,_ZNSt8functionIFiP11HttpRequestP12HttpResponseEEC2IZ4mainEUlS1_S3_E49_vvEET_
FN:601,_ZNSt8functionIFiP11HttpRequestP12HttpResponseEEC2IZ4mainEUlS1_S3_E50_vvEET_
FNDA:1,_ZNSt8functionIFiP11HttpRequestP12HttpResponseEEC2IZ4mainEUlS1_S3_E50_vvEET_
FN:601,_ZNSt8functionIFiP11HttpRequestP12HttpResponseEEC2IZ4mainEUlS1_S3_E51_vvEET_
FNDA:1,_ZNSt8functionIFiP11HttpRequestP12HttpResponseEEC2IZ4mainEUlS1_S3_E51_vvEET_
FN:601,_ZNSt8functionIFiP11HttpRequestP12HttpResponseEEC2IZ4mainEUlS1_S3_E52_vvEET_
FNDA:1,_ZNSt8functionIFiP11HttpRequestP12HttpResponseEEC2IZ4mainEUlS1_S3_E52_vvEET_
FN:601,_ZNSt8functionIFiP11HttpRequestP12HttpResponseEEC2IZ4mainEUlS1_S3_E53_vvEET_
FNDA:1,_ZNSt8functionIFiP11HttpRequestP12HttpResponseEEC2IZ4mainEUlS1_S3_E53_vvEET_
FN:601,_ZNSt8functionIFiP11HttpRequestP12HttpResponseEEC2IZ4mainEUlS1_S3_E54_vvEET_
FNDA:1,_ZNSt8functionIFiP11HttpRequestP12HttpResponseEEC2IZ4mainEUlS1_S3_E54_vvEET_
FN:601,_ZNSt8functionIFiP11HttpRequestP12HttpResponseEEC2IZ4mainEUlS1_S3_E55_vvEET_
FNDA:1,_ZNSt8functionIFiP11HttpRequestP12HttpResponseEEC2IZ4mainEUlS1_S3_E55_vvEET_
FN:601,_ZNSt8functionIFiP11HttpRequestP12HttpResponseEEC2IZ4mainEUlS1_S3_E56_vvEET_
FNDA:1,_ZNSt8functionIFiP11HttpRequestP12HttpResponseEEC2IZ4mainEUlS1_S3_E56_vvEET_
FN:601,_ZNSt8functionIFiP11HttpRequestP12HttpResponseEEC2IZ4mainEUlS1_S3_E57_vvEET_
FNDA:1,_ZNSt8functionIFiP11HttpRequestP12HttpResponseEEC2IZ4mainEUlS1_S3_E57_vvEET_
FN:601,_ZNSt8functionIFiP11HttpRequestP12HttpResponseEEC2IZ4mainEUlS1_S3_E58_vvEET_
FNDA:1,_ZNSt8functionIFiP11HttpRequestP12HttpResponseEEC2IZ4mainEUlS1_S3_E58_vvEET_
DA:87,781
DA:88,346
DA:92,0
DA:93,0
DA:92,0
DA:93,0
DA:92,0
DA:93,0
DA:92,0
DA:93,0
DA:92,0
DA:93,0
DA:92,0
DA:93,0
DA:92,0
DA:93,0
DA:92,0
DA:93,0
DA:92,0
DA:93,0
DA:92,0
DA:93,0
DA:92,0
DA:93,0
DA:92,0
DA:93,0
DA:92,0
DA:93,0
DA:92,0
DA:93,0
DA:92,0
DA:93,0
DA:92,0
DA:93,0
DA:92,0
DA:93,0
DA:92,0
DA:93,0
DA:92,0
DA:93,0
DA:92,0
DA:93,0
DA:92,0
DA:93,0
DA:92,0
DA:93,0
DA:92,0
DA:93,0
DA:92,0
DA:93,0
DA:92,0
DA:93,0
DA:92,0
DA:93,0
DA:92,0
DA:93,0
DA:92,0
DA:93,0
DA:92,0
DA:93,0
DA:92,0
DA:93,0
DA:92,0
DA:93,0
DA:92,0
DA:93,0
DA:92,0
DA:93,0
DA:92,0
DA:93,0
DA:92,0
DA:93,0
DA:92,0
DA:93,0
DA:92,0
DA:93,0
DA:92,0
DA:93,0
DA:92,0
DA:93,0
DA:92,0
DA:93,0
DA:92,0
DA:93,0
DA:92,0
DA:93,0
DA:92,0
DA:93,0
DA:92,0
DA:93,0
DA:92,0
DA:93,0
DA:92,0
DA:93,0
DA:92,0
DA:93,0
DA:92,0
DA:93,0
DA:92,0
DA:93,0
DA:92,0
DA:93,0
DA:92,0
DA:93,0
DA:92,0
DA:93,0
DA:92,0
DA:93,0
DA:92,0
DA:93,0
DA:92,0
DA:93,0
DA:92,0
DA:93,0
DA:92,0
DA:93,0
DA:92,0
DA:93,0
DA:92,0
DA:93,0
DA:92,0
DA:93,0
DA:92,0
DA:93,0
DA:92,0
DA:93,0
DA:92,0
DA:93,0
DA:92,0
DA:93,0
DA:92,0
DA:93,0
DA:92,0
DA:93,0
DA:92,0
DA:93,0
DA:92,0
DA:93,0
DA:92,0
DA:93,0
DA:92,0
DA:93,0
DA:92,0
DA:93,0
DA:92,0
DA:93,0
DA:92,0
DA:93,0
DA:92,0
DA:93,0
DA:92,0
DA:93,0
DA:92,0
DA:93,0
DA:92,0
DA:93,0
DA:92,0
DA:93,0
DA:92,0
DA:93,0
DA:92,0
DA:93,0
DA:92,0
DA:93,0
DA:92,0
DA:93,0
DA:92,0
DA:93,0
DA:92,0
DA:93,0
DA:92,0
DA:93,0
DA:92,0
DA:93,0
DA:92,0
DA:93,0
DA:92,0
DA:93,0
DA:92,4
DA:93,4
DA:92,4
DA:93,4
DA:92,4
DA:93,4
DA:92,4
DA:93,4
DA:92,4
DA:93,4
DA:92,4
DA:93,4
DA:92,4
DA:93,4
DA:92,4
DA:93,4
DA:92,4
DA:93,4
DA:92,4
DA:93,4
DA:92,4
DA:93,4
DA:92,4
DA:93,4
DA:92,4
DA:93,4
DA:92,4
DA:93,4
DA:92,4
DA:93,4
DA:92,4
DA:93,4
DA:92,3
DA:93,3
DA:92,4
DA:93,4
DA:92,4
DA:93,4
DA:92,4
DA:93,4
DA:92,4
DA:93,4
DA:92,4
DA:93,4
DA:92,4
DA:93,4
DA:92,4
DA:93,4
DA:92,4
DA:93,4
DA:92,4
DA:93,4
DA:92,4
DA:93,4
DA:92,4
DA:93,4
DA:92,4
DA:93,4
DA:92,4
DA:93,4
DA:92,4
DA:93,4
DA:92,4
DA:93,4
DA:92,4
DA:93,4
DA:92,4
DA:93,4
DA:92,4
DA:93,4
DA:92,4
DA:93,4
DA:92,4
DA:93,4
DA:92,4
DA:93,4
DA:92,4
DA:93,4
DA:92,4
DA:93,4
DA:92,4
DA:93,4
DA:92,4
DA:93,4
DA:92,4
DA:93,4
DA:92,4
DA:93,4
DA:92,4
DA:93,4
DA:92,4
DA:93,4
DA:92,4
DA:93,4
DA:92,4
DA:93,4
DA:92,4
DA:93,4
DA:92,5
DA:93,5
DA:92,4
DA:93,4
DA:92,4
DA:93,4
DA:92,4
DA:93,4
DA:92,4
DA:93,4
DA:92,4
DA:93,4
DA:92,4
DA:93,4
DA:92,4
DA:93,4
DA:92,4
DA:93,4
DA:92,4
DA:93,4
DA:92,4
DA:93,4
DA:92,4
DA:93,4
DA:92,4
DA:93,4
DA:92,4
DA:93,4
DA:92,4
DA:93,4
DA:92,4
DA:93,4
DA:92,4
DA:93,4
DA:92,4
DA:93,4
DA:92,4
DA:93,4
DA:92,4
DA:93,4
DA:92,4
DA:93,4
DA:92,5
DA:93,5
DA:92,4
DA:93,4
DA:92,4
DA:93,4
DA:92,4
DA:93,4
DA:92,4
DA:93,4
DA:92,4
DA:93,4
DA:92,4
DA:93,4
DA:92,4
DA:93,4
DA:92,4
DA:93,4
DA:92,3
DA:93,3
DA:92,4
DA:93,4
DA:92,4
DA:93,4
DA:92,4
DA:93,4
DA:92,4
DA:93,4
DA:92,4
DA:93,4
DA:92,4
DA:93,4
DA:92,4
DA:93,4
DA:97,4
DA:98,4
DA:97,4
DA:98,4
DA:97,4
DA:98,4
DA:97,4
DA:98,4
DA:97,4
DA:98,4
DA:97,4
DA:98,4
DA:97,4
DA:98,4
DA:97,4
DA:98,4
DA:97,3
DA:98,3
DA:97,4
DA:98,4
DA:97,4
DA:98,4
DA:97,4
DA:98,4
DA:97,4
DA:98,4
DA:97,4
DA:98,4
DA:97,4
DA:98,4
DA:97,4
DA:98,4
DA:97,4
DA:98,4
DA:97,4
DA:98,4
DA:97,4
DA:98,4
DA:97,4
DA:98,4
DA:97,4
DA:98,4
DA:97,4
DA:98,4
DA:97,4
DA:98,4
DA:97,4
DA:98,4
DA:97,4
DA:98,4
DA:97,4
DA:98,4
DA:97,4
DA:98,4
DA:97,4
DA:98,4
DA:97,4
DA:98,4
DA:97,4
DA:98,4
DA:97,4
DA:98,4
DA:97,4
DA:98,4
DA:97,4
DA:98,4
DA:97,4
DA:98,4
DA:97,4
DA:98,4
DA:97,4
DA:98,4
DA:97,4
DA:98,4
DA:97,4
DA:98,4
DA:97,4
DA:98,4
DA:97,4
DA:98,4
DA:97,4
DA:98,4
DA:97,4
DA:98,4
DA:97,4
DA:98,4
DA:97,4
DA:98,4
DA:97,4
DA:98,4
DA:97,4
DA:98,4
DA:97,4
DA:98,4
DA:97,4
DA:98,4
DA:97,4
DA:98,4
DA:97,4
DA:98,4
DA:97,4
DA:98,4
DA:97,4
DA:98,4
DA:97,4
DA:98,4
DA:97,4
DA:98,4
DA:97,4
DA:98,4
DA:97,4
DA:98,4
DA:97,4
DA:98,4
DA:97,4
DA:98,4
DA:97,4
DA:98,4
DA:97,4
DA:98,4
DA:97,4
DA:98,4
DA:97,4
DA:98,4
DA:97,4
DA:98,4
DA:97,4
DA:98,4
DA:97,4
DA:98,4
DA:97,4
DA:98,4
DA:97,4
DA:98,4
DA:97,4
DA:98,4
DA:97,4
DA:98,4
DA:97,4
DA:98,4
DA:97,4
DA:98,4
DA:97,3
DA:98,3
DA:97,4
DA:98,4
DA:97,4
DA:98,4
DA:97,4
DA:98,4
DA:97,4
DA:98,4
DA:97,4
DA:98,4
DA:97,4
DA:98,4
DA:97,4
DA:98,4
DA:97,4
DA:98,4
DA:97,4
DA:98,4
DA:97,4
DA:98,4
DA:97,4
DA:98,4
DA:97,4
DA:98,4
DA:97,4
DA:98,4
DA:97,4
DA:98,4
DA:97,4
DA:98,4
DA:136,0
DA:140,0
DA:141,0
DA:136,0
DA:140,0
DA:141,0
DA:136,0
DA:140,0
DA:141,0
DA:136,0
DA:140,0
DA:141,0
DA:136,0
DA:140,0
DA:141,0
DA:136,0
DA:140,0
DA:141,0
DA:136,0
DA:140,0
DA:141,0
DA:136,0
DA:140,0
DA:141,0
DA:136,0
DA:140,0
DA:141,0
DA:136,0
DA:140,0
DA:141,0
DA:136,0
DA:140,0
DA:141,0
DA:136,0
DA:140,0
DA:141,0
DA:136,0
DA:140,0
DA:141,0
DA:136,0
DA:140,0
DA:141,0
DA:136,0
DA:140,0
DA:141,0
DA:136,0
DA:140,0
DA:141,0
DA:136,0
DA:140,0
DA:141,0
DA:136,0
DA:140,0
DA:141,0
DA:136,0
DA:140,0
DA:141,0
DA:136,0
DA:140,0
DA:141,0
DA:136,0
DA:140,0
DA:141,0
DA:136,0
DA:140,0
DA:141,0
DA:136,0
DA:140,0
DA:141,0
DA:136,0
DA:140,0
DA:141,0
DA:136,0
DA:140,0
DA:141,0
DA:136,0
DA:140,0
DA:141,0
DA:136,0
DA:140,0
DA:141,0
DA:136,0
DA:140,0
DA:141,0
DA:136,0
DA:140,0
DA:141,0
DA:136,0
DA:140,0
DA:141,0
DA:136,0
DA:140,0
DA:141,0
DA:136,0
DA:140,0
DA:141,0
DA:136,0
DA:140,0
DA:141,0
DA:136,0
DA:140,0
DA:141,0
DA:136,0
DA:140,0
DA:141,0
DA:136,0
DA:140,0
DA:141,0
DA:136,0
DA:140,0
DA:141,0
DA:136,0
DA:140,0
DA:141,0
DA:136,0
DA:140,0
DA:141,0
DA:136,0
DA:140,0
DA:141,0
DA:136,0
DA:140,0
DA:141,0
DA:136,0
DA:140,0
DA:141,0
DA:136,0
DA:140,0
DA:141,0
DA:136,0
DA:140,0
DA:141,0
DA:136,0
DA:140,0
DA:141,0
DA:136,0
DA:140,0
DA:141,0
DA:136,0
DA:140,0
DA:141,0
DA:136,0
DA:140,0
DA:141,0
DA:136,0
DA:140,0
DA:141,0
DA:136,0
DA:140,0
DA:141,0
DA:136,0
DA:140,0
DA:141,0
DA:136,0
DA:140,0
DA:141,0
DA:136,0
DA:140,0
DA:141,0
DA:136,0
DA:140,0
DA:141,0
DA:136,0
DA:140,0
DA:141,0
DA:136,0
DA:140,0
DA:141,0
DA:136,0
DA:140,0
DA:141,0
DA:136,0
DA:140,0
DA:141,0
DA:136,0
DA:140,0
DA:141,0
DA:136,0
DA:140,0
DA:141,0
DA:136,0
DA:140,0
DA:141,0
DA:136,0
DA:140,0
DA:141,0
DA:136,0
DA:140,0
DA:141,0
DA:136,0
DA:140,0
DA:141,0
DA:136,0
DA:140,0
DA:141,0
DA:136,0
DA:140,0
DA:141,0
DA:136,0
DA:140,0
DA:141,0
DA:136,0
DA:140,0
DA:141,0
DA:136,0
DA:140,0
DA:141,0
DA:136,0
DA:140,0
DA:141,0
DA:136,0
DA:140,0
DA:141,0
DA:136,0
DA:140,0
DA:141,0
DA:136,0
DA:140,0
DA:141,0
DA:136,0
DA:140,0
DA:141,0
DA:136,0
DA:140,0
DA:141,0
DA:136,0
DA:140,0
DA:141,0
DA:136,0
DA:140,0
DA:141,0
DA:136,0
DA:140,0
DA:141,0
DA:136,0
DA:140,0
DA:141,0
DA:136,0
DA:140,0
DA:141,0
DA:136,0
DA:140,0
DA:141,0
DA:136,0
DA:140,0
DA:141,0
DA:136,0
DA:140,0
DA:141,0
DA:136,0
DA:140,0
DA:141,0
DA:136,0
DA:140,0
DA:141,0
DA:136,0
DA:140,0
DA:141,0
DA:136,0
DA:140,0
DA:141,0
DA:150,4
DA:152,4
DA:153,4
DA:150,4
DA:152,4
DA:153,4
DA:150,4
DA:152,4
DA:153,4
DA:150,4
DA:152,4
DA:153,4
DA:150,4
DA:152,4
DA:153,4
DA:150,4
DA:152,4
DA:153,4
DA:150,4
DA:152,4
DA:153,4
DA:150,4
DA:152,4
DA:153,4
DA:150,3
DA:152,3
DA:153,3
DA:150,4
DA:152,4
DA:153,4
DA:150,4
DA:152,4
DA:153,4
DA:150,4
DA:152,4
DA:153,4
DA:150,4
DA:152,4
DA:153,4
DA:150,4
DA:152,4
DA:153,4
DA:150,4
DA:152,4
DA:153,4
DA:150,4
DA:152,4
DA:153,4
DA:150,4
DA:152,4
DA:153,4
DA:150,4
DA:152,4
DA:153,4
DA:150,4
DA:152,4
DA:153,4
DA:150,4
DA:152,4
DA:153,4
DA:150,4
DA:152,4
DA:153,4
DA:150,4
DA:152,4
DA:153,4
DA:150,4
DA:152,4
DA:153,4
DA:150,4
DA:152,4
DA:153,4
DA:150,4
DA:152,4
DA:153,4
DA:150,4
DA:152,4
DA:153,4
DA:150,4
DA:152,4
DA:153,4
DA:150,4
DA:152,4
DA:153,4
DA:150,4
DA:152,4
DA:153,4
DA:150,4
DA:152,4
DA:153,4
DA:150,4
DA:152,4
DA:153,4
DA:150,4
DA:152,4
DA:153,4
DA:150,4
DA:152,4
DA:153,4
DA:150,4
DA:152,4
DA:153,4
DA:150,4
DA:152,4
DA:153,4
DA:150,4
DA:152,4
DA:153,4
DA:150,4
DA:152,4
DA:153,4
DA:150,4
DA:152,4
DA:153,4
DA:150,4
DA:152,4
DA:153,4
DA:150,4
DA:152,4
DA:153,4
DA:150,4
DA:152,4
DA:153,4
DA:150,4
DA:152,4
DA:153,4
DA:150,4
DA:152,4
DA:153,4
DA:150,4
DA:152,4
DA:153,4
DA:150,4
DA:152,4
DA:153,4
DA:150,4
DA:152,4
DA:153,4
DA:150,4
DA:152,4
DA:153,4
DA:150,4
DA:152,4
DA:153,4
DA:150,4
DA:152,4
DA:153,4
DA:150,4
DA:152,4
DA:153,4
DA:150,4
DA:152,4
DA:153,4
DA:150,4
DA:152,4
DA:153,4
DA:150,4
DA:152,4
DA:153,4
DA:150,4
DA:152,4
DA:153,4
DA:150,4
DA:152,4
DA:153,4
DA:150,4
DA:152,4
DA:153,4
DA:150,4
DA:152,4
DA:153,4
DA:150,4
DA:152,4
DA:153,4
DA:150,4
DA:152,4
DA:153,4
DA:150,4
DA:152,4
DA:153,4
DA:150,4
DA:152,4
DA:153,4
DA:150,4
DA:152,4
DA:153,4
DA:150,4
DA:152,4
DA:153,4
DA:150,4
DA:152,4
DA:153,4
DA:150,4
DA:152,4
DA:153,4
DA:150,4
DA:152,4
DA:153,4
DA:150,4
DA:152,4
DA:153,4
DA:150,4
DA:152,4
DA:153,4
DA:150,4
DA:152,4
DA:153,4
DA:150,4
DA:152,4
DA:153,4
DA:150,4
DA:152,4
DA:153,4
DA:150,3
DA:152,3
DA:153,3
DA:150,4
DA:152,4
DA:153,4
DA:150,4
DA:152,4
DA:153,4
DA:150,4
DA:152,4
DA:153,4
DA:150,4
DA:152,4
DA:153,4
DA:150,4
DA:152,4
DA:153,4
DA:150,4
DA:152,4
DA:153,4
DA:150,4
DA:152,4
DA:153,4
DA:150,4
DA:152,4
DA:153,4
DA:150,4
DA:152,4
DA:153,4
DA:150,4
DA:152,4
DA:153,4
DA:150,4
DA:152,4
DA:153,4
DA:150,4
DA:152,4
DA:153,4
DA:150,4
DA:152,4
DA:153,4
DA:150,4
DA:152,4
DA:153,4
DA:150,4
DA:152,4
DA:153,4
DA:167,4
DA:169,4
DA:170,4
DA:167,4
DA:169,4
DA:170,4
DA:167,4
DA:169,4
DA:170,4
DA:167,4
DA:169,4
DA:170,4
DA:167,4
DA:169,4
DA:170,4
DA:167,4
DA:169,4
DA:170,4
DA:167,4
DA:169,4
DA:170,4
DA:167,4
DA:169,4
DA:170,4
DA:167,3
DA:169,3
DA:170,3
DA:167,4
DA:169,4
DA:170,4
DA:167,4
DA:169,4
DA:170,4
DA:167,4
DA:169,4
DA:170,4
DA:167,4
DA:169,4
DA:170,4
DA:167,4
DA:169,4
DA:170,4
DA:167,4
DA:169,4
DA:170,4
DA:167,4
DA:169,4
DA:170,4
DA:167,4
DA:169,4
DA:170,4
DA:167,5
DA:169,5
DA:170,5
DA:167,4
DA:169,4
DA:170,4
DA:167,4
DA:169,4
DA:170,4
DA:167,4
DA:169,4
DA:170,4
DA:167,4
DA:169,4
DA:170,4
DA:167,4
DA:169,4
DA:170,4
DA:167,4
DA:169,4
DA:170,4
DA:167,4
DA:169,4
DA:170,4
DA:167,4
DA:169,4
DA:170,4
DA:167,4
DA:169,4
DA:170,4
DA:167,4
DA:169,4
DA:170,4
DA:167,4
DA:169,4
DA:170,4
DA:167,4
DA:169,4
DA:170,4
DA:167,4
DA:169,4
DA:170,4
DA:167,4
DA:169,4
DA:170,4
DA:167,4
DA:169,4
DA:170,4
DA:167,4
DA:169,4
DA:170,4
DA:167,4
DA:169,4
DA:170,4
DA:167,4
DA:169,4
DA:170,4
DA:167,4
DA:169,4
DA:170,4
DA:167,4
DA:169,4
DA:170,4
DA:167,4
DA:169,4
DA:170,4
DA:167,5
DA:169,5
DA:170,5
DA:167,4
DA:169,4
DA:170,4
DA:167,4
DA:169,4
DA:170,4
DA:167,4
DA:169,4
DA:170,4
DA:167,4
DA:169,4
DA:170,4
DA:167,4
DA:169,4
DA:170,4
DA:167,4
DA:169,4
DA:170,4
DA:167,4
DA:169,4
DA:170,4
DA:167,4
DA:169,4
DA:170,4
DA:167,4
DA:169,4
DA:170,4
DA:167,4
DA:169,4
DA:170,4
DA:167,4
DA:169,4
DA:170,4
DA:167,4
DA:169,4
DA:170,4
DA:167,4
DA:169,4
DA:170,4
DA:167,4
DA:169,4
DA:170,4
DA:167,4
DA:169,4
DA:170,4
DA:167,4
DA:169,4
DA:170,4
DA:167,4
DA:169,4
DA:170,4
DA:167,4
DA:169,4
DA:170,4
DA:167,4
DA:169,4
DA:170,4
DA:167,4
DA:169,4
DA:170,4
DA:167,4
DA:169,4
DA:170,4
DA:167,4
DA:169,4
DA:170,4
DA:167,4
DA:169,4
DA:170,4
DA:167,4
DA:169,4
DA:170,4
DA:167,4
DA:169,4
DA:170,4
DA:167,4
DA:169,4
DA:170,4
DA:167,4
DA:169,4
DA:170,4
DA:167,4
DA:169,4
DA:170,4
DA:167,4
DA:169,4
DA:170,4
DA:167,4
DA:169,4
DA:170,4
DA:167,4
DA:169,4
DA:170,4
DA:167,3
DA:169,3
DA:170,3
DA:167,4
DA:169,4
DA:170,4
DA:167,4
DA:169,4
DA:170,4
DA:167,4
DA:169,4
DA:170,4
DA:167,4
DA:169,4
DA:170,4
DA:167,4
DA:169,4
DA:170,4
DA:167,4
DA:169,4
DA:170,4
DA:167,4
DA:169,4
DA:170,4
DA:167,4
DA:169,4
DA:170,4
DA:167,4
DA:169,4
DA:170,4
DA:167,4
DA:169,4
DA:170,4
DA:167,4
DA:169,4
DA:170,4
DA:167,4
DA:169,4
DA:170,4
DA:167,4
DA:169,4
DA:170,4
DA:167,4
DA:169,4
DA:170,4
DA:167,4
DA:169,4
DA:170,4
DA:181,8
DA:184,8
BRDA:184,0,0,0
BRDA:184,0,1,0
BRDA:184,0,2,4
BRDA:184,0,3,4
BRDA:184,0,4,0
DA:187,0
DA:188,0
DA:189,0
DA:191,0
DA:192,0
DA:193,0
DA:195,4
DA:196,4
DA:197,4
DA:199,4
DA:200,4
DA:201,4
DA:203,8
DA:181,8
DA:184,8
BRDA:184,0,0,0
BRDA:184,0,1,0
BRDA:184,0,2,4
BRDA:184,0,3,4
BRDA:184,0,4,0
DA:187,0
DA:188,0
DA:189,0
DA:191,0
DA:192,0
DA:193,0
DA:195,4
DA:196,4
DA:197,4
DA:199,4
DA:200,4
DA:201,4
DA:203,8
DA:181,8
DA:184,8
BRDA:184,0,0,0
BRDA:184,0,1,0
BRDA:184,0,2,4
BRDA:184,0,3,4
BRDA:184,0,4,0
DA:187,0
DA:188,0
DA:189,0
DA:191,0
DA:192,0
DA:193,0
DA:195,4
DA:196,4
DA:197,4
DA:199,4
DA:200,4
DA:201,4
DA:203,8
DA:181,8
DA:184,8
BRDA:184,0,0,0
BRDA:184,0,1,0
BRDA:184,0,2,4
BRDA:184,0,3,4
BRDA:184,0,4,0
DA:187,0
DA:188,0
DA:189,0
DA:191,0
DA:192,0
DA:193,0
DA:195,4
DA:196,4
DA:197,4
DA:199,4
DA:200,4
DA:201,4
DA:203,8
DA:181,8
DA:184,8
BRDA:184,0,0,0
BRDA:184,0,1,0
BRDA:184,0,2,4
BRDA:184,0,3,4
BRDA:184,0,4,0
DA:187,0
DA:188,0
DA:189,0
DA:191,0
DA:192,0
DA:193,0
DA:195,4
DA:196,4
DA:197,4
DA:199,4
DA:200,4
DA:201,4
DA:203,8
DA:181,8
DA:184,8
BRDA:184,0,0,0
BRDA:184,0,1,0
BRDA:184,0,2,4
BRDA:184,0,3,4
BRDA:184,0,4,0
DA:187,0
DA:188,0
DA:189,0
DA:191,0
DA:192,0
DA:193,0
DA:195,4
DA:196,4
DA:197,4
DA:199,4
DA:200,4
DA:201,4
DA:203,8
DA:181,8
DA:184,8
BRDA:184,0,0,0
BRDA:184,0,1,0
BRDA:184,0,2,4
BRDA:184,0,3,4
BRDA:184,0,4,0
DA:187,0
DA:188,0
DA:189,0
DA:191,0
DA:192,0
DA:193,0
DA:195,4
DA:196,4
DA:197,4
DA:199,4
DA:200,4
DA:201,4
DA:203,8
DA:181,8
DA:184,8
BRDA:184,0,0,0
BRDA:184,0,1,0
BRDA:184,0,2,4
BRDA:184,0,3,4
BRDA:184,0,4,0
DA:187,0
DA:188,0
DA:189,0
DA:191,0
DA:192,0
DA:193,0
DA:195,4
DA:196,4
DA:197,4
DA:199,4
DA:200,4
DA:201,4
DA:203,8
DA:181,6
DA:184,6
BRDA:184,0,0,0
BRDA:184,0,1,0
BRDA:184,0,2,3
BRDA:184,0,3,3
BRDA:184,0,4,0
DA:187,0
DA:188,0
DA:189,0
DA:191,0
DA:192,0
DA:193,0
DA:195,3
DA:196,3
DA:197,3
DA:199,3
DA:200,3
DA:201,3
DA:203,6
DA:181,8
DA:184,8
BRDA:184,0,0,0
BRDA:184,0,1,0
BRDA:184,0,2,4
BRDA:184,0,3,4
BRDA:184,0,4,0
DA:187,0
DA:188,0
DA:189,0
DA:191,0
DA:192,0
DA:193,0
DA:195,4
DA:196,4
DA:197,4
DA:199,4
DA:200,4
DA:201,4
DA:203,8
DA:181,8
DA:184,8
BRDA:184,0,0,0
BRDA:184,0,1,0
BRDA:184,0,2,4
BRDA:184,0,3,4
BRDA:184,0,4,0
DA:187,0
DA:188,0
DA:189,0
DA:191,0
DA:192,0
DA:193,0
DA:195,4
DA:196,4
DA:197,4
DA:199,4
DA:200,4
DA:201,4
DA:203,8
DA:181,8
DA:184,8
BRDA:184,0,0,0
BRDA:184,0,1,0
BRDA:184,0,2,4
BRDA:184,0,3,4
BRDA:184,0,4,0
DA:187,0
DA:188,0
DA:189,0
DA:191,0
DA:192,0
DA:193,0
DA:195,4
DA:196,4
DA:197,4
DA:199,4
DA:200,4
DA:201,4
DA:203,8
DA:181,8
DA:184,8
BRDA:184,0,0,0
BRDA:184,0,1,0
BRDA:184,0,2,4
BRDA:184,0,3,4
BRDA:184,0,4,0
DA:187,0
DA:188,0
DA:189,0
DA:191,0
DA:192,0
DA:193,0
DA:195,4
DA:196,4
DA:197,4
DA:199,4
DA:200,4
DA:201,4
DA:203,8
DA:181,8
DA:184,8
BRDA:184,0,0,0
BRDA:184,0,1,0
BRDA:184,0,2,4
BRDA:184,0,3,4
BRDA:184,0,4,0
DA:187,0
DA:188,0
DA:189,0
DA:191,0
DA:192,0
DA:193,0
DA:195,4
DA:196,4
DA:197,4
DA:199,4
DA:200,4
DA:201,4
DA:203,8
DA:181,8
DA:184,8
BRDA:184,0,0,0
BRDA:184,0,1,0
BRDA:184,0,2,4
BRDA:184,0,3,4
BRDA:184,0,4,0
DA:187,0
DA:188,0
DA:189,0
DA:191,0
DA:192,0
DA:193,0
DA:195,4
DA:196,4
DA:197,4
DA:199,4
DA:200,4
DA:201,4
DA:203,8
DA:181,8
DA:184,8
BRDA:184,0,0,0
BRDA:184,0,1,0
BRDA:184,0,2,4
BRDA:184,0,3,4
BRDA:184,0,4,0
DA:187,0
DA:188,0
DA:189,0
DA:191,0
DA:192,0
DA:193,0
DA:195,4
DA:196,4
DA:197,4
DA:199,4
DA:200,4
DA:201,4
DA:203,8
DA:181,8
DA:184,8
BRDA:184,0,0,0
BRDA:184,0,1,0
BRDA:184,0,2,4
BRDA:184,0,3,4
BRDA:184,0,4,0
DA:187,0
DA:188,0
DA:189,0
DA:191,0
DA:192,0
DA:193,0
DA:195,4
DA:196,4
DA:197,4
DA:199,4
DA:200,4
DA:201,4
DA:203,8
DA:181,9
DA:184,9
BRDA:184,0,0,0
BRDA:184,0,1,0
BRDA:184,0,2,4
BRDA:184,0,3,5
BRDA:184,0,4,0
DA:187,0
DA:188,0
DA:189,0
DA:191,0
DA:192,0
DA:193,0
DA:195,4
DA:196,4
DA:197,4
DA:199,5
DA:200,5
DA:201,5
DA:203,9
DA:181,8
DA:184,8
BRDA:184,0,0,0
BRDA:184,0,1,0
BRDA:184,0,2,4
BRDA:184,0,3,4
BRDA:184,0,4,0
DA:187,0
DA:188,0
DA:189,0
DA:191,0
DA:192,0
DA:193,0
DA:195,4
DA:196,4
DA:197,4
DA:199,4
DA:200,4
DA:201,4
DA:203,8
DA:181,8
DA:184,8
BRDA:184,0,0,0
BRDA:184,0,1,0
BRDA:184,0,2,4
BRDA:184,0,3,4
BRDA:184,0,4,0
DA:187,0
DA:188,0
DA:189,0
DA:191,0
DA:192,0
DA:193,0
DA:195,4
DA:196,4
DA:197,4
DA:199,4
DA:200,4
DA:201,4
DA:203,8
DA:181,8
DA:184,8
BRDA:184,0,0,0
BRDA:184,0,1,0
BRDA:184,0,2,4
BRDA:184,0,3,4
BRDA:184,0,4,0
DA:187,0
DA:188,0
DA:189,0
DA:191,0
DA:192,0
DA:193,0
DA:195,4
DA:196,4
DA:197,4
DA:199,4
DA:200,4
DA:201,4
DA:203,8
DA:181,8
DA:184,8
BRDA:184,0,0,0
BRDA:184,0,1,0
BRDA:184,0,2,4
BRDA:184,0,3,4
BRDA:184,0,4,0
DA:187,0
DA:188,0
DA:189,0
DA:191,0
DA:192,0
DA:193,0
DA:195,4
DA:196,4
DA:197,4
DA:199,4
DA:200,4
DA:201,4
DA:203,8
DA:181,8
DA:184,8
BRDA:184,0,0,0
BRDA:184,0,1,0
BRDA:184,0,2,4
BRDA:184,0,3,4
BRDA:184,0,4,0
DA:187,0
DA:188,0
DA:189,0
DA:191,0
DA:192,0
DA:193,0
DA:195,4
DA:196,4
DA:197,4
DA:199,4
DA:200,4
DA:201,4
DA:203,8
DA:181,8
DA:184,8
BRDA:184,0,0,0
BRDA:184,0,1,0
BRDA:184,0,2,4
BRDA:184,0,3,4
BRDA:184,0,4,0
DA:187,0
DA:188,0
DA:189,0
DA:191,0
DA:192,0
DA:193,0
DA:195,4
DA:196,4
DA:197,4
DA:199,4
DA:200,4
DA:201,4
DA:203,8
DA:181,8
DA:184,8
BRDA:184,0,0,0
BRDA:184,0,1,0
BRDA:184,0,2,4
BRDA:184,0,3,4
BRDA:184,0,4,0
DA:187,0
DA:188,0
DA:189,0
DA:191,0
DA:192,0
DA:193,0
DA:195,4
DA:196,4
DA:197,4
DA:199,4
DA:200,4
DA:201,4
DA:203,8
DA:181,8
DA:184,8
BRDA:184,0,0,0
BRDA:184,0,1,0
BRDA:184,0,2,4
BRDA:184,0,3,4
BRDA:184,0,4,0
DA:187,0
DA:188,0
DA:189,0
DA:191,0
DA:192,0
DA:193,0
DA:195,4
DA:196,4
DA:197,4
DA:199,4
DA:200,4
DA:201,4
DA:203,8
DA:181,8
DA:184,8
BRDA:184,0,0,0
BRDA:184,0,1,0
BRDA:184,0,2,4
BRDA:184,0,3,4
BRDA:184,0,4,0
DA:187,0
DA:188,0
DA:189,0
DA:191,0
DA:192,0
DA:193,0
DA:195,4
DA:196,4
DA:197,4
DA:199,4
DA:200,4
DA:201,4
DA:203,8
DA:181,8
DA:184,8
BRDA:184,0,0,0
BRDA:184,0,1,0
BRDA:184,0,2,4
BRDA:184,0,3,4
BRDA:184,0,4,0
DA:187,0
DA:188,0
DA:189,0
DA:191,0
DA:192,0
DA:193,0
DA:195,4
DA:196,4
DA:197,4
DA:199,4
DA:200,4
DA:201,4
DA:203,8
DA:181,8
DA:184,8
BRDA:184,0,0,0
BRDA:184,0,1,0
BRDA:184,0,2,4
BRDA:184,0,3,4
BRDA:184,0,4,0
DA:187,0
DA:188,0
DA:189,0
DA:191,0
DA:192,0
DA:193,0
DA:195,4
DA:196,4
DA:197,4
DA:199,4
DA:200,4
DA:201,4
DA:203,8
DA:181,8
DA:184,8
BRDA:184,0,0,0
BRDA:184,0,1,0
BRDA:184,0,2,4
BRDA:184,0,3,4
BRDA:184,0,4,0
DA:187,0
DA:188,0
DA:189,0
DA:191,0
DA:192,0
DA:193,0
DA:195,4
DA:196,4
DA:197,4
DA:199,4
DA:200,4
DA:201,4
DA:203,8
DA:181,8
DA:184,8
BRDA:184,0,0,0
BRDA:184,0,1,0
BRDA:184,0,2,4
BRDA:184,0,3,4
BRDA:184,0,4,0
DA:187,0
DA:188,0
DA:189,0
DA:191,0
DA:192,0
DA:193,0
DA:195,4
DA:196,4
DA:197,4
DA:199,4
DA:200,4
DA:201,4
DA:203,8
DA:181,8
DA:184,8
BRDA:184,0,0,0
BRDA:184,0,1,0
BRDA:184,0,2,4
BRDA:184,0,3,4
BRDA:184,0,4,0
DA:187,0
DA:188,0
DA:189,0
DA:191,0
DA:192,0
DA:193,0
DA:195,4
DA:196,4
DA:197,4
DA:199,4
DA:200,4
DA:201,4
DA:203,8
DA:181,8
DA:184,8
BRDA:184,0,0,0
BRDA:184,0,1,0
BRDA:184,0,2,4
BRDA:184,0,3,4
BRDA:184,0,4,0
DA:187,0
DA:188,0
DA:189,0
DA:191,0
DA:192,0
DA:193,0
DA:195,4
DA:196,4
DA:197,4
DA:199,4
DA:200,4
DA:201,4
DA:203,8
DA:181,8
DA:184,8
BRDA:184,0,0,0
BRDA:184,0,1,0
BRDA:184,0,2,4
BRDA:184,0,3,4
BRDA:184,0,4,0
DA:187,0
DA:188,0
DA:189,0
DA:191,0
DA:192,0
DA:193,0
DA:195,4
DA:196,4
DA:197,4
DA:199,4
DA:200,4
DA:201,4
DA:203,8
DA:181,8
DA:184,8
BRDA:184,0,0,0
BRDA:184,0,1,0
BRDA:184,0,2,4
BRDA:184,0,3,4
BRDA:184,0,4,0
DA:187,0
DA:188,0
DA:189,0
DA:191,0
DA:192,0
DA:193,0
DA:195,4
DA:196,4
DA:197,4
DA:199,4
DA:200,4
DA:201,4
DA:203,8
DA:181,8
DA:184,8
BRDA:184,0,0,0
BRDA:184,0,1,0
BRDA:184,0,2,4
BRDA:184,0,3,4
BRDA:184,0,4,0
DA:187,0
DA:188,0
DA:189,0
DA:191,0
DA:192,0
DA:193,0
DA:195,4
DA:196,4
DA:197,4
DA:199,4
DA:200,4
DA:201,4
DA:203,8
DA:181,8
DA:184,8
BRDA:184,0,0,0
BRDA:184,0,1,0
BRDA:184,0,2,4
BRDA:184,0,3,4
BRDA:184,0,4,0
DA:187,0
DA:188,0
DA:189,0
DA:191,0
DA:192,0
DA:193,0
DA:195,4
DA:196,4
DA:197,4
DA:199,4
DA:200,4
DA:201,4
DA:203,8
DA:181,8
DA:184,8
BRDA:184,0,0,0
BRDA:184,0,1,0
BRDA:184,0,2,4
BRDA:184,0,3,4
BRDA:184,0,4,0
DA:187,0
DA:188,0
DA:189,0
DA:191,0
DA:192,0
DA:193,0
DA:195,4
DA:196,4
DA:197,4
DA:199,4
DA:200,4
DA:201,4
DA:203,8
DA:181,8
DA:184,8
BRDA:184,0,0,0
BRDA:184,0,1,0
BRDA:184,0,2,4
BRDA:184,0,3,4
BRDA:184,0,4,0
DA:187,0
DA:188,0
DA:189,0
DA:191,0
DA:192,0
DA:193,0
DA:195,4
DA:196,4
DA:197,4
DA:199,4
DA:200,4
DA:201,4
DA:203,8
DA:181,9
DA:184,9
BRDA:184,0,0,0
BRDA:184,0,1,0
BRDA:184,0,2,4
BRDA:184,0,3,5
BRDA:184,0,4,0
DA:187,0
DA:188,0
DA:189,0
DA:191,0
DA:192,0
DA:193,0
DA:195,4
DA:196,4
DA:197,4
DA:199,5
DA:200,5
DA:201,5
DA:203,9
DA:181,8
DA:184,8
BRDA:184,0,0,0
BRDA:184,0,1,0
BRDA:184,0,2,4
BRDA:184,0,3,4
BRDA:184,0,4,0
DA:187,0
DA:188,0
DA:189,0
DA:191,0
DA:192,0
DA:193,0
DA:195,4
DA:196,4
DA:197,4
DA:199,4
DA:200,4
DA:201,4
DA:203,8
DA:181,8
DA:184,8
BRDA:184,0,0,0
BRDA:184,0,1,0
BRDA:184,0,2,4
BRDA:184,0,3,4
BRDA:184,0,4,0
DA:187,0
DA:188,0
DA:189,0
DA:191,0
DA:192,0
DA:193,0
DA:195,4
DA:196,4
DA:197,4
DA:199,4
DA:200,4
DA:201,4
DA:203,8
DA:181,8
DA:184,8
BRDA:184,0,0,0
BRDA:184,0,1,0
BRDA:184,0,2,4
BRDA:184,0,3,4
BRDA:184,0,4,0
DA:187,0
DA:188,0
DA:189,0
DA:191,0
DA:192,0
DA:193,0
DA:195,4
DA:196,4
DA:197,4
DA:199,4
DA:200,4
DA:201,4
DA:203,8
DA:181,8
DA:184,8
BRDA:184,0,0,0
BRDA:184,0,1,0
BRDA:184,0,2,4
BRDA:184,0,3,4
BRDA:184,0,4,0
DA:187,0
DA:188,0
DA:189,0
DA:191,0
DA:192,0
DA:193,0
DA:195,4
DA:196,4
DA:197,4
DA:199,4
DA:200,4
DA:201,4
DA:203,8
DA:181,8
DA:184,8
BRDA:184,0,0,0
BRDA:184,0,1,0
BRDA:184,0,2,4
BRDA:184,0,3,4
BRDA:184,0,4,0
DA:187,0
DA:188,0
DA:189,0
DA:191,0
DA:192,0
DA:193,0
DA:195,4
DA:196,4
DA:197,4
DA:199,4
DA:200,4
DA:201,4
DA:203,8
DA:181,8
DA:184,8
BRDA:184,0,0,0
BRDA:184,0,1,0
BRDA:184,0,2,4
BRDA:184,0,3,4
BRDA:184,0,4,0
DA:187,0
DA:188,0
DA:189,0
DA:191,0
DA:192,0
DA:193,0
DA:195,4
DA:196,4
DA:197,4
DA:199,4
DA:200,4
DA:201,4
DA:203,8
DA:181,8
DA:184,8
BRDA:184,0,0,0
BRDA:184,0,1,0
BRDA:184,0,2,4
BRDA:184,0,3,4
BRDA:184,0,4,0
DA:187,0
DA:188,0
DA:189,0
DA:191,0
DA:192,0
DA:193,0
DA:195,4
DA:196,4
DA:197,4
DA:199,4
DA:200,4
DA:201,4
DA:203,8
DA:181,8
DA:184,8
BRDA:184,0,0,0
BRDA:184,0,1,0
BRDA:184,0,2,4
BRDA:184,0,3,4
BRDA:184,0,4,0
DA:187,0
DA:188,0
DA:189,0
DA:191,0
DA:192,0
DA:193,0
DA:195,4
DA:196,4
DA:197,4
DA:199,4
DA:200,4
DA:201,4
DA:203,8
DA:181,8
DA:184,8
BRDA:184,0,0,0
BRDA:184,0,1,0
BRDA:184,0,2,4
BRDA:184,0,3,4
BRDA:184,0,4,0
DA:187,0
DA:188,0
DA:189,0
DA:191,0
DA:192,0
DA:193,0
DA:195,4
DA:196,4
DA:197,4
DA:199,4
DA:200,4
DA:201,4
DA:203,8
DA:181,8
DA:184,8
BRDA:184,0,0,0
BRDA:184,0,1,0
BRDA:184,0,2,4
BRDA:184,0,3,4
BRDA:184,0,4,0
DA:187,0
DA:188,0
DA:189,0
DA:191,0
DA:192,0
DA:193,0
DA:195,4
DA:196,4
DA:197,4
DA:199,4
DA:200,4
DA:201,4
DA:203,8
DA:181,8
DA:184,8
BRDA:184,0,0,0
BRDA:184,0,1,0
BRDA:184,0,2,4
BRDA:184,0,3,4
BRDA:184,0,4,0
DA:187,0
DA:188,0
DA:189,0
DA:191,0
DA:192,0
DA:193,0
DA:195,4
DA:196,4
DA:197,4
DA:199,4
DA:200,4
DA:201,4
DA:203,8
DA:181,8
DA:184,8
BRDA:184,0,0,0
BRDA:184,0,1,0
BRDA:184,0,2,4
BRDA:184,0,3,4
BRDA:184,0,4,0
DA:187,0
DA:188,0
DA:189,0
DA:191,0
DA:192,0
DA:193,0
DA:195,4
DA:196,4
DA:197,4
DA:199,4
DA:200,4
DA:201,4
DA:203,8
DA:181,8
DA:184,8
BRDA:184,0,0,0
BRDA:184,0,1,0
BRDA:184,0,2,4
BRDA:184,0,3,4
BRDA:184,0,4,0
DA:187,0
DA:188,0
DA:189,0
DA:191,0
DA:192,0
DA:193,0
DA:195,4
DA:196,4
DA:197,4
DA:199,4
DA:200,4
DA:201,4
DA:203,8
DA:181,8
DA:184,8
BRDA:184,0,0,0
BRDA:184,0,1,0
BRDA:184,0,2,4
BRDA:184,0,3,4
BRDA:184,0,4,0
DA:187,0
DA:188,0
DA:189,0
DA:191,0
DA:192,0
DA:193,0
DA:195,4
DA:196,4
DA:197,4
DA:199,4
DA:200,4
DA:201,4
DA:203,8
DA:181,8
DA:184,8
BRDA:184,0,0,0
BRDA:184,0,1,0
BRDA:184,0,2,4
BRDA:184,0,3,4
BRDA:184,0,4,0
DA:187,0
DA:188,0
DA:189,0
DA:191,0
DA:192,0
DA:193,0
DA:195,4
DA:196,4
DA:197,4
DA:199,4
DA:200,4
DA:201,4
DA:203,8
DA:181,8
DA:184,8
BRDA:184,0,0,0
BRDA:184,0,1,0
BRDA:184,0,2,4
BRDA:184,0,3,4
BRDA:184,0,4,0
DA:187,0
DA:188,0
DA:189,0
DA:191,0
DA:192,0
DA:193,0
DA:195,4
DA:196,4
DA:197,4
DA:199,4
DA:200,4
DA:201,4
DA:203,8
DA:181,8
DA:184,8
BRDA:184,0,0,0
BRDA:184,0,1,0
BRDA:184,0,2,4
BRDA:184,0,3,4
BRDA:184,0,4,0
DA:187,0
DA:188,0
DA:189,0
DA:191,0
DA:192,0
DA:193,0
DA:195,4
DA:196,4
DA:197,4
DA:199,4
DA:200,4
DA:201,4
DA:203,8
DA:181,8
DA:184,8
BRDA:184,0,0,0
BRDA:184,0,1,0
BRDA:184,0,2,4
BRDA:184,0,3,4
BRDA:184,0,4,0
DA:187,0
DA:188,0
DA:189,0
DA:191,0
DA:192,0
DA:193,0
DA:195,4
DA:196,4
DA:197,4
DA:199,4
DA:200,4
DA:201,4
DA:203,8
DA:181,8
DA:184,8
BRDA:184,0,0,0
BRDA:184,0,1,0
BRDA:184,0,2,4
BRDA:184,0,3,4
BRDA:184,0,4,0
DA:187,0
DA:188,0
DA:189,0
DA:191,0
DA:192,0
DA:193,0
DA:195,4
DA:196,4
DA:197,4
DA:199,4
DA:200,4
DA:201,4
DA:203,8
DA:181,8
DA:184,8
BRDA:184,0,0,0
BRDA:184,0,1,0
BRDA:184,0,2,4
BRDA:184,0,3,4
BRDA:184,0,4,0
DA:187,0
DA:188,0
DA:189,0
DA:191,0
DA:192,0
DA:193,0
DA:195,4
DA:196,4
DA:197,4
DA:199,4
DA:200,4
DA:201,4
DA:203,8
DA:181,8
DA:184,8
BRDA:184,0,0,0
BRDA:184,0,1,0
BRDA:184,0,2,4
BRDA:184,0,3,4
BRDA:184,0,4,0
DA:187,0
DA:188,0
DA:189,0
DA:191,0
DA:192,0
DA:193,0
DA:195,4
DA:196,4
DA:197,4
DA:199,4
DA:200,4
DA:201,4
DA:203,8
DA:181,8
DA:184,8
BRDA:184,0,0,0
BRDA:184,0,1,0
BRDA:184,0,2,4
BRDA:184,0,3,4
BRDA:184,0,4,0
DA:187,0
DA:188,0
DA:189,0
DA:191,0
DA:192,0
DA:193,0
DA:195,4
DA:196,4
DA:197,4
DA:199,4
DA:200,4
DA:201,4
DA:203,8
DA:181,8
DA:184,8
BRDA:184,0,0,0
BRDA:184,0,1,0
BRDA:184,0,2,4
BRDA:184,0,3,4
BRDA:184,0,4,0
DA:187,0
DA:188,0
DA:189,0
DA:191,0
DA:192,0
DA:193,0
DA:195,4
DA:196,4
DA:197,4
DA:199,4
DA:200,4
DA:201,4
DA:203,8
DA:181,8
DA:184,8
BRDA:184,0,0,0
BRDA:184,0,1,0
BRDA:184,0,2,4
BRDA:184,0,3,4
BRDA:184,0,4,0
DA:187,0
DA:188,0
DA:189,0
DA:191,0
DA:192,0
DA:193,0
DA:195,4
DA:196,4
DA:197,4
DA:199,4
DA:200,4
DA:201,4
DA:203,8
DA:181,8
DA:184,8
BRDA:184,0,0,0
BRDA:184,0,1,0
BRDA:184,0,2,4
BRDA:184,0,3,4
BRDA:184,0,4,0
DA:187,0
DA:188,0
DA:189,0
DA:191,0
DA:192,0
DA:193,0
DA:195,4
DA:196,4
DA:197,4
DA:199,4
DA:200,4
DA:201,4
DA:203,8
DA:181,8
DA:184,8
BRDA:184,0,0,0
BRDA:184,0,1,0
BRDA:184,0,2,4
BRDA:184,0,3,4
BRDA:184,0,4,0
DA:187,0
DA:188,0
DA:189,0
DA:191,0
DA:192,0
DA:193,0
DA:195,4
DA:196,4
DA:197,4
DA:199,4
DA:200,4
DA:201,4
DA:203,8
DA:181,8
DA:184,8
BRDA:184,0,0,0
BRDA:184,0,1,0
BRDA:184,0,2,4
BRDA:184,0,3,4
BRDA:184,0,4,0
DA:187,0
DA:188,0
DA:189,0
DA:191,0
DA:192,0
DA:193,0
DA:195,4
DA:196,4
DA:197,4
DA:199,4
DA:200,4
DA:201,4
DA:203,8
DA:181,8
DA:184,8
BRDA:184,0,0,0
BRDA:184,0,1,0
BRDA:184,0,2,4
BRDA:184,0,3,4
BRDA:184,0,4,0
DA:187,0
DA:188,0
DA:189,0
DA:191,0
DA:192,0
DA:193,0
DA:195,4
DA:196,4
DA:197,4
DA:199,4
DA:200,4
DA:201,4
DA:203,8
DA:181,8
DA:184,8
BRDA:184,0,0,0
BRDA:184,0,1,0
BRDA:184,0,2,4
BRDA:184,0,3,4
BRDA:184,0,4,0
DA:187,0
DA:188,0
DA:189,0
DA:191,0
DA:192,0
DA:193,0
DA:195,4
DA:196,4
DA:197,4
DA:199,4
DA:200,4
DA:201,4
DA:203,8
DA:181,8
DA:184,8
BRDA:184,0,0,0
BRDA:184,0,1,0
BRDA:184,0,2,4
BRDA:184,0,3,4
BRDA:184,0,4,0
DA:187,0
DA:188,0
DA:189,0
DA:191,0
DA:192,0
DA:193,0
DA:195,4
DA:196,4
DA:197,4
DA:199,4
DA:200,4
DA:201,4
DA:203,8
DA:181,8
DA:184,8
BRDA:184,0,0,0
BRDA:184,0,1,0
BRDA:184,0,2,4
BRDA:184,0,3,4
BRDA:184,0,4,0
DA:187,0
DA:188,0
DA:189,0
DA:191,0
DA:192,0
DA:193,0
DA:195,4
DA:196,4
DA:197,4
DA:199,4
DA:200,4
DA:201,4
DA:203,8
DA:181,6
DA:184,6
BRDA:184,0,0,0
BRDA:184,0,1,0
BRDA:184,0,2,3
BRDA:184,0,3,3
BRDA:184,0,4,0
DA:187,0
DA:188,0
DA:189,0
DA:191,0
DA:192,0
DA:193,0
DA:195,3
DA:196,3
DA:197,3
DA:199,3
DA:200,3
DA:201,3
DA:203,6
DA:181,8
DA:184,8
BRDA:184,0,0,0
BRDA:184,0,1,0
BRDA:184,0,2,4
BRDA:184,0,3,4
BRDA:184,0,4,0
DA:187,0
DA:188,0
DA:189,0
DA:191,0
DA:192,0
DA:193,0
DA:195,4
DA:196,4
DA:197,4
DA:199,4
DA:200,4
DA:201,4
DA:203,8
DA:181,8
DA:184,8
BRDA:184,0,0,0
BRDA:184,0,1,0
BRDA:184,0,2,4
BRDA:184,0,3,4
BRDA:184,0,4,0
DA:187,0
DA:188,0
DA:189,0
DA:191,0
DA:192,0
DA:193,0
DA:195,4
DA:196,4
DA:197,4
DA:199,4
DA:200,4
DA:201,4
DA:203,8
DA:181,8
DA:184,8
BRDA:184,0,0,0
BRDA:184,0,1,0
BRDA:184,0,2,4
BRDA:184,0,3,4
BRDA:184,0,4,0
DA:187,0
DA:188,0
DA:189,0
DA:191,0
DA:192,0
DA:193,0
DA:195,4
DA:196,4
DA:197,4
DA:199,4
DA:200,4
DA:201,4
DA:203,8
DA:181,8
DA:184,8
BRDA:184,0,0,0
BRDA:184,0,1,0
BRDA:184,0,2,4
BRDA:184,0,3,4
BRDA:184,0,4,0
DA:187,0
DA:188,0
DA:189,0
DA:191,0
DA:192,0
DA:193,0
DA:195,4
DA:196,4
DA:197,4
DA:199,4
DA:200,4
DA:201,4
DA:203,8
DA:181,8
DA:184,8
BRDA:184,0,0,0
BRDA:184,0,1,0
BRDA:184,0,2,4
BRDA:184,0,3,4
BRDA:184,0,4,0
DA:187,0
DA:188,0
DA:189,0
DA:191,0
DA:192,0
DA:193,0
DA:195,4
DA:196,4
DA:197,4
DA:199,4
DA:200,4
DA:201,4
DA:203,8
DA:181,8
DA:184,8
BRDA:184,0,0,0
BRDA:184,0,1,0
BRDA:184,0,2,4
BRDA:184,0,3,4
BRDA:184,0,4,0
DA:187,0
DA:188,0
DA:189,0
DA:191,0
DA:192,0
DA:193,0
DA:195,4
DA:196,4
DA:197,4
DA:199,4
DA:200,4
DA:201,4
DA:203,8
DA:181,8
DA:184,8
BRDA:184,0,0,0
BRDA:184,0,1,0
BRDA:184,0,2,4
BRDA:184,0,3,4
BRDA:184,0,4,0
DA:187,0
DA:188,0
DA:189,0
DA:191,0
DA:192,0
DA:193,0
DA:195,4
DA:196,4
DA:197,4
DA:199,4
DA:200,4
DA:201,4
DA:203,8
DA:181,8
DA:184,8
BRDA:184,0,0,0
BRDA:184,0,1,0
BRDA:184,0,2,4
BRDA:184,0,3,4
BRDA:184,0,4,0
DA:187,0
DA:188,0
DA:189,0
DA:191,0
DA:192,0
DA:193,0
DA:195,4
DA:196,4
DA:197,4
DA:199,4
DA:200,4
DA:201,4
DA:203,8
DA:181,8
DA:184,8
BRDA:184,0,0,0
BRDA:184,0,1,0
BRDA:184,0,2,4
BRDA:184,0,3,4
BRDA:184,0,4,0
DA:187,0
DA:188,0
DA:189,0
DA:191,0
DA:192,0
DA:193,0
DA:195,4
DA:196,4
DA:197,4
DA:199,4
DA:200,4
DA:201,4
DA:203,8
DA:181,8
DA:184,8
BRDA:184,0,0,0
BRDA:184,0,1,0
BRDA:184,0,2,4
BRDA:184,0,3,4
BRDA:184,0,4,0
DA:187,0
DA:188,0
DA:189,0
DA:191,0
DA:192,0
DA:193,0
DA:195,4
DA:196,4
DA:197,4
DA:199,4
DA:200,4
DA:201,4
DA:203,8
DA:181,8
DA:184,8
BRDA:184,0,0,0
BRDA:184,0,1,0
BRDA:184,0,2,4
BRDA:184,0,3,4
BRDA:184,0,4,0
DA:187,0
DA:188,0
DA:189,0
DA:191,0
DA:192,0
DA:193,0
DA:195,4
DA:196,4
DA:197,4
DA:199,4
DA:200,4
DA:201,4
DA:203,8
DA:181,8
DA:184,8
BRDA:184,0,0,0
BRDA:184,0,1,0
BRDA:184,0,2,4
BRDA:184,0,3,4
BRDA:184,0,4,0
DA:187,0
DA:188,0
DA:189,0
DA:191,0
DA:192,0
DA:193,0
DA:195,4
DA:196,4
DA:197,4
DA:199,4
DA:200,4
DA:201,4
DA:203,8
DA:181,8
DA:184,8
BRDA:184,0,0,0
BRDA:184,0,1,0
BRDA:184,0,2,4
BRDA:184,0,3,4
BRDA:184,0,4,0
DA:187,0
DA:188,0
DA:189,0
DA:191,0
DA:192,0
DA:193,0
DA:195,4
DA:196,4
DA:197,4
DA:199,4
DA:200,4
DA:201,4
DA:203,8
DA:181,8
DA:184,8
BRDA:184,0,0,0
BRDA:184,0,1,0
BRDA:184,0,2,4
BRDA:184,0,3,4
BRDA:184,0,4,0
DA:187,0
DA:188,0
DA:189,0
DA:191,0
DA:192,0
DA:193,0
DA:195,4
DA:196,4
DA:197,4
DA:199,4
DA:200,4
DA:201,4
DA:203,8
DA:181,8
DA:184,8
BRDA:184,0,0,0
BRDA:184,0,1,0
BRDA:184,0,2,4
BRDA:184,0,3,4
BRDA:184,0,4,0
DA:187,0
DA:188,0
DA:189,0
DA:191,0
DA:192,0
DA:193,0
DA:195,4
DA:196,4
DA:197,4
DA:199,4
DA:200,4
DA:201,4
DA:203,8
DA:207,1
DA:208,1
DA:207,1
DA:208,1
DA:207,1
DA:208,1
DA:207,1
DA:208,1
DA:207,1
DA:208,1
DA:207,1
DA:208,1
DA:207,1
DA:208,1
DA:207,1
DA:208,1
DA:207,1
DA:208,1
DA:207,1
DA:208,1
DA:207,1
DA:208,1
DA:207,1
DA:208,1
DA:207,1
DA:208,1
DA:207,1
DA:208,1
DA:207,1
DA:208,1
DA:207,1
DA:208,1
DA:207,1
DA:208,1
DA:207,1
DA:208,1
DA:207,1
DA:208,1
DA:207,1
DA:208,1
DA:207,1
DA:208,1
DA:207,1
DA:208,1
DA:207,1
DA:208,1
DA:207,1
DA:208,1
DA:207,1
DA:208,1
DA:207,1
DA:208,1
DA:207,1
DA:208,1
DA:207,1
DA:208,1
DA:207,1
DA:208,1
DA:207,1
DA:208,1
DA:207,1
DA:208,1
DA:207,1
DA:208,1
DA:207,1
DA:208,1
DA:207,1
DA:208,1
DA:207,1
DA:208,1
DA:207,1
DA:208,1
DA:207,1
DA:208,1
DA:207,1
DA:208,1
DA:207,1
DA:208,1
DA:207,1
DA:208,1
DA:207,1
DA:208,1
DA:207,1
DA:208,1
DA:207,1
DA:208,1
DA:207,1
DA:208,1
DA:207,1
DA:208,1
DA:207,1
DA:208,1
DA:207,1
DA:208,1
DA:207,1
DA:208,1
DA:207,1
DA:208,1
DA:207,1
DA:208,1
DA:207,1
DA:208,1
DA:207,1
DA:208,1
DA:207,1
DA:208,1
DA:207,1
DA:208,1
DA:207,1
DA:208,1
DA:207,1
DA:208,1
DA:207,1
DA:208,1
DA:207,1
DA:208,1
DA:207,1
DA:208,1
DA:207,1
DA:208,1
DA:207,1
DA:208,1
DA:207,1
DA:208,1
DA:207,1
DA:208,1
DA:207,1
DA:208,1
DA:207,1
DA:208,1
DA:207,1
DA:208,1
DA:207,1
DA:208,1
DA:207,1
DA:208,1
DA:207,1
DA:208,1
DA:207,1
DA:208,1
DA:207,1
DA:208,1
DA:207,1
DA:208,1
DA:207,1
DA:208,1
DA:207,1
DA:208,1
DA:207,1
DA:208,1
DA:207,1
DA:208,1
DA:207,1
DA:208,1
DA:207,1
DA:208,1
DA:207,1
DA:208,1
DA:207,1
DA:208,1
DA:207,1
DA:208,1
DA:207,1
DA:208,1
DA:207,1
DA:208,1
DA:207,1
DA:208,1
DA:207,1
DA:208,1
DA:207,1
DA:208,1
DA:207,1
DA:208,1
DA:227,1
DA:228,1
DA:227,1
DA:228,1
DA:227,1
DA:228,1
DA:227,1
DA:228,1
DA:227,1
DA:228,1
DA:227,1
DA:228,1
DA:227,1
DA:228,1
DA:227,1
DA:228,1
DA:227,1
DA:228,1
DA:227,1
DA:228,1
DA:227,1
DA:228,1
DA:227,1
DA:228,1
DA:227,1
DA:228,1
DA:227,1
DA:228,1
DA:227,1
DA:228,1
DA:227,1
DA:228,1
DA:227,1
DA:228,1
DA:227,1
DA:228,1
DA:227,1
DA:228,1
DA:227,1
DA:228,1
DA:227,1
DA:228,1
DA:227,1
DA:228,1
DA:227,1
DA:228,1
DA:227,1
DA:228,1
DA:227,1
DA:228,1
DA:227,1
DA:228,1
DA:227,1
DA:228,1
DA:227,1
DA:228,1
DA:227,1
DA:228,1
DA:227,1
DA:228,1
DA:227,1
DA:228,1
DA:227,1
DA:228,1
DA:227,1
DA:228,1
DA:227,1
DA:228,1
DA:227,1
DA:228,1
DA:227,1
DA:228,1
DA:227,1
DA:228,1
DA:227,1
DA:228,1
DA:227,1
DA:228,1
DA:227,1
DA:228,1
DA:227,1
DA:228,1
DA:227,1
DA:228,1
DA:227,1
DA:228,1
DA:227,1
DA:228,1
DA:227,1
DA:228,1
DA:227,1
DA:228,1
DA:227,1
DA:228,1
DA:227,1
DA:228,1
DA:227,1
DA:228,1
DA:227,1
DA:228,1
DA:227,1
DA:228,1
DA:227,1
DA:228,1
DA:227,1
DA:228,1
DA:227,1
DA:228,1
DA:227,1
DA:228,1
DA:227,1
DA:228,1
DA:227,1
DA:228,1
DA:227,1
DA:228,1
DA:227,1
DA:228,1
DA:227,1
DA:228,1
DA:227,1
DA:228,1
DA:227,1
DA:228,1
DA:227,1
DA:228,1
DA:227,1
DA:228,1
DA:227,1
DA:228,1
DA:227,1
DA:228,1
DA:227,1
DA:228,1
DA:227,1
DA:228,1
DA:227,1
DA:228,1
DA:227,1
DA:228,1
DA:227,1
DA:228,1
DA:227,1
DA:228,1
DA:227,1
DA:228,1
DA:227,1
DA:228,1
DA:227,1
DA:228,1
DA:227,1
DA:228,1
DA:227,1
DA:228,1
DA:227,1
DA:228,1
DA:227,1
DA:228,1
DA:227,1
DA:228,1
DA:227,1
DA:228,1
DA:227,1
DA:228,1
DA:227,1
DA:228,1
DA:227,1
DA:228,1
DA:227,1
DA:228,1
DA:227,1
DA:228,1
DA:227,1
DA:228,1
DA:232,1
DA:233,1
DA:232,1
DA:233,1
DA:232,1
DA:233,1
DA:232,1
DA:233,1
DA:232,1
DA:233,1
DA:232,1
DA:233,1
DA:232,1
DA:233,1
DA:232,1
DA:233,1
DA:232,1
DA:233,1
DA:232,1
DA:233,1
DA:232,1
DA:233,1
DA:232,1
DA:233,1
DA:232,1
DA:233,1
DA:232,1
DA:233,1
DA:232,1
DA:233,1
DA:232,1
DA:233,1
DA:232,1
DA:233,1
DA:232,1
DA:233,1
DA:232,1
DA:233,1
DA:232,1
DA:233,1
DA:232,1
DA:233,1
DA:232,1
DA:233,1
DA:232,1
DA:233,1
DA:232,1
DA:233,1
DA:232,1
DA:233,1
DA:232,1
DA:233,1
DA:232,1
DA:233,1
DA:232,1
DA:233,1
DA:232,1
DA:233,1
DA:232,1
DA:233,1
DA:232,1
DA:233,1
DA:232,1
DA:233,1
DA:232,1
DA:233,1
DA:232,1
DA:233,1
DA:232,1
DA:233,1
DA:232,1
DA:233,1
DA:232,1
DA:233,1
DA:232,1
DA:233,1
DA:232,1
DA:233,1
DA:232,1
DA:233,1
DA:232,1
DA:233,1
DA:232,1
DA:233,1
DA:232,1
DA:233,1
DA:232,1
DA:233,1
DA:232,1
DA:233,1
DA:232,1
DA:233,1
DA:232,1
DA:233,1
DA:232,1
DA:233,1
DA:232,1
DA:233,1
DA:232,1
DA:233,1
DA:232,1
DA:233,1
DA:232,1
DA:233,1
DA:232,1
DA:233,1
DA:232,1
DA:233,1
DA:232,1
DA:233,1
DA:232,1
DA:233,1
DA:232,1
DA:233,1
DA:232,1
DA:233,1
DA:232,1
DA:233,1
DA:232,1
DA:233,1
DA:232,1
DA:233,1
DA:232,1
DA:233,1
DA:232,1
DA:233,1
DA:232,1
DA:233,1
DA:232,1
DA:233,1
DA:232,1
DA:233,1
DA:232,1
DA:233,1
DA:232,1
DA:233,1
DA:232,1
DA:233,1
DA:232,1
DA:233,1
DA:232,1
DA:233,1
DA:232,1
DA:233,1
DA:232,1
DA:233,1
DA:232,1
DA:233,1
DA:232,1
DA:233,1
DA:232,1
DA:233,1
DA:232,1
DA:233,1
DA:232,1
DA:233,1
DA:232,1
DA:233,1
DA:232,1
DA:233,1
DA:232,1
DA:233,1
DA:232,1
DA:233,1
DA:232,1
DA:233,1
DA:232,1
DA:233,1
DA:232,1
DA:233,1
DA:232,1
DA:233,1
DA:232,1
DA:233,1
DA:240,605
DA:242,518
DA:243,518
DA:244,518
BRDA:244,0,0,348
BRDA:244,0,1,170
DA:245,348
DA:246,518
DA:248,346
DA:268,8
DA:271,8
BRDA:271,0,0,0
BRDA:271,0,1,0
BRDA:271,0,2,8
DA:274,0
DA:275,0
DA:276,0
DA:278,0
DA:279,0
DA:280,0
DA:282,8
DA:283,8
DA:285,8
DA:268,8
DA:271,8
BRDA:271,0,0,0
BRDA:271,0,1,0
BRDA:271,0,2,8
DA:274,0
DA:275,0
DA:276,0
DA:278,0
DA:279,0
DA:280,0
DA:282,8
DA:283,8
DA:285,8
DA:268,8
DA:271,8
BRDA:271,0,0,0
BRDA:271,0,1,0
BRDA:271,0,2,8
DA:274,0
DA:275,0
DA:276,0
DA:278,0
DA:279,0
DA:280,0
DA:282,8
DA:283,8
DA:285,8
DA:268,8
DA:271,8
BRDA:271,0,0,0
BRDA:271,0,1,0
BRDA:271,0,2,8
DA:274,0
DA:275,0
DA:276,0
DA:278,0
DA:279,0
DA:280,0
DA:282,8
DA:283,8
DA:285,8
DA:268,8
DA:271,8
BRDA:271,0,0,0
BRDA:271,0,1,0
BRDA:271,0,2,8
DA:274,0
DA:275,0
DA:276,0
DA:278,0
DA:279,0
DA:280,0
DA:282,8
DA:283,8
DA:285,8
DA:268,8
DA:271,8
BRDA:271,0,0,0
BRDA:271,0,1,0
BRDA:271,0,2,8
DA:274,0
DA:275,0
DA:276,0
DA:278,0
DA:279,0
DA:280,0
DA:282,8
DA:283,8
DA:285,8
DA:268,8
DA:271,8
BRDA:271,0,0,0
BRDA:271,0,1,0
BRDA:271,0,2,8
DA:274,0
DA:275,0
DA:276,0
DA:278,0
DA:279,0
DA:280,0
DA:282,8
DA:283,8
DA:285,8
DA:268,8
DA:271,8
BRDA:271,0,0,0
BRDA:271,0,1,0
BRDA:271,0,2,8
DA:274,0
DA:275,0
DA:276,0
DA:278,0
DA:279,0
DA:280,0
DA:282,8
DA:283,8
DA:285,8
DA:268,6
DA:271,6
BRDA:271,0,0,0
BRDA:271,0,1,0
BRDA:271,0,2,6
DA:274,0
DA:275,0
DA:276,0
DA:278,0
DA:279,0
DA:280,0
DA:282,6
DA:283,6
DA:285,6
DA:268,8
DA:271,8
BRDA:271,0,0,0
BRDA:271,0,1,0
BRDA:271,0,2,8
DA:274,0
DA:275,0
DA:276,0
DA:278,0
DA:279,0
DA:280,0
DA:282,8
DA:283,8
DA:285,8
DA:268,8
DA:271,8
BRDA:271,0,0,0
BRDA:271,0,1,0
BRDA:271,0,2,8
DA:274,0
DA:275,0
DA:276,0
DA:278,0
DA:279,0
DA:280,0
DA:282,8
DA:283,8
DA:285,8
DA:268,8
DA:271,8
BRDA:271,0,0,0
BRDA:271,0,1,0
BRDA:271,0,2,8
DA:274,0
DA:275,0
DA:276,0
DA:278,0
DA:279,0
DA:280,0
DA:282,8
DA:283,8
DA:285,8
DA:268,8
DA:271,8
BRDA:271,0,0,0
BRDA:271,0,1,0
BRDA:271,0,2,8
DA:274,0
DA:275,0
DA:276,0
DA:278,0
DA:279,0
DA:280,0
DA:282,8
DA:283,8
DA:285,8
DA:268,8
DA:271,8
BRDA:271,0,0,0
BRDA:271,0,1,0
BRDA:271,0,2,8
DA:274,0
DA:275,0
DA:276,0
DA:278,0
DA:279,0
DA:280,0
DA:282,8
DA:283,8
DA:285,8
DA:268,8
DA:271,8
BRDA:271,0,0,0
BRDA:271,0,1,0
BRDA:271,0,2,8
DA:274,0
DA:275,0
DA:276,0
DA:278,0
DA:279,0
DA:280,0
DA:282,8
DA:283,8
DA:285,8
DA:268,8
DA:271,8
BRDA:271,0,0,0
BRDA:271,0,1,0
BRDA:271,0,2,8
DA:274,0
DA:275,0
DA:276,0
DA:278,0
DA:279,0
DA:280,0
DA:282,8
DA:283,8
DA:285,8
DA:268,8
DA:271,8
BRDA:271,0,0,0
BRDA:271,0,1,0
BRDA:271,0,2,8
DA:274,0
DA:275,0
DA:276,0
DA:278,0
DA:279,0
DA:280,0
DA:282,8
DA:283,8
DA:285,8
DA:268,9
DA:271,9
BRDA:271,0,0,0
BRDA:271,0,1,0
BRDA:271,0,2,9
DA:274,0
DA:275,0
DA:276,0
DA:278,0
DA:279,0
DA:280,0
DA:282,9
DA:283,9
DA:285,9
DA:268,8
DA:271,8
BRDA:271,0,0,0
BRDA:271,0,1,0
BRDA:271,0,2,8
DA:274,0
DA:275,0
DA:276,0
DA:278,0
DA:279,0
DA:280,0
DA:282,8
DA:283,8
DA:285,8
DA:268,8
DA:271,8
BRDA:271,0,0,0
BRDA:271,0,1,0
BRDA:271,0,2,8
DA:274,0
DA:275,0
DA:276,0
DA:278,0
DA:279,0
DA:280,0
DA:282,8
DA:283,8
DA:285,8
DA:268,8
DA:271,8
BRDA:271,0,0,0
BRDA:271,0,1,0
BRDA:271,0,2,8
DA:274,0
DA:275,0
DA:276,0
DA:278,0
DA:279,0
DA:280,0
DA:282,8
DA:283,8
DA:285,8
DA:268,8
DA:271,8
BRDA:271,0,0,0
BRDA:271,0,1,0
BRDA:271,0,2,8
DA:274,0
DA:275,0
DA:276,0
DA:278,0
DA:279,0
DA:280,0
DA:282,8
DA:283,8
DA:285,8
DA:268,8
DA:271,8
BRDA:271,0,0,0
BRDA:271,0,1,0
BRDA:271,0,2,8
DA:274,0
DA:275,0
DA:276,0
DA:278,0
DA:279,0
DA:280,0
DA:282,8
DA:283,8
DA:285,8
DA:268,8
DA:271,8
BRDA:271,0,0,0
BRDA:271,0,1,0
BRDA:271,0,2,8
DA:274,0
DA:275,0
DA:276,0
DA:278,0
DA:279,0
DA:280,0
DA:282,8
DA:283,8
DA:285,8
DA:268,8
DA:271,8
BRDA:271,0,0,0
BRDA:271,0,1,0
BRDA:271,0,2,8
DA:274,0
DA:275,0
DA:276,0
DA:278,0
DA:279,0
DA:280,0
DA:282,8
DA:283,8
DA:285,8
DA:268,8
DA:271,8
BRDA:271,0,0,0
BRDA:271,0,1,0
BRDA:271,0,2,8
DA:274,0
DA:275,0
DA:276,0
DA:278,0
DA:279,0
DA:280,0
DA:282,8
DA:283,8
DA:285,8
DA:268,8
DA:271,8
BRDA:271,0,0,0
BRDA:271,0,1,0
BRDA:271,0,2,8
DA:274,0
DA:275,0
DA:276,0
DA:278,0
DA:279,0
DA:280,0
DA:282,8
DA:283,8
DA:285,8
DA:268,8
DA:271,8
BRDA:271,0,0,0
BRDA:271,0,1,0
BRDA:271,0,2,8
DA:274,0
DA:275,0
DA:276,0
DA:278,0
DA:279,0
DA:280,0
DA:282,8
DA:283,8
DA:285,8
DA:268,8
DA:271,8
BRDA:271,0,0,0
BRDA:271,0,1,0
BRDA:271,0,2,8
DA:274,0
DA:275,0
DA:276,0
DA:278,0
DA:279,0
DA:280,0
DA:282,8
DA:283,8
DA:285,8
DA:268,8
DA:271,8
BRDA:271,0,0,0
BRDA:271,0,1,0
BRDA:271,0,2,8
DA:274,0
DA:275,0
DA:276,0
DA:278,0
DA:279,0
DA:280,0
DA:282,8
DA:283,8
DA:285,8
DA:268,8
DA:271,8
BRDA:271,0,0,0
BRDA:271,0,1,0
BRDA:271,0,2,8
DA:274,0
DA:275,0
DA:276,0
DA:278,0
DA:279,0
DA:280,0
DA:282,8
DA:283,8
DA:285,8
DA:268,8
DA:271,8
BRDA:271,0,0,0
BRDA:271,0,1,0
BRDA:271,0,2,8
DA:274,0
DA:275,0
DA:276,0
DA:278,0
DA:279,0
DA:280,0
DA:282,8
DA:283,8
DA:285,8
DA:268,8
DA:271,8
BRDA:271,0,0,0
BRDA:271,0,1,0
BRDA:271,0,2,8
DA:274,0
DA:275,0
DA:276,0
DA:278,0
DA:279,0
DA:280,0
DA:282,8
DA:283,8
DA:285,8
DA:268,8
DA:271,8
BRDA:271,0,0,0
BRDA:271,0,1,0
BRDA:271,0,2,8
DA:274,0
DA:275,0
DA:276,0
DA:278,0
DA:279,0
DA:280,0
DA:282,8
DA:283,8
DA:285,8
DA:268,8
DA:271,8
BRDA:271,0,0,0
BRDA:271,0,1,0
BRDA:271,0,2,8
DA:274,0
DA:275,0
DA:276,0
DA:278,0
DA:279,0
DA:280,0
DA:282,8
DA:283,8
DA:285,8
DA:268,8
DA:271,8
BRDA:271,0,0,0
BRDA:271,0,1,0
BRDA:271,0,2,8
DA:274,0
DA:275,0
DA:276,0
DA:278,0
DA:279,0
DA:280,0
DA:282,8
DA:283,8
DA:285,8
DA:268,8
DA:271,8
BRDA:271,0,0,0
BRDA:271,0,1,0
BRDA:271,0,2,8
DA:274,0
DA:275,0
DA:276,0
DA:278,0
DA:279,0
DA:280,0
DA:282,8
DA:283,8
DA:285,8
DA:268,8
DA:271,8
BRDA:271,0,0,0
BRDA:271,0,1,0
BRDA:271,0,2,8
DA:274,0
DA:275,0
DA:276,0
DA:278,0
DA:279,0
DA:280,0
DA:282,8
DA:283,8
DA:285,8
DA:268,8
DA:271,8
BRDA:271,0,0,0
BRDA:271,0,1,0
BRDA:271,0,2,8
DA:274,0
DA:275,0
DA:276,0
DA:278,0
DA:279,0
DA:280,0
DA:282,8
DA:283,8
DA:285,8
DA:268,9
DA:271,9
BRDA:271,0,0,0
BRDA:271,0,1,0
BRDA:271,0,2,9
DA:274,0
DA:275,0
DA:276,0
DA:278,0
DA:279,0
DA:280,0
DA:282,9
DA:283,9
DA:285,9
DA:268,8
DA:271,8
BRDA:271,0,0,0
BRDA:271,0,1,0
BRDA:271,0,2,8
DA:274,0
DA:275,0
DA:276,0
DA:278,0
DA:279,0
DA:280,0
DA:282,8
DA:283,8
DA:285,8
DA:268,8
DA:271,8
BRDA:271,0,0,0
BRDA:271,0,1,0
BRDA:271,0,2,8
DA:274,0
DA:275,0
DA:276,0
DA:278,0
DA:279,0
DA:280,0
DA:282,8
DA:283,8
DA:285,8
DA:268,8
DA:271,8
BRDA:271,0,0,0
BRDA:271,0,1,0
BRDA:271,0,2,8
DA:274,0
DA:275,0
DA:276,0
DA:278,0
DA:279,0
DA:280,0
DA:282,8
DA:283,8
DA:285,8
DA:268,8
DA:271,8
BRDA:271,0,0,0
BRDA:271,0,1,0
BRDA:271,0,2,8
DA:274,0
DA:275,0
DA:276,0
DA:278,0
DA:279,0
DA:280,0
DA:282,8
DA:283,8
DA:285,8
DA:268,8
DA:271,8
BRDA:271,0,0,0
BRDA:271,0,1,0
BRDA:271,0,2,8
DA:274,0
DA:275,0
DA:276,0
DA:278,0
DA:279,0
DA:280,0
DA:282,8
DA:283,8
DA:285,8
DA:268,8
DA:271,8
BRDA:271,0,0,0
BRDA:271,0,1,0
BRDA:271,0,2,8
DA:274,0
DA:275,0
DA:276,0
DA:278,0
DA:279,0
DA:280,0
DA:282,8
DA:283,8
DA:285,8
DA:268,8
DA:271,8
BRDA:271,0,0,0
BRDA:271,0,1,0
BRDA:271,0,2,8
DA:274,0
DA:275,0
DA:276,0
DA:278,0
DA:279,0
DA:280,0
DA:282,8
DA:283,8
DA:285,8
DA:268,8
DA:271,8
BRDA:271,0,0,0
BRDA:271,0,1,0
BRDA:271,0,2,8
DA:274,0
DA:275,0
DA:276,0
DA:278,0
DA:279,0
DA:280,0
DA:282,8
DA:283,8
DA:285,8
DA:268,8
DA:271,8
BRDA:271,0,0,0
BRDA:271,0,1,0
BRDA:271,0,2,8
DA:274,0
DA:275,0
DA:276,0
DA:278,0
DA:279,0
DA:280,0
DA:282,8
DA:283,8
DA:285,8
DA:268,8
DA:271,8
BRDA:271,0,0,0
BRDA:271,0,1,0
BRDA:271,0,2,8
DA:274,0
DA:275,0
DA:276,0
DA:278,0
DA:279,0
DA:280,0
DA:282,8
DA:283,8
DA:285,8
DA:268,8
DA:271,8
BRDA:271,0,0,0
BRDA:271,0,1,0
BRDA:271,0,2,8
DA:274,0
DA:275,0
DA:276,0
DA:278,0
DA:279,0
DA:280,0
DA:282,8
DA:283,8
DA:285,8
DA:268,8
DA:271,8
BRDA:271,0,0,0
BRDA:271,0,1,0
BRDA:271,0,2,8
DA:274,0
DA:275,0
DA:276,0
DA:278,0
DA:279,0
DA:280,0
DA:282,8
DA:283,8
DA:285,8
DA:268,8
DA:271,8
BRDA:271,0,0,0
BRDA:271,0,1,0
BRDA:271,0,2,8
DA:274,0
DA:275,0
DA:276,0
DA:278,0
DA:279,0
DA:280,0
DA:282,8
DA:283,8
DA:285,8
DA:268,8
DA:271,8
BRDA:271,0,0,0
BRDA:271,0,1,0
BRDA:271,0,2,8
DA:274,0
DA:275,0
DA:276,0
DA:278,0
DA:279,0
DA:280,0
DA:282,8
DA:283,8
DA:285,8
DA:268,8
DA:271,8
BRDA:271,0,0,0
BRDA:271,0,1,0
BRDA:271,0,2,8
DA:274,0
DA:275,0
DA:276,0
DA:278,0
DA:279,0
DA:280,0
DA:282,8
DA:283,8
DA:285,8
DA:268,8
DA:271,8
BRDA:271,0,0,0
BRDA:271,0,1,0
BRDA:271,0,2,8
DA:274,0
DA:275,0
DA:276,0
DA:278,0
DA:279,0
DA:280,0
DA:282,8
DA:283,8
DA:285,8
DA:268,8
DA:271,8
BRDA:271,0,0,0
BRDA:271,0,1,0
BRDA:271,0,2,8
DA:274,0
DA:275,0
DA:276,0
DA:278,0
DA:279,0
DA:280,0
DA:282,8
DA:283,8
DA:285,8
DA:268,8
DA:271,8
BRDA:271,0,0,0
BRDA:271,0,1,0
BRDA:271,0,2,8
DA:274,0
DA:275,0
DA:276,0
DA:278,0
DA:279,0
DA:280,0
DA:282,8
DA:283,8
DA:285,8
DA:268,8
DA:271,8
BRDA:271,0,0,0
BRDA:271,0,1,0
BRDA:271,0,2,8
DA:274,0
DA:275,0
DA:276,0
DA:278,0
DA:279,0
DA:280,0
DA:282,8
DA:283,8
DA:285,8
DA:268,8
DA:271,8
BRDA:271,0,0,0
BRDA:271,0,1,0
BRDA:271,0,2,8
DA:274,0
DA:275,0
DA:276,0
DA:278,0
DA:279,0
DA:280,0
DA:282,8
DA:283,8
DA:285,8
DA:268,8
DA:271,8
BRDA:271,0,0,0
BRDA:271,0,1,0
BRDA:271,0,2,8
DA:274,0
DA:275,0
DA:276,0
DA:278,0
DA:279,0
DA:280,0
DA:282,8
DA:283,8
DA:285,8
DA:268,8
DA:271,8
BRDA:271,0,0,0
BRDA:271,0,1,0
BRDA:271,0,2,8
DA:274,0
DA:275,0
DA:276,0
DA:278,0
DA:279,0
DA:280,0
DA:282,8
DA:283,8
DA:285,8
DA:268,8
DA:271,8
BRDA:271,0,0,0
BRDA:271,0,1,0
BRDA:271,0,2,8
DA:274,0
DA:275,0
DA:276,0
DA:278,0
DA:279,0
DA:280,0
DA:282,8
DA:283,8
DA:285,8
DA:268,8
DA:271,8
BRDA:271,0,0,0
BRDA:271,0,1,0
BRDA:271,0,2,8
DA:274,0
DA:275,0
DA:276,0
DA:278,0
DA:279,0
DA:280,0
DA:282,8
DA:283,8
DA:285,8
DA:268,8
DA:271,8
BRDA:271,0,0,0
BRDA:271,0,1,0
BRDA:271,0,2,8
DA:274,0
DA:275,0
DA:276,0
DA:278,0
DA:279,0
DA:280,0
DA:282,8
DA:283,8
DA:285,8
DA:268,8
DA:271,8
BRDA:271,0,0,0
BRDA:271,0,1,0
BRDA:271,0,2,8
DA:274,0
DA:275,0
DA:276,0
DA:278,0
DA:279,0
DA:280,0
DA:282,8
DA:283,8
DA:285,8
DA:268,8
DA:271,8
BRDA:271,0,0,0
BRDA:271,0,1,0
BRDA:271,0,2,8
DA:274,0
DA:275,0
DA:276,0
DA:278,0
DA:279,0
DA:280,0
DA:282,8
DA:283,8
DA:285,8
DA:268,8
DA:271,8
BRDA:271,0,0,0
BRDA:271,0,1,0
BRDA:271,0,2,8
DA:274,0
DA:275,0
DA:276,0
DA:278,0
DA:279,0
DA:280,0
DA:282,8
DA:283,8
DA:285,8
DA:268,8
DA:271,8
BRDA:271,0,0,0
BRDA:271,0,1,0
BRDA:271,0,2,8
DA:274,0
DA:275,0
DA:276,0
DA:278,0
DA:279,0
DA:280,0
DA:282,8
DA:283,8
DA:285,8
DA:268,8
DA:271,8
BRDA:271,0,0,0
BRDA:271,0,1,0
BRDA:271,0,2,8
DA:274,0
DA:275,0
DA:276,0
DA:278,0
DA:279,0
DA:280,0
DA:282,8
DA:283,8
DA:285,8
DA:268,8
DA:271,8
BRDA:271,0,0,0
BRDA:271,0,1,0
BRDA:271,0,2,8
DA:274,0
DA:275,0
DA:276,0
DA:278,0
DA:279,0
DA:280,0
DA:282,8
DA:283,8
DA:285,8
DA:268,6
DA:271,6
BRDA:271,0,0,0
BRDA:271,0,1,0
BRDA:271,0,2,6
DA:274,0
DA:275,0
DA:276,0
DA:278,0
DA:279,0
DA:280,0
DA:282,6
DA:283,6
DA:285,6
DA:268,8
DA:271,8
BRDA:271,0,0,0
BRDA:271,0,1,0
BRDA:271,0,2,8
DA:274,0
DA:275,0
DA:276,0
DA:278,0
DA:279,0
DA:280,0
DA:282,8
DA:283,8
DA:285,8
DA:268,8
DA:271,8
BRDA:271,0,0,0
BRDA:271,0,1,0
BRDA:271,0,2,8
DA:274,0
DA:275,0
DA:276,0
DA:278,0
DA:279,0
DA:280,0
DA:282,8
DA:283,8
DA:285,8
DA:268,8
DA:271,8
BRDA:271,0,0,0
BRDA:271,0,1,0
BRDA:271,0,2,8
DA:274,0
DA:275,0
DA:276,0
DA:278,0
DA:279,0
DA:280,0
DA:282,8
DA:283,8
DA:285,8
DA:268,8
DA:271,8
BRDA:271,0,0,0
BRDA:271,0,1,0
BRDA:271,0,2,8
DA:274,0
DA:275,0
DA:276,0
DA:278,0
DA:279,0
DA:280,0
DA:282,8
DA:283,8
DA:285,8
DA:268,8
DA:271,8
BRDA:271,0,0,0
BRDA:271,0,1,0
BRDA:271,0,2,8
DA:274,0
DA:275,0
DA:276,0
DA:278,0
DA:279,0
DA:280,0
DA:282,8
DA:283,8
DA:285,8
DA:268,8
DA:271,8
BRDA:271,0,0,0
BRDA:271,0,1,0
BRDA:271,0,2,8
DA:274,0
DA:275,0
DA:276,0
DA:278,0
DA:279,0
DA:280,0
DA:282,8
DA:283,8
DA:285,8
DA:268,8
DA:271,8
BRDA:271,0,0,0
BRDA:271,0,1,0
BRDA:271,0,2,8
DA:274,0
DA:275,0
DA:276,0
DA:278,0
DA:279,0
DA:280,0
DA:282,8
DA:283,8
DA:285,8
DA:268,8
DA:271,8
BRDA:271,0,0,0
BRDA:271,0,1,0
BRDA:271,0,2,8
DA:274,0
DA:275,0
DA:276,0
DA:278,0
DA:279,0
DA:280,0
DA:282,8
DA:283,8
DA:285,8
DA:268,8
DA:271,8
BRDA:271,0,0,0
BRDA:271,0,1,0
BRDA:271,0,2,8
DA:274,0
DA:275,0
DA:276,0
DA:278,0
DA:279,0
DA:280,0
DA:282,8
DA:283,8
DA:285,8
DA:268,8
DA:271,8
BRDA:271,0,0,0
BRDA:271,0,1,0
BRDA:271,0,2,8
DA:274,0
DA:275,0
DA:276,0
DA:278,0
DA:279,0
DA:280,0
DA:282,8
DA:283,8
DA:285,8
DA:268,8
DA:271,8
BRDA:271,0,0,0
BRDA:271,0,1,0
BRDA:271,0,2,8
DA:274,0
DA:275,0
DA:276,0
DA:278,0
DA:279,0
DA:280,0
DA:282,8
DA:283,8
DA:285,8
DA:268,8
DA:271,8
BRDA:271,0,0,0
BRDA:271,0,1,0
BRDA:271,0,2,8
DA:274,0
DA:275,0
DA:276,0
DA:278,0
DA:279,0
DA:280,0
DA:282,8
DA:283,8
DA:285,8
DA:268,8
DA:271,8
BRDA:271,0,0,0
BRDA:271,0,1,0
BRDA:271,0,2,8
DA:274,0
DA:275,0
DA:276,0
DA:278,0
DA:279,0
DA:280,0
DA:282,8
DA:283,8
DA:285,8
DA:268,8
DA:271,8
BRDA:271,0,0,0
BRDA:271,0,1,0
BRDA:271,0,2,8
DA:274,0
DA:275,0
DA:276,0
DA:278,0
DA:279,0
DA:280,0
DA:282,8
DA:283,8
DA:285,8
DA:268,8
DA:271,8
BRDA:271,0,0,0
BRDA:271,0,1,0
BRDA:271,0,2,8
DA:274,0
DA:275,0
DA:276,0
DA:278,0
DA:279,0
DA:280,0
DA:282,8
DA:283,8
DA:285,8
DA:289,0
DA:291,0
DA:292,0
DA:289,0
DA:291,0
DA:292,0
DA:289,0
DA:291,0
DA:292,0
DA:289,0
DA:291,0
DA:292,0
DA:289,0
DA:291,0
DA:292,0
DA:289,0
DA:291,0
DA:292,0
DA:289,0
DA:291,0
DA:292,0
DA:289,0
DA:291,0
DA:292,0
DA:289,0
DA:291,0
DA:292,0
DA:289,0
DA:291,0
DA:292,0
DA:289,0
DA:291,0
DA:292,0
DA:289,0
DA:291,0
DA:292,0
DA:289,0
DA:291,0
DA:292,0
DA:289,0
DA:291,0
DA:292,0
DA:289,0
DA:291,0
DA:292,0
DA:289,0
DA:291,0
DA:292,0
DA:289,0
DA:291,0
DA:292,0
DA:289,0
DA:291,0
DA:292,0
DA:289,0
DA:291,0
DA:292,0
DA:289,0
DA:291,0
DA:292,0
DA:289,0
DA:291,0
DA:292,0
DA:289,0
DA:291,0
DA:292,0
DA:289,0
DA:291,0
DA:292,0
DA:289,0
DA:291,0
DA:292,0
DA:289,0
DA:291,0
DA:292,0
DA:289,0
DA:291,0
DA:292,0
DA:289,0
DA:291,0
DA:292,0
DA:289,0
DA:291,0
DA:292,0
DA:289,0
DA:291,0
DA:292,0
DA:289,0
DA:291,0
DA:292,0
DA:289,0
DA:291,0
DA:292,0
DA:289,0
DA:291,0
DA:292,0
DA:289,0
DA:291,0
DA:292,0
DA:289,0
DA:291,0
DA:292,0
DA:289,0
DA:291,0
DA:292,0
DA:289,0
DA:291,0
DA:292,0
DA:289,0
DA:291,0
DA:292,0
DA:289,0
DA:291,0
DA:292,0
DA:289,0
DA:291,0
DA:292,0
DA:289,0
DA:291,0
DA:292,0
DA:289,0
DA:291,0
DA:292,0
DA:289,0
DA:291,0
DA:292,0
DA:289,0
DA:291,0
DA:292,0
DA:289,0
DA:291,0
DA:292,0
DA:289,0
DA:291,0
DA:292,0
DA:289,0
DA:291,0
DA:292,0
DA:289,0
DA:291,0
DA:292,0
DA:289,0
DA:291,0
DA:292,0
DA:289,0
DA:291,0
DA:292,0
DA:289,0
DA:291,0
DA:292,0
DA:289,0
DA:291,0
DA:292,0
DA:289,0
DA:291,0
DA:292,0
DA:289,0
DA:291,0
DA:292,0
DA:289,0
DA:291,0
DA:292,0
DA:289,0
DA:291,0
DA:292,0
DA:289,0
DA:291,0
DA:292,0
DA:289,0
DA:291,0
DA:292,0
DA:289,0
DA:291,0
DA:292,0
DA:289,0
DA:291,0
DA:292,0
DA:289,0
DA:291,0
DA:292,0
DA:289,0
DA:291,0
DA:292,0
DA:289,0
DA:291,0
DA:292,0
DA:289,0
DA:291,0
DA:292,0
DA:289,0
DA:291,0
DA:292,0
DA:289,0
DA:291,0
DA:292,0
DA:289,0
DA:291,0
DA:292,0
DA:289,0
DA:291,0
DA:292,0
DA:289,0
DA:291,0
DA:292,0
DA:289,0
DA:291,0
DA:292,0
DA:289,0
DA:291,0
DA:292,0
DA:289,0
DA:291,0
DA:292,0
DA:289,0
DA:291,0
DA:292,0
DA:289,0
DA:291,0
DA:292,0
DA:289,0
DA:291,0
DA:292,0
DA:289,0
DA:291,0
DA:292,0
DA:289,0
DA:291,0
DA:292,0
DA:289,0
DA:291,0
DA:292,0
DA:289,0
DA:291,0
DA:292,0
DA:289,0
DA:291,0
DA:292,0
DA:289,0
DA:291,0
DA:292,0
DA:289,0
DA:291,0
DA:292,0
DA:289,0
DA:291,0
DA:292,0
DA:289,0
DA:291,0
DA:292,0
DA:289,0
DA:291,0
DA:292,0
DA:289,0
DA:291,0
DA:292,0
DA:289,0
DA:291,0
DA:292,0
DA:289,0
DA:291,0
DA:292,0
DA:330,87
DA:331,87
DA:428,2
DA:430,2
BRDA:430,0,0,0
BRDA:430,0,1,2
DA:432,0
DA:433,0
DA:434,0
DA:436,2
DA:498,346
DA:499,346
DA:587,346
DA:589,346
DA:591,346
BRDA:591,0,0,346
BRDA:591,0,1,0
DA:593,346
BRDA:593,0,0,346
BRDA:593,0,1,0
DA:594,346
DA:595,346
DA:597,346
DA:601,1
DA:603,1
DA:607,1
BRDA:607,0,0,1
BRDA:607,0,1,0
DA:609,1
BRDA:609,0,0,1
BRDA:609,0,1,0
DA:610,1
DA:611,1
DA:613,1
DA:601,1
DA:603,1
DA:607,1
BRDA:607,0,0,1
BRDA:607,0,1,0
DA:609,1
BRDA:609,0,0,1
BRDA:609,0,1,0
DA:610,1
DA:611,1
DA:613,1
DA:601,1
DA:603,1
DA:607,1
BRDA:607,0,0,1
BRDA:607,0,1,0
DA:609,1
BRDA:609,0,0,1
BRDA:609,0,1,0
DA:610,1
DA:611,1
DA:613,1
DA:601,1
DA:603,1
DA:607,1
BRDA:607,0,0,1
BRDA:607,0,1,0
DA:609,1
BRDA:609,0,0,1
BRDA:609,0,1,0
DA:610,1
DA:611,1
DA:613,1
DA:601,1
DA:603,1
DA:607,1
BRDA:607,0,0,1
BRDA:607,0,1,0
DA:609,1
BRDA:609,0,0,1
BRDA:609,0,1,0
DA:610,1
DA:611,1
DA:613,1
DA:601,1
DA:603,1
DA:607,1
BRDA:607,0,0,1
BRDA:607,0,1,0
DA:609,1
BRDA:609,0,0,1
BRDA:609,0,1,0
DA:610,1
DA:611,1
DA:613,1
DA:601,1
DA:603,1
DA:607,1
BRDA:607,0,0,1
BRDA:607,0,1,0
DA:609,1
BRDA:609,0,0,1
BRDA:609,0,1,0
DA:610,1
DA:611,1
DA:613,1
DA:601,1
DA:603,1
DA:607,1
BRDA:607,0,0,1
BRDA:607,0,1,0
DA:609,1
BRDA:609,0,0,1
BRDA:609,0,1,0
DA:610,1
DA:611,1
DA:613,1
DA:601,1
DA:603,1
DA:607,1
BRDA:607,0,0,1
BRDA:607,0,1,0
DA:609,1
BRDA:609,0,0,1
BRDA:609,0,1,0
DA:610,1
DA:611,1
DA:613,1
DA:601,1
DA:603,1
DA:607,1
BRDA:607,0,0,1
BRDA:607,0,1,0
DA:609,1
BRDA:609,0,0,1
BRDA:609,0,1,0
DA:610,1
DA:611,1
DA:613,1
DA:601,1
DA:603,1
DA:607,1
BRDA:607,0,0,1
BRDA:607,0,1,0
DA:609,1
BRDA:609,0,0,1
BRDA:609,0,1,0
DA:610,1
DA:611,1
DA:613,1
DA:601,1
DA:603,1
DA:607,1
BRDA:607,0,0,1
BRDA:607,0,1,0
DA:609,1
BRDA:609,0,0,1
BRDA:609,0,1,0
DA:610,1
DA:611,1
DA:613,1
DA:601,1
DA:603,1
DA:607,1
BRDA:607,0,0,1
BRDA:607,0,1,0
DA:609,1
BRDA:609,0,0,1
BRDA:609,0,1,0
DA:610,1
DA:611,1
DA:613,1
DA:601,1
DA:603,1
DA:607,1
BRDA:607,0,0,1
BRDA:607,0,1,0
DA:609,1
BRDA:609,0,0,1
BRDA:609,0,1,0
DA:610,1
DA:611,1
DA:613,1
DA:601,1
DA:603,1
DA:607,1
BRDA:607,0,0,1
BRDA:607,0,1,0
DA:609,1
BRDA:609,0,0,1
BRDA:609,0,1,0
DA:610,1
DA:611,1
DA:613,1
DA:601,1
DA:603,1
DA:607,1
BRDA:607,0,0,1
BRDA:607,0,1,0
DA:609,1
BRDA:609,0,0,1
BRDA:609,0,1,0
DA:610,1
DA:611,1
DA:613,1
DA:601,1
DA:603,1
DA:607,1
BRDA:607,0,0,1
BRDA:607,0,1,0
DA:609,1
BRDA:609,0,0,1
BRDA:609,0,1,0
DA:610,1
DA:611,1
DA:613,1
DA:601,1
DA:603,1
DA:607,1
BRDA:607,0,0,1
BRDA:607,0,1,0
DA:609,1
BRDA:609,0,0,1
BRDA:609,0,1,0
DA:610,1
DA:611,1
DA:613,1
DA:601,1
DA:603,1
DA:607,1
BRDA:607,0,0,1
BRDA:607,0,1,0
DA:609,1
BRDA:609,0,0,1
BRDA:609,0,1,0
DA:610,1
DA:611,1
DA:613,1
DA:601,1
DA:603,1
DA:607,1
BRDA:607,0,0,1
BRDA:607,0,1,0
DA:609,1
BRDA:609,0,0,1
BRDA:609,0,1,0
DA:610,1
DA:611,1
DA:613,1
DA:601,1
DA:603,1
DA:607,1
BRDA:607,0,0,1
BRDA:607,0,1,0
DA:609,1
BRDA:609,0,0,1
BRDA:609,0,1,0
DA:610,1
DA:611,1
DA:613,1
DA:601,1
DA:603,1
DA:607,1
BRDA:607,0,0,1
BRDA:607,0,1,0
DA:609,1
BRDA:609,0,0,1
BRDA:609,0,1,0
DA:610,1
DA:611,1
DA:613,1
DA:601,1
DA:603,1
DA:607,1
BRDA:607,0,0,1
BRDA:607,0,1,0
DA:609,1
BRDA:609,0,0,1
BRDA:609,0,1,0
DA:610,1
DA:611,1
DA:613,1
DA:601,1
DA:603,1
DA:607,1
BRDA:607,0,0,1
BRDA:607,0,1,0
DA:609,1
BRDA:609,0,0,1
BRDA:609,0,1,0
DA:610,1
DA:611,1
DA:613,1
DA:601,1
DA:603,1
DA:607,1
BRDA:607,0,0,1
BRDA:607,0,1,0
DA:609,1
BRDA:609,0,0,1
BRDA:609,0,1,0
DA:610,1
DA:611,1
DA:613,1
DA:601,1
DA:603,1
DA:607,1
BRDA:607,0,0,1
BRDA:607,0,1,0
DA:609,1
BRDA:609,0,0,1
BRDA:609,0,1,0
DA:610,1
DA:611,1
DA:613,1
DA:601,1
DA:603,1
DA:607,1
BRDA:607,0,0,1
BRDA:607,0,1,0
DA:609,1
BRDA:609,0,0,1
BRDA:609,0,1,0
DA:610,1
DA:611,1
DA:613,1
DA:601,1
DA:603,1
DA:607,1
BRDA:607,0,0,1
BRDA:607,0,1,0
DA:609,1
BRDA:609,0,0,1
BRDA:609,0,1,0
DA:610,1
DA:611,1
DA:613,1
DA:601,1
DA:603,1
DA:607,1
BRDA:607,0,0,1
BRDA:607,0,1,0
DA:609,1
BRDA:609,0,0,1
BRDA:609,0,1,0
DA:610,1
DA:611,1
DA:613,1
DA:601,1
DA:603,1
DA:607,1
BRDA:607,0,0,1
BRDA:607,0,1,0
DA:609,1
BRDA:609,0,0,1
BRDA:609,0,1,0
DA:610,1
DA:611,1
DA:613,1
DA:601,1
DA:603,1
DA:607,1
BRDA:607,0,0,1
BRDA:607,0,1,0
DA:609,1
BRDA:609,0,0,1
BRDA:609,0,1,0
DA:610,1
DA:611,1
DA:613,1
DA:601,1
DA:603,1
DA:607,1
BRDA:607,0,0,1
BRDA:607,0,1,0
DA:609,1
BRDA:609,0,0,1
BRDA:609,0,1,0
DA:610,1
DA:611,1
DA:613,1
DA:601,1
DA:603,1
DA:607,1
BRDA:607,0,0,1
BRDA:607,0,1,0
DA:609,1
BRDA:609,0,0,1
BRDA:609,0,1,0
DA:610,1
DA:611,1
DA:613,1
DA:601,1
DA:603,1
DA:607,1
BRDA:607,0,0,1
BRDA:607,0,1,0
DA:609,1
BRDA:609,0,0,1
BRDA:609,0,1,0
DA:610,1
DA:611,1
DA:613,1
DA:601,1
DA:603,1
DA:607,1
BRDA:607,0,0,1
BRDA:607,0,1,0
DA:609,1
BRDA:609,0,0,1
BRDA:609,0,1,0
DA:610,1
DA:611,1
DA:613,1
DA:601,1
DA:603,1
DA:607,1
BRDA:607,0,0,1
BRDA:607,0,1,0
DA:609,1
BRDA:609,0,0,1
BRDA:609,0,1,0
DA:610,1
DA:611,1
DA:613,1
DA:601,1
DA:603,1
DA:607,1
BRDA:607,0,0,1
BRDA:607,0,1,0
DA:609,1
BRDA:609,0,0,1
BRDA:609,0,1,0
DA:610,1
DA:611,1
DA:613,1
DA:601,1
DA:603,1
DA:607,1
BRDA:607,0,0,1
BRDA:607,0,1,0
DA:609,1
BRDA:609,0,0,1
BRDA:609,0,1,0
DA:610,1
DA:611,1
DA:613,1
DA:601,1
DA:603,1
DA:607,1
BRDA:607,0,0,1
BRDA:607,0,1,0
DA:609,1
BRDA:609,0,0,1
BRDA:609,0,1,0
DA:610,1
DA:611,1
DA:613,1
DA:601,1
DA:603,1
DA:607,1
BRDA:607,0,0,1
BRDA:607,0,1,0
DA:609,1
BRDA:609,0,0,1
BRDA:609,0,1,0
DA:610,1
DA:611,1
DA:613,1
DA:601,1
DA:603,1
DA:607,1
BRDA:607,0,0,1
BRDA:607,0,1,0
DA:609,1
BRDA:609,0,0,1
BRDA:609,0,1,0
DA:610,1
DA:611,1
DA:613,1
DA:601,1
DA:603,1
DA:607,1
BRDA:607,0,0,1
BRDA:607,0,1,0
DA:609,1
BRDA:609,0,0,1
BRDA:609,0,1,0
DA:610,1
DA:611,1
DA:613,1
DA:601,1
DA:603,1
DA:607,1
BRDA:607,0,0,1
BRDA:607,0,1,0
DA:609,1
BRDA:609,0,0,1
BRDA:609,0,1,0
DA:610,1
DA:611,1
DA:613,1
DA:601,1
DA:603,1
DA:607,1
BRDA:607,0,0,1
BRDA:607,0,1,0
DA:609,1
BRDA:609,0,0,1
BRDA:609,0,1,0
DA:610,1
DA:611,1
DA:613,1
DA:601,1
DA:603,1
DA:607,1
BRDA:607,0,0,1
BRDA:607,0,1,0
DA:609,1
BRDA:609,0,0,1
BRDA:609,0,1,0
DA:610,1
DA:611,1
DA:613,1
DA:601,1
DA:603,1
DA:607,1
BRDA:607,0,0,1
BRDA:607,0,1,0
DA:609,1
BRDA:609,0,0,1
BRDA:609,0,1,0
DA:610,1
DA:611,1
DA:613,1
DA:601,1
DA:603,1
DA:607,1
BRDA:607,0,0,1
BRDA:607,0,1,0
DA:609,1
BRDA:609,0,0,1
BRDA:609,0,1,0
DA:610,1
DA:611,1
DA:613,1
DA:601,1
DA:603,1
DA:607,1
BRDA:607,0,0,1
BRDA:607,0,1,0
DA:609,1
BRDA:609,0,0,1
BRDA:609,0,1,0
DA:610,1
DA:611,1
DA:613,1
DA:601,1
DA:603,1
DA:607,1
BRDA:607,0,0,1
BRDA:607,0,1,0
DA:609,1
BRDA:609,0,0,1
BRDA:609,0,1,0
DA:610,1
DA:611,1
DA:613,1
DA:601,1
DA:603,1
DA:607,1
BRDA:607,0,0,1
BRDA:607,0,1,0
DA:609,1
BRDA:609,0,0,1
BRDA:609,0,1,0
DA:610,1
DA:611,1
DA:613,1
DA:601,1
DA:603,1
DA:607,1
BRDA:607,0,0,1
BRDA:607,0,1,0
DA:609,1
BRDA:609,0,0,1
BRDA:609,0,1,0
DA:610,1
DA:611,1
DA:613,1
DA:601,1
DA:603,1
DA:607,1
BRDA:607,0,0,1
BRDA:607,0,1,0
DA:609,1
BRDA:609,0,0,1
BRDA:609,0,1,0
DA:610,1
DA:611,1
DA:613,1
DA:601,1
DA:603,1
DA:607,1
BRDA:607,0,0,1
BRDA:607,0,1,0
DA:609,1
BRDA:609,0,0,1
BRDA:609,0,1,0
DA:610,1
DA:611,1
DA:613,1
DA:601,1
DA:603,1
DA:607,1
BRDA:607,0,0,1
BRDA:607,0,1,0
DA:609,1
BRDA:609,0,0,1
BRDA:609,0,1,0
DA:610,1
DA:611,1
DA:613,1
DA:601,1
DA:603,1
DA:607,1
BRDA:607,0,0,1
BRDA:607,0,1,0
DA:609,1
BRDA:609,0,0,1
BRDA:609,0,1,0
DA:610,1
DA:611,1
DA:613,1
DA:601,1
DA:603,1
DA:607,1
BRDA:607,0,0,1
BRDA:607,0,1,0
DA:609,1
BRDA:609,0,0,1
BRDA:609,0,1,0
DA:610,1
DA:611,1
DA:613,1
DA:601,1
DA:603,1
DA:607,1
BRDA:607,0,0,1
BRDA:607,0,1,0
DA:609,1
BRDA:609,0,0,1
BRDA:609,0,1,0
DA:610,1
DA:611,1
DA:613,1
DA:601,1
DA:603,1
DA:607,1
BRDA:607,0,0,1
BRDA:607,0,1,0
DA:609,1
BRDA:609,0,0,1
BRDA:609,0,1,0
DA:610,1
DA:611,1
DA:613,1
DA:601,1
DA:603,1
DA:607,1
BRDA:607,0,0,1
BRDA:607,0,1,0
DA:609,1
BRDA:609,0,0,1
BRDA:609,0,1,0
DA:610,1
DA:611,1
DA:613,1
DA:601,1
DA:603,1
DA:607,1
BRDA:607,0,0,1
BRDA:607,0,1,0
DA:609,1
BRDA:609,0,0,1
BRDA:609,0,1,0
DA:610,1
DA:611,1
DA:613,1
DA:601,1
DA:603,1
DA:607,1
BRDA:607,0,0,1
BRDA:607,0,1,0
DA:609,1
BRDA:609,0,0,1
BRDA:609,0,1,0
DA:610,1
DA:611,1
DA:613,1
DA:601,1
DA:603,1
DA:607,1
BRDA:607,0,0,1
BRDA:607,0,1,0
DA:609,1
BRDA:609,0,0,1
BRDA:609,0,1,0
DA:610,1
DA:611,1
DA:613,1
DA:601,1
DA:603,1
DA:607,1
BRDA:607,0,0,1
BRDA:607,0,1,0
DA:609,1
BRDA:609,0,0,1
BRDA:609,0,1,0
DA:610,1
DA:611,1
DA:613,1
DA:601,1
DA:603,1
DA:607,1
BRDA:607,0,0,1
BRDA:607,0,1,0
DA:609,1
BRDA:609,0,0,1
BRDA:609,0,1,0
DA:610,1
DA:611,1
DA:613,1
DA:601,1
DA:603,1
DA:607,1
BRDA:607,0,0,1
BRDA:607,0,1,0
DA:609,1
BRDA:609,0,0,1
BRDA:609,0,1,0
DA:610,1
DA:611,1
DA:613,1
DA:601,1
DA:603,1
DA:607,1
BRDA:607,0,0,1
BRDA:607,0,1,0
DA:609,1
BRDA:609,0,0,1
BRDA:609,0,1,0
DA:610,1
DA:611,1
DA:613,1
DA:601,1
DA:603,1
DA:607,1
BRDA:607,0,0,1
BRDA:607,0,1,0
DA:609,1
BRDA:609,0,0,1
BRDA:609,0,1,0
DA:610,1
DA:611,1
DA:613,1
DA:601,1
DA:603,1
DA:607,1
BRDA:607,0,0,1
BRDA:607,0,1,0
DA:609,1
BRDA:609,0,0,1
BRDA:609,0,1,0
DA:610,1
DA:611,1
DA:613,1
DA:601,1
DA:603,1
DA:607,1
BRDA:607,0,0,1
BRDA:607,0,1,0
DA:609,1
BRDA:609,0,0,1
BRDA:609,0,1,0
DA:610,1
DA:611,1
DA:613,1
DA:601,1
DA:603,1
DA:607,1
BRDA:607,0,0,1
BRDA:607,0,1,0
DA:609,1
BRDA:609,0,0,1
BRDA:609,0,1,0
DA:610,1
DA:611,1
DA:613,1
DA:601,1
DA:603,1
DA:607,1
BRDA:607,0,0,1
BRDA:607,0,1,0
DA:609,1
BRDA:609,0,0,1
BRDA:609,0,1,0
DA:610,1
DA:611,1
DA:613,1
DA:601,1
DA:603,1
DA:607,1
BRDA:607,0,0,1
BRDA:607,0,1,0
DA:609,1
BRDA:609,0,0,1
BRDA:609,0,1,0
DA:610,1
DA:611,1
DA:613,1
DA:601,1
DA:603,1
DA:607,1
BRDA:607,0,0,1
BRDA:607,0,1,0
DA:609,1
BRDA:609,0,0,1
BRDA:609,0,1,0
DA:610,1
DA:611,1
DA:613,1
DA:601,1
DA:603,1
DA:607,1
BRDA:607,0,0,1
BRDA:607,0,1,0
DA:609,1
BRDA:609,0,0,1
BRDA:609,0,1,0
DA:610,1
DA:611,1
DA:613,1
DA:601,1
DA:603,1
DA:607,1
BRDA:607,0,0,1
BRDA:607,0,1,0
DA:609,1
BRDA:609,0,0,1
BRDA:609,0,1,0
DA:610,1
DA:611,1
DA:613,1
DA:601,1
DA:603,1
DA:607,1
BRDA:607,0,0,1
BRDA:607,0,1,0
DA:609,1
BRDA:609,0,0,1
BRDA:609,0,1,0
DA:610,1
DA:611,1
DA:613,1
DA:601,1
DA:603,1
DA:607,1
BRDA:607,0,0,1
BRDA:607,0,1,0
DA:609,1
BRDA:609,0,0,1
BRDA:609,0,1,0
DA:610,1
DA:611,1
DA:613,1
DA:601,1
DA:603,1
DA:607,1
BRDA:607,0,0,1
BRDA:607,0,1,0
DA:609,1
BRDA:609,0,0,1
BRDA:609,0,1,0
DA:610,1
DA:611,1
DA:613,1
DA:601,1
DA:603,1
DA:607,1
BRDA:607,0,0,1
BRDA:607,0,1,0
DA:609,1
BRDA:609,0,0,1
BRDA:609,0,1,0
DA:610,1
DA:611,1
DA:613,1
DA:601,1
DA:603,1
DA:607,1
BRDA:607,0,0,1
BRDA:607,0,1,0
DA:609,1
BRDA:609,0,0,1
BRDA:609,0,1,0
DA:610,1
DA:611,1
DA:613,1
DA:601,1
DA:603,1
DA:607,1
BRDA:607,0,0,1
BRDA:607,0,1,0
DA:609,1
BRDA:609,0,0,1
BRDA:609,0,1,0
DA:610,1
DA:611,1
DA:613,1
DA:601,1
DA:603,1
DA:607,1
BRDA:607,0,0,1
BRDA:607,0,1,0
DA:609,1
BRDA:609,0,0,1
BRDA:609,0,1,0
DA:610,1
DA:611,1
DA:613,1
DA:601,1
DA:603,1
DA:607,1
BRDA:607,0,0,1
BRDA:607,0,1,0
DA:609,1
BRDA:609,0,0,1
BRDA:609,0,1,0
DA:610,1
DA:611,1
DA:613,1
DA:601,1
DA:603,1
DA:607,1
BRDA:607,0,0,1
BRDA:607,0,1,0
DA:609,1
BRDA:609,0,0,1
BRDA:609,0,1,0
DA:610,1
DA:611,1
DA:613,1
DA:601,1
DA:603,1
DA:607,1
BRDA:607,0,0,1
BRDA:607,0,1,0
DA:609,1
BRDA:609,0,0,1
BRDA:609,0,1,0
DA:610,1
DA:611,1
DA:613,1
DA:601,1
DA:603,1
DA:607,1
BRDA:607,0,0,1
BRDA:607,0,1,0
DA:609,1
BRDA:609,0,0,1
BRDA:609,0,1,0
DA:610,1
DA:611,1
DA:613,1
DA:601,1
DA:603,1
DA:607,1
BRDA:607,0,0,1
BRDA:607,0,1,0
DA:609,1
BRDA:609,0,0,1
BRDA:609,0,1,0
DA:610,1
DA:611,1
DA:613,1
end_of_record
SF:/src/http_server_stock_v2/utils/json.hpp
FN:2357,_ZNK8nlohmann6detail9exception4whatEv
FNDA:0,_ZNK8nlohmann6detail9exception4whatEv
FN:2367,_ZN8nlohmann6detail9exceptionC2EiPKc
FNDA:0,_ZN8nlohmann6detail9exceptionC2EiPKc
FN:2369,_ZN8nlohmann6detail9exception4nameERKNSt7__cxx1112basic_stringIcSt11char_traitsIcESaIcEEEi
FNDA:0,_ZN8nlohmann6detail9exception4nameERKNSt7__cxx1112basic_stringIcSt11char_traitsIcESaIcEEEi
FN:2567,_ZN8nlohmann6detail10type_error6createEiRKNSt7__cxx1112basic_stringIcSt11char_traitsIcESaIcEEE
FNDA:0,_ZN8nlohmann6detail10type_error6createEiRKNSt7__cxx1112basic_stringIcSt11char_traitsIcESaIcEEE
FN:2575,_ZN8nlohmann6detail10type_errorC2EiPKc
FNDA:0,_ZN8nlohmann6detail10type_errorC2EiPKc
FN:2652,_ZN8nlohmann6detail11other_error6createEiRKNSt7__cxx1112basic_stringIcSt11char_traitsIcESaIcEEE
FNDA:0,_ZN8nlohmann6detail11other_error6createEiRKNSt7__cxx1112basic_stringIcSt11char_traitsIcESaIcEEE
FN:2660,_ZN8nlohmann6detail11other_errorC2EiPKc
FNDA:0,_ZN8nlohmann6detail11other_errorC2EiPKc
FN:4032,_ZN8nlohmann6detail20external_constructorILNS0_7value_tE3EE9constructINS_10basic_jsonISt3mapSt6vectorNSt7__cxx1112basic_stringIcSt11char_traitsIcESaIcEEEblmdSaNS_14adl_serializerES7_IhSaIhEEEEEEvRT_RKNSI_8string_tE
FNDA:0,_ZN8nlohmann6detail20external_constructorILNS0_7value_tE3EE9constructINS_10basic_jsonISt3mapSt6vectorNSt7__cxx1112basic_stringIcSt11char_traitsIcESaIcEEEblmdSaNS_14adl_serializerES7_IhSaIhEEEEEEvRT_RKNSI_8string_tE
FN:4050,_ZN8nlohmann6detail20external_constructorILNS0_7value_tE3EE9constructINS_10basic_jsonISt3mapSt6vectorNSt7__cxx1112basic_stringIcSt11char_traitsIcESaIcEEEblmdSaNS_14adl_serializerES7_IhSaIhEEEEPcLi0EEEvRT_RKT0_
FNDA:0,_ZN8nlohmann6detail20external_constructorILNS0_7value_tE3EE9constructINS_10basic_jsonISt3mapSt6vectorNSt7__cxx1112basic_stringIcSt11char_traitsIcESaIcEEEblmdSaNS_14adl_serializerES7_IhSaIhEEEEPcLi0EEEvRT_RKT0_
FN:4138,_ZN8nlohmann6detail20external_constructorILNS0_7value_tE2EE9constructINS_10basic_jsonISt3mapSt6vectorNSt7__cxx1112basic_stringIcSt11char_traitsIcESaIcEEEblmdSaNS_14adl_serializerES7_IhSaIhEEEES7_ISD_SaISD_EELi0EEEvRT_RKT0_
FNDA:0,_ZN8nlohmann6detail20external_constructorILNS0_7value_tE2EE9constructINS_10basic_jsonISt3mapSt6vectorNSt7__cxx1112basic_stringIcSt11char_traitsIcESaIcEEEblmdSaNS_14adl_serializerES7_IhSaIhEEEES7_ISD_SaISD_EELi0EEEvRT_RKT0_
FN:4220,_ZN8nlohmann6detail7to_jsonINS_10basic_jsonISt3mapSt6vectorNSt7__cxx1112basic_stringIcSt11char_traitsIcESaIcEEEblmdSaNS_14adl_serializerES4_IhSaIhEEEESA_Li0EEEvRT_RKT0_
FNDA:0,_ZN8nlohmann6detail7to_jsonINS_10basic_jsonISt3mapSt6vectorNSt7__cxx1112basic_stringIcSt11char_traitsIcESaIcEEEblmdSaNS_14adl_serializerES4_IhSaIhEEEESA_Li0EEEvRT_RKT0_
FN:4220,_ZN8nlohmann6detail7to_jsonINS_10basic_jsonISt3mapSt6vectorNSt7__cxx1112basic_stringIcSt11char_traitsIcESaIcEEEblmdSaNS_14adl_serializerES4_IhSaIhEEEEPcLi0EEEvRT_RKT0_
FNDA:0,_ZN8nlohmann6detail7to_jsonINS_10basic_jsonISt3mapSt6vectorNSt7__cxx1112basic_stringIcSt11char_traitsIcESaIcEEEblmdSaNS_14adl_serializerES4_IhSaIhEEEEPcLi0EEEvRT_RKT0_
FN:4274,_ZN8nlohmann6detail7to_jsonINS_10basic_jsonISt3mapSt6vectorNSt7__cxx1112basic_stringIcSt11char_traitsIcESaIcEEEblmdSaNS_14adl_serializerES4_IhSaIhEEEES4_ISA_SaISA_EELi0EEEvRT_RKT0_
FNDA:0,_ZN8nlohmann6detail7to_jsonINS_10basic_jsonISt3mapSt6vectorNSt7__cxx1112basic_stringIcSt11char_traitsIcESaIcEEEblmdSaNS_14adl_serializerES4_IhSaIhEEEES4_ISA_SaISA_EELi0EEEvRT_RKT0_
FN:4350,_ZNK8nlohmann6detail10to_json_fnclINS_10basic_jsonISt3mapSt6vectorNSt7__cxx1112basic_stringIcSt11char_traitsIcESaIcEEEblmdSaNS_14adl_serializerES5_IhSaIhEEEERPcEEDTcmcl7to_jsonfp_cl7forwardIT0_Efp0_EEcvv_EERT_OSI_
FNDA:0,_ZNK8nlohmann6detail10to_json_fnclINS_10basic_jsonISt3mapSt6vectorNSt7__cxx1112basic_stringIcSt11char_traitsIcESaIcEEEblmdSaNS_14adl_serializerES5_IhSaIhEEEERPcEEDTcmcl7to_jsonfp_cl7forwardIT0_Efp0_EEcvv_EERT_OSI_
FN:4350,_ZNK8nlohmann6detail10to_json_fnclINS_10basic_jsonISt3mapSt6vectorNSt7__cxx1112basic_stringIcSt11char_traitsIcESaIcEEEblmdSaNS_14adl_serializerES5_IhSaIhEEEERKS5_ISB_SaISB_EEEEDTcmcl7to_jsonfp_cl7forwardIT0_Efp0_EEcvv_EERT_OSK_
FNDA:0,_ZNK8nlohmann6detail10to_json_fnclINS_10basic_jsonISt3mapSt6vectorNSt7__cxx1112basic_stringIcSt11char_traitsIcESaIcEEEblmdSaNS_14adl_serializerES5_IhSaIhEEEERKS5_ISB_SaISB_EEEEDTcmcl7to_jsonfp_cl7forwardIT0_Efp0_EEcvv_EERT_OSK_
FN:4350,_ZNK8nlohmann6detail10to_json_fnclINS_10basic_jsonISt3mapSt6vectorNSt7__cxx1112basic_stringIcSt11char_traitsIcESaIcEEEblmdSaNS_14adl_serializerES5_IhSaIhEEEERKSB_EEDTcmcl7to_jsonfp_cl7forwardIT0_Efp0_EEcvv_EERT_OSI_
FNDA:0,_ZNK8nlohmann6detail10to_json_fnclINS_10basic_jsonISt3mapSt6vectorNSt7__cxx1112basic_stringIcSt11char_traitsIcESaIcEEEblmdSaNS_14adl_serializerES5_IhSaIhEEEERKSB_EEDTcmcl7to_jsonfp_cl7forwardIT0_Efp0_EEcvv_EERT_OSI_
FN:4399,_ZN8nlohmann14adl_serializerISt6vectorINSt7__cxx1112basic_stringIcSt11char_traitsIcESaIcEEESaIS7_EEvE7to_jsonINS_10basic_jsonISt3mapS1_S7_blmdSaS0_S1_IhSaIhEEEERKS9_EEDTcmclL_ZNS_12_GLOBAL__N_17to_jsonEEfp_cl7forwardIT0_Efp0_EEcvv_EERT_OSK_
FNDA:0,_ZN8nlohmann14adl_serializerISt6vectorINSt7__cxx1112basic_stringIcSt11char_traitsIcESaIcEEESaIS7_EEvE7to_jsonINS_10basic_jsonISt3mapS1_S7_blmdSaS0_S1_IhSaIhEEEERKS9_EEDTcmclL_ZNS_12_GLOBAL__N_17to_jsonEEfp_cl7forwardIT0_Efp0_EEcvv_EERT_OSK_
FN:4399,_ZN8nlohmann14adl_serializerIPcvE7to_jsonINS_10basic_jsonISt3mapSt6vectorNSt7__cxx1112basic_stringIcSt11char_traitsIcESaIcEEEblmdSaS0_S6_IhSaIhEEEERS1_EEDTcmclL_ZNS_12_GLOBAL__N_17to_jsonEEfp_cl7forwardIT0_Efp0_EEcvv_EERT_OSI_
FNDA:0,_ZN8nlohmann14adl_serializerIPcvE7to_jsonINS_10basic_jsonISt3mapSt6vectorNSt7__cxx1112basic_stringIcSt11char_traitsIcESaIcEEEblmdSaS0_S6_IhSaIhEEEERS1_EEDTcmclL_ZNS_12_GLOBAL__N_17to_jsonEEfp_cl7forwardIT0_Efp0_EEcvv_EERT_OSI_
FN:4399,_ZN8nlohmann14adl_serializerINSt7__cxx1112basic_stringIcSt11char_traitsIcESaIcEEEvE7to_jsonINS_10basic_jsonISt3mapSt6vectorS6_blmdSaS0_SB_IhSaIhEEEERKS6_EEDTcmclL_ZNS_12_GLOBAL__N_17to_jsonEEfp_cl7forwardIT0_Efp0_EEcvv_EERT_OSI_
FNDA:0,_ZN8nlohmann14adl_serializerINSt7__cxx1112basic_stringIcSt11char_traitsIcESaIcEEEvE7to_jsonINS_10basic_jsonISt3mapSt6vectorS6_blmdSaS0_SB_IhSaIhEEEERKS6_EEDTcmclL_ZNS_12_GLOBAL__N_17to_jsonEEfp_cl7forwardIT0_Efp0_EEcvv_EERT_OSI_
FN:4439,_ZN8nlohmann27byte_container_with_subtypeISt6vectorIhSaIhEEEC2Ev
FNDA:0,_ZN8nlohmann27byte_container_with_subtypeISt6vectorIhSaIhEEEC2Ev
FN:17406,_ZN8nlohmann10basic_jsonISt3mapSt6vectorNSt7__cxx1112basic_stringIcSt11char_traitsIcESaIcEEEblmdSaNS_14adl_serializerES2_IhSaIhEEE6createINS_27byte_container_with_subtypeISB_EEJEEEPT_DpOT0_
FNDA:0,_ZN8nlohmann10basic_jsonISt3mapSt6vectorNSt7__cxx1112basic_stringIcSt11char_traitsIcESaIcEEEblmdSaNS_14adl_serializerES2_IhSaIhEEE6createINS_27byte_container_with_subtypeISB_EEJEEEPT_DpOT0_
FN:17406,_ZN8nlohmann10basic_jsonISt3mapSt6vectorNSt7__cxx1112basic_stringIcSt11char_traitsIcESaIcEEEblmdSaNS_14adl_serializerES2_IhSaIhEEE6createIS8_JRA1_KcEEEPT_DpOT0_
FNDA:0,_ZN8nlohmann10basic_jsonISt3mapSt6vectorNSt7__cxx1112basic_stringIcSt11char_traitsIcESaIcEEEblmdSaNS_14adl_serializerES2_IhSaIhEEE6createIS8_JRA1_KcEEEPT_DpOT0_
FN:17406,_ZN8nlohmann10basic_jsonISt3mapSt6vectorNSt7__cxx1112basic_stringIcSt11char_traitsIcESaIcEEEblmdSaNS_14adl_serializerES2_IhSaIhEEE6createIS8_JRKPcEEEPT_DpOT0_
FNDA:0,_ZN8nlohmann10basic_jsonISt3mapSt6vectorNSt7__cxx1112basic_stringIcSt11char_traitsIcESaIcEEEblmdSaNS_14adl_serializerES2_IhSaIhEEE6createIS8_JRKPcEEEPT_DpOT0_
FN:17406,_ZN8nlohmann10basic_jsonISt3mapSt6vectorNSt7__cxx1112basic_stringIcSt11char_traitsIcESaIcEEEblmdSaNS_14adl_serializerES2_IhSaIhEEE6createIS2_ISC_SaISC_EEJEEEPT_DpOT0_
FNDA:0,_ZN8nlohmann10basic_jsonISt3mapSt6vectorNSt7__cxx1112basic_stringIcSt11char_traitsIcESaIcEEEblmdSaNS_14adl_serializerES2_IhSaIhEEE6createIS2_ISC_SaISC_EEJEEEPT_DpOT0_
FN:17406,_ZN8nlohmann10basic_jsonISt3mapSt6vectorNSt7__cxx1112basic_stringIcSt11char_traitsIcESaIcEEEblmdSaNS_14adl_serializerES2_IhSaIhEEE6createIS1_IS8_SC_St4lessIS8_ESaISt4pairIKS8_SC_EEEJEEEPT_DpOT0_
FNDA:0,_ZN8nlohmann10basic_jsonISt3mapSt6vectorNSt7__cxx1112basic_stringIcSt11char_traitsIcESaIcEEEblmdSaNS_14adl_serializerES2_IhSaIhEEE6createIS1_IS8_SC_St4lessIS8_ESaISt4pairIKS8_SC_EEEJEEEPT_DpOT0_
FN:17406,_ZN8nlohmann10basic_jsonISt3mapSt6vectorNSt7__cxx1112basic_stringIcSt11char_traitsIcESaIcEEEblmdSaNS_14adl_serializerES2_IhSaIhEEE6createIS8_JRKS8_EEEPT_DpOT0_
FNDA:0,_ZN8nlohmann10basic_jsonISt3mapSt6vectorNSt7__cxx1112basic_stringIcSt11char_traitsIcESaIcEEEblmdSaNS_14adl_serializerES2_IhSaIhEEE6createIS8_JRKS8_EEEPT_DpOT0_
FN:17406,_ZN8nlohmann10basic_jsonISt3mapSt6vectorNSt7__cxx1112basic_stringIcSt11char_traitsIcESaIcEEEblmdSaNS_14adl_serializerES2_IhSaIhEEE6createIS2_ISC_SaISC_EEJN9__gnu_cxx17__normal_iteratorIPKS8_S2_IS8_SaIS8_EEEESM_EEEPT_DpOT0_
FNDA:0,_ZN8nlohmann10basic_jsonISt3mapSt6vectorNSt7__cxx1112basic_stringIcSt11char_traitsIcESaIcEEEblmdSaNS_14adl_serializerES2_IhSaIhEEE6createIS2_ISC_SaISC_EEJN9__gnu_cxx17__normal_iteratorIPKS8_S2_IS8_SaIS8_EEEESM_EEEPT_DpOT0_
FN:17411,_ZZN8nlohmann10basic_jsonISt3mapSt6vectorNSt7__cxx1112basic_stringIcSt11char_traitsIcESaIcEEEblmdSaNS_14adl_serializerES2_IhSaIhEEE6createIS8_JRKPcEEEPT_DpOT0_ENKUlPS8_E_clESM_
FNDA:0,_ZZN8nlohmann10basic_jsonISt3mapSt6vectorNSt7__cxx1112basic_stringIcSt11char_traitsIcESaIcEEEblmdSaNS_14adl_serializerES2_IhSaIhEEE6createIS8_JRKPcEEEPT_DpOT0_ENKUlPS8_E_clESM_
FN:17411,_ZZN8nlohmann10basic_jsonISt3mapSt6vectorNSt7__cxx1112basic_stringIcSt11char_traitsIcESaIcEEEblmdSaNS_14adl_serializerES2_IhSaIhEEE6createIS8_JRKS8_EEEPT_DpOT0_ENKUlPS8_E_clESL_
FNDA:0,_ZZN8nlohmann10basic_jsonISt3mapSt6vectorNSt7__cxx1112basic_stringIcSt11char_traitsIcESaIcEEEblmdSaNS_14adl_serializerES2_IhSaIhEEE6createIS8_JRKS8_EEEPT_DpOT0_ENKUlPS8_E_clESL_
FN:17411,_ZZN8nlohmann10basic_jsonISt3mapSt6vectorNSt7__cxx1112basic_stringIcSt11char_traitsIcESaIcEEEblmdSaNS_14adl_serializerES2_IhSaIhEEE6createIS2_ISC_SaISC_EEJN9__gnu_cxx17__normal_iteratorIPKS8_S2_IS8_SaIS8_EEEESM_EEEPT_DpOT0_ENKUlPSF_E_clESS_
FNDA:0,_ZZN8nlohmann10basic_jsonISt3mapSt6vectorNSt7__cxx1112basic_stringIcSt11char_traitsIcESaIcEEEblmdSaNS_14adl_serializerES2_IhSaIhEEE6createIS2_ISC_SaISC_EEJN9__gnu_cxx17__normal_iteratorIPKS8_S2_IS8_SaIS8_EEEESM_EEEPT_DpOT0_ENKUlPSF_E_clESS_
FN:17411,_ZZN8nlohmann10basic_jsonISt3mapSt6vectorNSt7__cxx1112basic_stringIcSt11char_traitsIcESaIcEEEblmdSaNS_14adl_serializerES2_IhSaIhEEE6createIS1_IS8_SC_St4lessIS8_ESaISt4pairIKS8_SC_EEEJEEEPT_DpOT0_ENKUlPSK_E_clESQ_
FNDA:0,_ZZN8nlohmann10basic_jsonISt3mapSt6vectorNSt7__cxx1112basic_stringIcSt11char_traitsIcESaIcEEEblmdSaNS_14adl_serializerES2_IhSaIhEEE6createIS1_IS8_SC_St4lessIS8_ESaISt4pairIKS8_SC_EEEJEEEPT_DpOT0_ENKUlPSK_E_clESQ_
FN:17411,_ZZN8nlohmann10basic_jsonISt3mapSt6vectorNSt7__cxx1112basic_stringIcSt11char_traitsIcESaIcEEEblmdSaNS_14adl_serializerES2_IhSaIhEEE6createIS2_ISC_SaISC_EEJEEEPT_DpOT0_ENKUlPSF_E_clESL_
FNDA:0,_ZZN8nlohmann10basic_jsonISt3mapSt6vectorNSt7__cxx1112basic_stringIcSt11char_traitsIcESaIcEEEblmdSaNS_14adl_serializerES2_IhSaIhEEE6createIS2_ISC_SaISC_EEJEEEPT_DpOT0_ENKUlPSF_E_clESL_
FN:17411,_ZZN8nlohmann10basic_jsonISt3mapSt6vectorNSt7__cxx1112basic_stringIcSt11char_traitsIcESaIcEEEblmdSaNS_14adl_serializerES2_IhSaIhEEE6createIS8_JRA1_KcEEEPT_DpOT0_ENKUlPS8_E_clESM_
FNDA:0,_ZZN8nlohmann10basic_jsonISt3mapSt6vectorNSt7__cxx1112basic_stringIcSt11char_traitsIcESaIcEEEblmdSaNS_14adl_serializerES2_IhSaIhEEE6createIS8_JRA1_KcEEEPT_DpOT0_ENKUlPS8_E_clESM_
FN:17411,_ZZN8nlohmann10basic_jsonISt3mapSt6vectorNSt7__cxx1112basic_stringIcSt11char_traitsIcESaIcEEEblmdSaNS_14adl_serializerES2_IhSaIhEEE6createINS_27byte_container_with_subtypeISB_EEJEEEPT_DpOT0_ENKUlPSF_E_clESL_
FNDA:0,_ZZN8nlohmann10basic_jsonISt3mapSt6vectorNSt7__cxx1112basic_stringIcSt11char_traitsIcESaIcEEEblmdSaNS_14adl_serializerES2_IhSaIhEEE6createINS_27byte_container_with_subtypeISB_EEJEEEPT_DpOT0_ENKUlPSF_E_clESL_
FN:17480,_ZN8nlohmann10basic_jsonISt3mapSt6vectorNSt7__cxx1112basic_stringIcSt11char_traitsIcESaIcEEEblmdSaNS_14adl_serializerES2_IhSaIhEEE10json_valueC2ENS_6detail7value_tE
FNDA:0,_ZN8nlohmann10basic_jsonISt3mapSt6vectorNSt7__cxx1112basic_stringIcSt11char_traitsIcESaIcEEEblmdSaNS_14adl_serializerES2_IhSaIhEEE10json_valueC2ENS_6detail7value_tE
FN:17551,_ZN8nlohmann10basic_jsonISt3mapSt6vectorNSt7__cxx1112basic_stringIcSt11char_traitsIcESaIcEEEblmdSaNS_14adl_serializerES2_IhSaIhEEE10json_valueC2ERKS8_
FNDA:0,_ZN8nlohmann10basic_jsonISt3mapSt6vectorNSt7__cxx1112basic_stringIcSt11char_traitsIcESaIcEEEblmdSaNS_14adl_serializerES2_IhSaIhEEE10json_valueC2ERKS8_
FN:17610,_ZN8nlohmann10basic_jsonISt3mapSt6vectorNSt7__cxx1112basic_stringIcSt11char_traitsIcESaIcEEEblmdSaNS_14adl_serializerES2_IhSaIhEEE10json_value7destroyENS_6detail7value_tE
FNDA:0,_ZN8nlohmann10basic_jsonISt3mapSt6vectorNSt7__cxx1112basic_stringIcSt11char_traitsIcESaIcEEEblmdSaNS_14adl_serializerES2_IhSaIhEEE10json_value7destroyENS_6detail7value_tE
FN:17710,_ZNK8nlohmann10basic_jsonISt3mapSt6vectorNSt7__cxx1112basic_stringIcSt11char_traitsIcESaIcEEEblmdSaNS_14adl_serializerES2_IhSaIhEEE16assert_invariantEv
FNDA:0,_ZNK8nlohmann10basic_jsonISt3mapSt6vectorNSt7__cxx1112basic_stringIcSt11char_traitsIcESaIcEEEblmdSaNS_14adl_serializerES2_IhSaIhEEE16assert_invariantEv
FN:17830,_ZN8nlohmann10basic_jsonISt3mapSt6vectorNSt7__cxx1112basic_stringIcSt11char_traitsIcESaIcEEEblmdSaNS_14adl_serializerES2_IhSaIhEEEC2ENS_6detail7value_tE
FNDA:0,_ZN8nlohmann10basic_jsonISt3mapSt6vectorNSt7__cxx1112basic_stringIcSt11char_traitsIcESaIcEEEblmdSaNS_14adl_serializerES2_IhSaIhEEEC2ENS_6detail7value_tE
FN:17854,_ZN8nlohmann10basic_jsonISt3mapSt6vectorNSt7__cxx1112basic_stringIcSt11char_traitsIcESaIcEEEblmdSaNS_14adl_serializerES2_IhSaIhEEEC2EDn
FNDA:0,_ZN8nlohmann10basic_jsonISt3mapSt6vectorNSt7__cxx1112basic_stringIcSt11char_traitsIcESaIcEEEblmdSaNS_14adl_serializerES2_IhSaIhEEEC2EDn
FN:17927,_ZN8nlohmann10basic_jsonISt3mapSt6vectorNSt7__cxx1112basic_stringIcSt11char_traitsIcESaIcEEEblmdSaNS_14adl_serializerES2_IhSaIhEEEC2IRPcSE_Li0EEEOT_
FNDA:0,_ZN8nlohmann10basic_jsonISt3mapSt6vectorNSt7__cxx1112basic_stringIcSt11char_traitsIcESaIcEEEblmdSaNS_14adl_serializerES2_IhSaIhEEEC2IRPcSE_Li0EEEOT_
FN:17927,_ZN8nlohmann10basic_jsonISt3mapSt6vectorNSt7__cxx1112basic_stringIcSt11char_traitsIcESaIcEEEblmdSaNS_14adl_serializerES2_IhSaIhEEEC2IRKS2_IS8_SaIS8_EESF_Li0EEEOT_
FNDA:0,_ZN8nlohmann10basic_jsonISt3mapSt6vectorNSt7__cxx1112basic_stringIcSt11char_traitsIcESaIcEEEblmdSaNS_14adl_serializerES2_IhSaIhEEEC2IRKS2_IS8_SaIS8_EESF_Li0EEEOT_
FN:17927,_ZN8nlohmann10basic_jsonISt3mapSt6vectorNSt7__cxx1112basic_stringIcSt11char_traitsIcESaIcEEEblmdSaNS_14adl_serializerES2_IhSaIhEEEC2IRKS8_S8_Li0EEEOT_
FNDA:0,_ZN8nlohmann10basic_jsonISt3mapSt6vectorNSt7__cxx1112basic_stringIcSt11char_traitsIcESaIcEEEblmdSaNS_14adl_serializerES2_IhSaIhEEEC2IRKS8_S8_Li0EEEOT_
FN:18625,_ZN8nlohmann10basic_jsonISt3mapSt6vectorNSt7__cxx1112basic_stringIcSt11char_traitsIcESaIcEEEblmdSaNS_14adl_serializerES2_IhSaIhEEEC2EOSC_
FNDA:0,_ZN8nlohmann10basic_jsonISt3mapSt6vectorNSt7__cxx1112basic_stringIcSt11char_traitsIcESaIcEEEblmdSaNS_14adl_serializerES2_IhSaIhEEEC2EOSC_
FN:18662,_ZN8nlohmann10basic_jsonISt3mapSt6vectorNSt7__cxx1112basic_stringIcSt11char_traitsIcESaIcEEEblmdSaNS_14adl_serializerES2_IhSaIhEEEaSESC_
FNDA:0,_ZN8nlohmann10basic_jsonISt3mapSt6vectorNSt7__cxx1112basic_stringIcSt11char_traitsIcESaIcEEEblmdSaNS_14adl_serializerES2_IhSaIhEEEaSESC_
FN:18695,_ZN8nlohmann10basic_jsonISt3mapSt6vectorNSt7__cxx1112basic_stringIcSt11char_traitsIcESaIcEEEblmdSaNS_14adl_serializerES2_IhSaIhEEED2Ev
FNDA:0,_ZN8nlohmann10basic_jsonISt3mapSt6vectorNSt7__cxx1112basic_stringIcSt11char_traitsIcESaIcEEEblmdSaNS_14adl_serializerES2_IhSaIhEEED2Ev
FN:18892,_ZNK8nlohmann10basic_jsonISt3mapSt6vectorNSt7__cxx1112basic_stringIcSt11char_traitsIcESaIcEEEblmdSaNS_14adl_serializerES2_IhSaIhEEE7is_nullEv
FNDA:0,_ZNK8nlohmann10basic_jsonISt3mapSt6vectorNSt7__cxx1112basic_stringIcSt11char_traitsIcESaIcEEEblmdSaNS_14adl_serializerES2_IhSaIhEEE7is_nullEv
FN:19051,_ZNK8nlohmann10basic_jsonISt3mapSt6vectorNSt7__cxx1112basic_stringIcSt11char_traitsIcESaIcEEEblmdSaNS_14adl_serializerES2_IhSaIhEEE9is_objectEv
FNDA:0,_ZNK8nlohmann10basic_jsonISt3mapSt6vectorNSt7__cxx1112basic_stringIcSt11char_traitsIcESaIcEEEblmdSaNS_14adl_serializerES2_IhSaIhEEE9is_objectEv
FN:19073,_ZNK8nlohmann10basic_jsonISt3mapSt6vectorNSt7__cxx1112basic_stringIcSt11char_traitsIcESaIcEEEblmdSaNS_14adl_serializerES2_IhSaIhEEE8is_arrayEv
FNDA:0,_ZNK8nlohmann10basic_jsonISt3mapSt6vectorNSt7__cxx1112basic_stringIcSt11char_traitsIcESaIcEEEblmdSaNS_14adl_serializerES2_IhSaIhEEE8is_arrayEv
FN:20162,_ZN8nlohmann10basic_jsonISt3mapSt6vectorNSt7__cxx1112basic_stringIcSt11char_traitsIcESaIcEEEblmdSaNS_14adl_serializerES2_IhSaIhEEEixIKcEERSC_PT_
FNDA:0,_ZN8nlohmann10basic_jsonISt3mapSt6vectorNSt7__cxx1112basic_stringIcSt11char_traitsIcESaIcEEEblmdSaNS_14adl_serializerES2_IhSaIhEEEixIKcEERSC_PT_
FN:23412,_ZNK8nlohmann10basic_jsonISt3mapSt6vectorNSt7__cxx1112basic_stringIcSt11char_traitsIcESaIcEEEblmdSaNS_14adl_serializerES2_IhSaIhEEE9type_nameEv
FNDA:0,_ZNK8nlohmann10basic_jsonISt3mapSt6vectorNSt7__cxx1112basic_stringIcSt11char_traitsIcESaIcEEEblmdSaNS_14adl_serializerES2_IhSaIhEEE9type_nameEv
DA:2357,0
DA:2359,0
DA:2367,0
BRDA:2367,0,0,-
BRDA:2367,0,1,-
DA:2369,0
DA:2371,0
BRDA:2371,0,0,-
BRDA:2371,0,1,-
BRDA:2371,0,2,-
BRDA:2371,0,3,-
BRDA:2371,0,4,-
BRDA:2371,0,5,-
BRDA:2371,0,6,-
BRDA:2371,0,7,-
DA:2567,0
DA:2569,0
BRDA:2569,0,0,-
BRDA:2569,0,1,-
BRDA:2569,0,2,-
BRDA:2569,0,3,-
BRDA:2569,0,4,-
BRDA:2569,0,5,-
DA:2570,0
BRDA:2570,0,0,-
BRDA:2570,0,1,-
DA:2575,0
DA:2652,0
DA:2654,0
BRDA:2654,0,0,-
BRDA:2654,0,1,-
BRDA:2654,0,2,-
BRDA:2654,0,3,-
BRDA:2654,0,4,-
BRDA:2654,0,5,-
DA:2655,0
BRDA:2655,0,0,-
BRDA:2655,0,1,-
DA:2660,0
DA:4032,0
DA:4034,0
DA:4035,0
DA:4036,0
DA:4037,0
DA:4050,0
DA:4052,0
DA:4053,0
DA:4054,0
DA:4055,0
DA:4138,0
DA:4142,0
DA:4143,0
BRDA:4143,0,0,-
BRDA:4143,0,1,-
DA:4144,0
DA:4145,0
DA:4220,0
DA:4222,0
DA:4223,0
DA:4220,0
DA:4222,0
DA:4223,0
DA:4274,0
DA:4276,0
DA:4277,0
DA:4350,0
DA:4353,0
DA:4350,0
DA:4353,0
DA:4350,0
DA:4353,0
DA:4399,0
DA:4403,0
DA:4404,0
DA:4399,0
DA:4403,0
DA:4404,0
DA:4399,0
DA:4403,0
DA:4404,0
DA:4439,0
DA:4440,0
DA:4441,0
DA:17406,0
DA:17408,0
DA:17411,0
DA:17415,0
BRDA:17415,0,0,-
BRDA:17415,0,1,-
DA:17416,0
BRDA:17416,0,0,-
BRDA:17416,0,1,-
DA:17418,0
DA:17406,0
DA:17408,0
DA:17411,0
DA:17415,0
BRDA:17415,0,0,-
BRDA:17415,0,1,-
DA:17416,0
BRDA:17416,0,0,-
BRDA:17416,0,1,-
DA:17418,0
DA:17406,0
DA:17408,0
DA:17411,0
DA:17415,0
BRDA:17415,0,0,-
BRDA:17415,0,1,-
DA:17416,0
BRDA:17416,0,0,-
BRDA:17416,0,1,-
DA:17418,0
DA:17406,0
DA:17408,0
DA:17411,0
DA:17415,0
BRDA:17415,0,0,-
BRDA:17415,0,1,-
DA:17416,0
DA:17418,0
DA:17406,0
DA:17408,0
DA:17411,0
DA:17415,0
BRDA:17415,0,0,-
BRDA:17415,0,1,-
DA:17416,0
BRDA:17416,0,0,-
BRDA:17416,0,1,-
DA:17418,0
DA:17406,0
DA:17408,0
DA:17411,0
DA:17415,0
BRDA:17415,0,0,-
BRDA:17415,0,1,-
DA:17416,0
DA:17418,0
DA:17406,0
DA:17408,0
DA:17411,0
DA:17415,0
BRDA:17415,0,0,-
BRDA:17415,0,1,-
DA:17416,0
DA:17418,0
DA:17411,0
DA:17411,0
DA:17411,0
DA:17411,0
DA:17411,0
DA:17411,0
DA:17411,0
DA:17413,0
DA:17480,0
DA:17482,0
BRDA:17482,0,0,-
BRDA:17482,0,1,-
BRDA:17482,0,2,-
BRDA:17482,0,3,-
BRDA:17482,0,4,-
BRDA:17482,0,5,-
BRDA:17482,0,6,-
BRDA:17482,0,7,-
BRDA:17482,0,8,-
BRDA:17482,0,9,-
DA:17484,0
DA:17486,0
DA:17487,0
DA:17490,0
DA:17492,0
DA:17493,0
DA:17496,0
DA:17498,0
DA:17499,0
DA:17502,0
DA:17504,0
DA:17505,0
DA:17508,0
DA:17510,0
DA:17511,0
DA:17514,0
DA:17516,0
DA:17517,0
DA:17520,0
DA:17522,0
DA:17523,0
DA:17526,0
DA:17528,0
DA:17529,0
DA:17532,0
DA:17534,0
DA:17535,0
DA:17538,0
DA:17540,0
DA:17541,0
BRDA:17541,0,0,-
BRDA:17541,0,1,-
DA:17545,0
DA:17548,0
DA:17551,0
DA:17553,0
DA:17554,0
DA:17610,0
DA:17613,0
DA:17616,0
BRDA:17616,0,0,-
BRDA:17616,0,1,-
DA:17618,0
DA:17619,0
DA:17621,0
BRDA:17621,0,0,-
BRDA:17621,0,1,-
DA:17623,0
DA:17624,0
BRDA:17624,0,0,-
BRDA:17624,0,1,-
DA:17626,0
DA:17630,0
BRDA:17630,0,0,-
BRDA:17630,0,1,-
DA:17633,0
DA:17634,0
DA:17638,0
BRDA:17638,0,0,-
BRDA:17638,0,1,-
DA:17640,0
DA:17643,0
DA:17645,0
BRDA:17645,0,0,-
BRDA:17645,0,1,-
DA:17647,0
BRDA:17647,0,0,-
BRDA:17647,0,1,-
DA:17649,0
DA:17652,0
DA:17659,0
BRDA:17659,0,0,-
BRDA:17659,0,1,-
BRDA:17659,0,2,-
BRDA:17659,0,3,-
BRDA:17659,0,4,-
DA:17661,0
DA:17663,0
DA:17664,0
DA:17665,0
DA:17666,0
DA:17669,0
DA:17671,0
DA:17672,0
DA:17673,0
DA:17674,0
DA:17677,0
DA:17679,0
DA:17680,0
DA:17681,0
DA:17682,0
DA:17685,0
DA:17687,0
DA:17688,0
DA:17689,0
DA:17690,0
DA:17693,0
DA:17695,0
DA:17698,0
DA:17710,0
DA:17716,0
DA:17830,0
DA:17831,0
DA:17833,0
DA:17834,0
DA:17854,0
DA:17855,0
DA:17857,0
DA:17858,0
DA:17927,0
DA:17930,0
DA:17931,0
DA:17932,0
DA:17933,0
DA:17927,0
DA:17930,0
DA:17931,0
DA:17932,0
DA:17933,0
DA:17927,0
DA:17930,0
DA:17931,0
DA:17932,0
DA:17933,0
DA:18625,0
DA:18626,0
DA:18627,0
DA:18630,0
DA:18633,0
DA:18634,0
DA:18636,0
DA:18637,0
DA:18662,0
DA:18670,0
DA:18673,0
DA:18674,0
DA:18676,0
DA:18677,0
DA:18695,0
DA:18697,0
DA:18698,0
DA:18699,0
DA:18892,0
DA:18894,0
DA:19051,0
DA:19053,0
DA:19073,0
DA:19075,0
DA:20162,0
DA:20165,0
BRDA:20165,0,0,-
BRDA:20165,0,1,-
DA:20167,0
DA:20168,0
DA:20169,0
DA:20173,0
BRDA:20173,0,0,-
BRDA:20173,0,1,-
DA:20175,0
BRDA:20175,0,0,-
BRDA:20175,0,1,-
BRDA:20175,0,2,-
BRDA:20175,0,3,-
DA:20178,0
BRDA:20178,0,0,-
BRDA:20178,0,1,-
BRDA:20178,0,2,-
BRDA:20178,0,3,-
BRDA:20178,0,4,-
BRDA:20178,0,5,-
DA:23412,0
DA:23415,0
BRDA:23415,0,0,-
BRDA:23415,0,1,-
BRDA:23415,0,2,-
BRDA:23415,0,3,-
BRDA:23415,0,4,-
BRDA:23415,0,5,-
BRDA:23415,0,6,-
BRDA:23415,0,7,-
DA:23417,0
DA:23418,0
DA:23419,0
DA:23420,0
DA:23421,0
DA:23422,0
DA:23423,0
DA:23424,0
DA:23425,0
DA:23426,0
DA:23427,0
DA:23428,0
DA:23429,0
DA:23430,0
DA:23431,0
DA:23432,0
end_of_record
SF:/usr/include/c++/10/bits/exception.h
FN:63,_ZNSt9exceptionC2Ev
FNDA:0,_ZNSt9exceptionC2Ev
DA:63,0
end_of_record
SF:/usr/include/c++/10/bits/stl_pair.h
FN:322,_ZNSt4pairIPSt18_Rb_tree_node_baseS1_EC2IRS1_Lb1EEEOT_RKS1_
FNDA:0,_ZNSt4pairIPSt18_Rb_tree_node_baseS1_EC2IRS1_Lb1EEEOT_RKS1_
FN:336,_ZNSt4pairIPSt18_Rb_tree_node_baseS1_EC2IRS1_Lb1EEERKS1_OT_
FNDA:45,_ZNSt4pairIPSt18_Rb_tree_node_baseS1_EC2IRS1_Lb1EEERKS1_OT_
FN:352,_ZNSt4pairIPSt18_Rb_tree_node_baseS1_EC2IRPSt13_Rb_tree_nodeIS_IKNSt7__cxx1112basic_stringIcSt11char_traitsIcESaIcEEEN8nlohmann10basic_jsonISt3mapSt6vectorSA_blmdSaNSC_14adl_serializerESF_IhSaIhEEEEEERS1_Lb1EEEOT_OT0_
FNDA:0,_ZNSt4pairIPSt18_Rb_tree_node_baseS1_EC2IRPSt13_Rb_tree_nodeIS_IKNSt7__cxx1112basic_stringIcSt11char_traitsIcESaIcEEEN8nlohmann10basic_jsonISt3mapSt6vectorSA_blmdSaNSC_14adl_serializerESF_IhSaIhEEEEEERS1_Lb1EEEOT_OT0_
FN:352,_ZNSt4pairIPSt18_Rb_tree_node_baseS1_EC2IRS1_S4_Lb1EEEOT_OT0_
FNDA:39,_ZNSt4pairIPSt18_Rb_tree_node_baseS1_EC2IRS1_S4_Lb1EEEOT_OT0_
DA:322,0
DA:323,0
DA:336,45
DA:337,45
DA:352,0
DA:353,0
DA:352,39
DA:353,39
end_of_record
SF:/usr/include/c++/10/bits/charconv.h
FN:47,_ZNSt8__detail14__to_chars_lenIjEEjT_i
FNDA:0,_ZNSt8__detail14__to_chars_lenIjEEjT_i
FN:72,_ZNSt8__detail18__to_chars_10_implIjEEvPcjT_
FNDA:0,_ZNSt8__detail18__to_chars_10_implIjEEvPcjT_
DA:47,0
DA:52,0
DA:53,0
DA:54,0
DA:55,0
DA:58,0
BRDA:58,0,0,-
BRDA:58,0,1,-
DA:59,0
BRDA:59,0,0,-
BRDA:59,0,1,-
DA:60,0
BRDA:60,0,0,-
BRDA:60,0,1,-
DA:61,0
BRDA:61,0,0,-
BRDA:61,0,1,-
DA:62,0
DA:63,0
DA:72,0
DA:83,0
DA:84,0
BRDA:84,0,0,-
BRDA:84,0,1,-
DA:86,0
DA:87,0
DA:88,0
DA:89,0
DA:90,0
DA:92,0
BRDA:92,0,0,-
BRDA:92,0,1,-
DA:94,0
DA:95,0
DA:96,0
DA:99,0
DA:100,0
end_of_record
SF:/usr/include/c++/10/type_traits
FN:62,_ZNKSt17integral_constantIbLb1EEcvbEv
FNDA:0,_ZNKSt17integral_constantIbLb1EEcvbEv
DA:62,0
end_of_record
SF:/usr/include/c++/10/bits/cpp_type_traits.h
FN:544,_ZSt12__miter_baseIN9__gnu_cxx17__normal_iteratorIPN8nlohmann10basic_jsonISt3mapSt6vectorNSt7__cxx1112basic_stringIcSt11char_traitsIcESaIcEEEblmdSaNS2_14adl_serializerES5_IhSaIhEEEES5_ISF_SaISF_EEEEET_SK_
FNDA:0,_ZSt12__miter_baseIN9__gnu_cxx17__normal_iteratorIPN8nlohmann10basic_jsonISt3mapSt6vectorNSt7__cxx1112basic_stringIcSt11char_traitsIcESaIcEEEblmdSaNS2_14adl_serializerES5_IhSaIhEEEES5_ISF_SaISF_EEEEET_SK_
DA:544,0
DA:545,0
end_of_record
SF:/usr/include/c++/10/bits/stl_algobase.h
FN:230,_ZSt3minImERKT_S2_S2_
FNDA:2,_ZSt3minImERKT_S2_S2_
FN:254,_ZSt3maxImERKT_S2_S2_
FNDA:2,_ZSt3maxImERKT_S2_S2_
FN:313,_ZSt12__niter_baseIPN8nlohmann10basic_jsonISt3mapSt6vectorNSt7__cxx1112basic_stringIcSt11char_traitsIcESaIcEEEblmdSaNS0_14adl_serializerES3_IhSaIhEEEEET_SF_
FNDA:0,_ZSt12__niter_baseIPN8nlohmann10basic_jsonISt3mapSt6vectorNSt7__cxx1112basic_stringIcSt11char_traitsIcESaIcEEEblmdSaNS0_14adl_serializerES3_IhSaIhEEEEET_SF_
FN:313,_ZSt12__niter_baseIPNSt7__cxx1112basic_stringIcSt11char_traitsIcESaIcEEEET_S7_
FNDA:0,_ZSt12__niter_baseIPNSt7__cxx1112basic_stringIcSt11char_traitsIcESaIcEEEET_S7_
FN:313,_ZSt12__niter_baseISt20back_insert_iteratorISt6vectorIN8nlohmann10basic_jsonISt3mapS1_NSt7__cxx1112basic_stringIcSt11char_traitsIcESaIcEEEblmdSaNS2_14adl_serializerES1_IhSaIhEEEESaISE_EEEET_SI_
FNDA:0,_ZSt12__niter_baseISt20back_insert_iteratorISt6vectorIN8nlohmann10basic_jsonISt3mapS1_NSt7__cxx1112basic_stringIcSt11char_traitsIcESaIcEEEblmdSaNS2_14adl_serializerES1_IhSaIhEEEESaISE_EEEET_SI_
FN:330,_ZSt12__niter_wrapISt20back_insert_iteratorISt6vectorIN8nlohmann10basic_jsonISt3mapS1_NSt7__cxx1112basic_stringIcSt11char_traitsIcESaIcEEEblmdSaNS2_14adl_serializerES1_IhSaIhEEEESaISE_EEEET_RKSI_SI_
FNDA:0,_ZSt12__niter_wrapISt20back_insert_iteratorISt6vectorIN8nlohmann10basic_jsonISt3mapS1_NSt7__cxx1112basic_stringIcSt11char_traitsIcESaIcEEEblmdSaNS2_14adl_serializerES1_IhSaIhEEEESaISE_EEEET_RKSI_SI_
FN:395,_ZNSt11__copy_moveILb1ELb0ESt26random_access_iterator_tagE8__copy_mIPN8nlohmann10basic_jsonISt3mapSt6vectorNSt7__cxx1112basic_stringIcSt11char_traitsIcESaIcEEEblmdSaNS3_14adl_serializerES6_IhSaIhEEEESt20back_insert_iteratorIS6_ISG_SaISG_EEEEET0_T_SN_SM_
FNDA:0,_ZNSt11__copy_moveILb1ELb0ESt26random_access_iterator_tagE8__copy_mIPN8nlohmann10basic_jsonISt3mapSt6vectorNSt7__cxx1112basic_stringIcSt11char_traitsIcESaIcEEEblmdSaNS3_14adl_serializerES6_IhSaIhEEEESt20back_insert_iteratorIS6_ISG_SaISG_EEEEET0_T_SN_SM_
FN:463,_ZSt14__copy_move_a2ILb1EPN8nlohmann10basic_jsonISt3mapSt6vectorNSt7__cxx1112basic_stringIcSt11char_traitsIcESaIcEEEblmdSaNS0_14adl_serializerES3_IhSaIhEEEESt20back_insert_iteratorIS3_ISD_SaISD_EEEET1_T0_SK_SJ_
FNDA:0,_ZSt14__copy_move_a2ILb1EPN8nlohmann10basic_jsonISt3mapSt6vectorNSt7__cxx1112basic_stringIcSt11char_traitsIcESaIcEEEblmdSaNS0_14adl_serializerES3_IhSaIhEEEESt20back_insert_iteratorIS3_ISD_SaISD_EEEET1_T0_SK_SJ_
FN:505,_ZSt14__copy_move_a1ILb1EPN8nlohmann10basic_jsonISt3mapSt6vectorNSt7__cxx1112basic_stringIcSt11char_traitsIcESaIcEEEblmdSaNS0_14adl_serializerES3_IhSaIhEEEESt20back_insert_iteratorIS3_ISD_SaISD_EEEET1_T0_SK_SJ_
FNDA:0,_ZSt14__copy_move_a1ILb1EPN8nlohmann10basic_jsonISt3mapSt6vectorNSt7__cxx1112basic_stringIcSt11char_traitsIcESaIcEEEblmdSaNS0_14adl_serializerES3_IhSaIhEEEESt20back_insert_iteratorIS3_ISD_SaISD_EEEET1_T0_SK_SJ_
FN:511,_ZSt13__copy_move_aILb1EN9__gnu_cxx17__normal_iteratorIPN8nlohmann10basic_jsonISt3mapSt6vectorNSt7__cxx1112basic_stringIcSt11char_traitsIcESaIcEEEblmdSaNS2_14adl_serializerES5_IhSaIhEEEES5_ISF_SaISF_EEEESt20back_insert_iteratorISI_EET1_T0_SN_SM_
FNDA:0,_ZSt13__copy_move_aILb1EN9__gnu_cxx17__normal_iteratorIPN8nlohmann10basic_jsonISt3mapSt6vectorNSt7__cxx1112basic_stringIcSt11char_traitsIcESaIcEEEblmdSaNS2_14adl_serializerES5_IhSaIhEEEES5_ISF_SaISF_EEEESt20back_insert_iteratorISI_EET1_T0_SN_SM_
FN:593,_ZSt4moveIN9__gnu_cxx17__normal_iteratorIPN8nlohmann10basic_jsonISt3mapSt6vectorNSt7__cxx1112basic_stringIcSt11char_traitsIcESaIcEEEblmdSaNS2_14adl_serializerES5_IhSaIhEEEES5_ISF_SaISF_EEEESt20back_insert_iteratorISI_EET0_T_SN_SM_
FNDA:0,_ZSt4moveIN9__gnu_cxx17__normal_iteratorIPN8nlohmann10basic_jsonISt3mapSt6vectorNSt7__cxx1112basic_stringIcSt11char_traitsIcESaIcEEEblmdSaNS2_14adl_serializerES5_IhSaIhEEEES5_ISF_SaISF_EEEESt20back_insert_iteratorISI_EET0_T_SN_SM_
DA:230,2
DA:235,2
BRDA:235,0,0,0
BRDA:235,0,1,2
DA:236,0
DA:237,2
DA:254,2
DA:259,2
BRDA:259,0,0,1
BRDA:259,0,1,1
DA:260,1
DA:261,1
DA:313,0
DA:315,0
DA:313,0
DA:315,0
DA:313,0
DA:315,0
DA:330,0
DA:331,0
DA:395,0
DA:398,0
BRDA:398,0,0,-
BRDA:398,0,1,-
DA:400,0
DA:401,0
DA:402,0
DA:404,0
DA:463,0
DA:472,0
DA:505,0
DA:506,0
DA:511,0
DA:513,0
DA:516,0
DA:593,0
DA:601,0
DA:602,0
end_of_record
SF:/usr/include/c++/10/bits/unique_ptr.h
FN:158,_ZNSt15__uniq_ptr_implISt3mapINSt7__cxx1112basic_stringIcSt11char_traitsIcESaIcEEEN8nlohmann10basic_jsonIS0_St6vectorS6_blmdSaNS7_14adl_serializerES9_IhSaIhEEEESt4lessIS6_ESaISt4pairIKS6_SD_EEEZNSD_6createISK_JEEEPT_DpOT0_EUlPSK_E_EC2IRKSS_EESR_OSM_
FNDA:0,_ZNSt15__uniq_ptr_implISt3mapINSt7__cxx1112basic_stringIcSt11char_traitsIcESaIcEEEN8nlohmann10basic_jsonIS0_St6vectorS6_blmdSaNS7_14adl_serializerES9_IhSaIhEEEESt4lessIS6_ESaISt4pairIKS6_SD_EEEZNSD_6createISK_JEEEPT_DpOT0_EUlPSK_E_EC2IRKSS_EESR_OSM_
FN:158,_ZNSt15__uniq_ptr_implIN8nlohmann27byte_container_with_subtypeISt6vectorIhSaIhEEEEZNS0_10basic_jsonISt3mapS2_NSt7__cxx1112basic_stringIcSt11char_traitsIcESaIcEEEblmdSaNS0_14adl_serializerES4_E6createIS5_JEEEPT_DpOT0_EUlPS5_E_EC2IRKSN_EESM_OSH_
FNDA:0,_ZNSt15__uniq_ptr_implIN8nlohmann27byte_container_with_subtypeISt6vectorIhSaIhEEEEZNS0_10basic_jsonISt3mapS2_NSt7__cxx1112basic_stringIcSt11char_traitsIcESaIcEEEblmdSaNS0_14adl_serializerES4_E6createIS5_JEEEPT_DpOT0_EUlPS5_E_EC2IRKSN_EESM_OSH_
FN:158,_ZNSt15__uniq_ptr_implINSt7__cxx1112basic_stringIcSt11char_traitsIcESaIcEEEZN8nlohmann10basic_jsonISt3mapSt6vectorS5_blmdSaNS6_14adl_serializerES9_IhSaIhEEE6createIS5_JRKPcEEEPT_DpOT0_EUlPS5_E_EC2IRKSO_EESN_OSI_
FNDA:0,_ZNSt15__uniq_ptr_implINSt7__cxx1112basic_stringIcSt11char_traitsIcESaIcEEEZN8nlohmann10basic_jsonISt3mapSt6vectorS5_blmdSaNS6_14adl_serializerES9_IhSaIhEEE6createIS5_JRKPcEEEPT_DpOT0_EUlPS5_E_EC2IRKSO_EESN_OSI_
FN:158,_ZNSt15__uniq_ptr_implINSt7__cxx1112basic_stringIcSt11char_traitsIcESaIcEEEZN8nlohmann10basic_jsonISt3mapSt6vectorS5_blmdSaNS6_14adl_serializerES9_IhSaIhEEE6createIS5_JRA1_KcEEEPT_DpOT0_EUlPS5_E_EC2IRKSO_EESN_OSI_
FNDA:0,_ZNSt15__uniq_ptr_implINSt7__cxx1112basic_stringIcSt11char_traitsIcESaIcEEEZN8nlohmann10basic_jsonISt3mapSt6vectorS5_blmdSaNS6_14adl_serializerES9_IhSaIhEEE6createIS5_JRA1_KcEEEPT_DpOT0_EUlPS5_E_EC2IRKSO_EESN_OSI_
FN:158,_ZNSt15__uniq_ptr_implINSt7__cxx1112basic_stringIcSt11char_traitsIcESaIcEEEZN8nlohmann10basic_jsonISt3mapSt6vectorS5_blmdSaNS6_14adl_serializerES9_IhSaIhEEE6createIS5_JRKS5_EEEPT_DpOT0_EUlPS5_E_EC2IRKSN_EESM_OSH_
FNDA:0,_ZNSt15__uniq_ptr_implINSt7__cxx1112basic_stringIcSt11char_traitsIcESaIcEEEZN8nlohmann10basic_jsonISt3mapSt6vectorS5_blmdSaNS6_14adl_serializerES9_IhSaIhEEE6createIS5_JRKS5_EEEPT_DpOT0_EUlPS5_E_EC2IRKSN_EESM_OSH_
FN:158,_ZNSt15__uniq_ptr_implISt6vectorIN8nlohmann10basic_jsonISt3mapS0_NSt7__cxx1112basic_stringIcSt11char_traitsIcESaIcEEEblmdSaNS1_14adl_serializerES0_IhSaIhEEEESaISD_EEZNSD_6createISF_JN9__gnu_cxx17__normal_iteratorIPKS9_S0_IS9_SaIS9_EEEESN_EEEPT_DpOT0_EUlPSF_E_EC2IRKSU_EEST_OSO_
FNDA:0,_ZNSt15__uniq_ptr_implISt6vectorIN8nlohmann10basic_jsonISt3mapS0_NSt7__cxx1112basic_stringIcSt11char_traitsIcESaIcEEEblmdSaNS1_14adl_serializerES0_IhSaIhEEEESaISD_EEZNSD_6createISF_JN9__gnu_cxx17__normal_iteratorIPKS9_S0_IS9_SaIS9_EEEESN_EEEPT_DpOT0_EUlPSF_E_EC2IRKSU_EEST_OSO_
FN:158,_ZNSt15__uniq_ptr_implISt6vectorIN8nlohmann10basic_jsonISt3mapS0_NSt7__cxx1112basic_stringIcSt11char_traitsIcESaIcEEEblmdSaNS1_14adl_serializerES0_IhSaIhEEEESaISD_EEZNSD_6createISF_JEEEPT_DpOT0_EUlPSF_E_EC2IRKSN_EESM_OSH_
FNDA:0,_ZNSt15__uniq_ptr_implISt6vectorIN8nlohmann10basic_jsonISt3mapS0_NSt7__cxx1112basic_stringIcSt11char_traitsIcESaIcEEEblmdSaNS1_14adl_serializerES0_IhSaIhEEEESaISD_EEZNSD_6createISF_JEEEPT_DpOT0_EUlPSF_E_EC2IRKSN_EESM_OSH_
FN:172,_ZNSt15__uniq_ptr_implINSt7__cxx1112basic_stringIcSt11char_traitsIcESaIcEEEZN8nlohmann10basic_jsonISt3mapSt6vectorS5_blmdSaNS6_14adl_serializerES9_IhSaIhEEE6createIS5_JRKPcEEEPT_DpOT0_EUlPS5_E_E6_M_ptrEv
FNDA:0,_ZNSt15__uniq_ptr_implINSt7__cxx1112basic_stringIcSt11char_traitsIcESaIcEEEZN8nlohmann10basic_jsonISt3mapSt6vectorS5_blmdSaNS6_14adl_serializerES9_IhSaIhEEE6createIS5_JRKPcEEEPT_DpOT0_EUlPS5_E_E6_M_ptrEv
FN:172,_ZNSt15__uniq_ptr_implIN8nlohmann27byte_container_with_subtypeISt6vectorIhSaIhEEEEZNS0_10basic_jsonISt3mapS2_NSt7__cxx1112basic_stringIcSt11char_traitsIcESaIcEEEblmdSaNS0_14adl_serializerES4_E6createIS5_JEEEPT_DpOT0_EUlPS5_E_E6_M_ptrEv
FNDA:0,_ZNSt15__uniq_ptr_implIN8nlohmann27byte_container_with_subtypeISt6vectorIhSaIhEEEEZNS0_10basic_jsonISt3mapS2_NSt7__cxx1112basic_stringIcSt11char_traitsIcESaIcEEEblmdSaNS0_14adl_serializerES4_E6createIS5_JEEEPT_DpOT0_EUlPS5_E_E6_M_ptrEv
FN:172,_ZNSt15__uniq_ptr_implISt3mapINSt7__cxx1112basic_stringIcSt11char_traitsIcESaIcEEEN8nlohmann10basic_jsonIS0_St6vectorS6_blmdSaNS7_14adl_serializerES9_IhSaIhEEEESt4lessIS6_ESaISt4pairIKS6_SD_EEEZNSD_6createISK_JEEEPT_DpOT0_EUlPSK_E_E6_M_ptrEv
FNDA:0,_ZNSt15__uniq_ptr_implISt3mapINSt7__cxx1112basic_stringIcSt11char_traitsIcESaIcEEEN8nlohmann10basic_jsonIS0_St6vectorS6_blmdSaNS7_14adl_serializerES9_IhSaIhEEEESt4lessIS6_ESaISt4pairIKS6_SD_EEEZNSD_6createISK_JEEEPT_DpOT0_EUlPSK_E_E6_M_ptrEv
FN:172,_ZNSt15__uniq_ptr_implISt6vectorIN8nlohmann10basic_jsonISt3mapS0_NSt7__cxx1112basic_stringIcSt11char_traitsIcESaIcEEEblmdSaNS1_14adl_serializerES0_IhSaIhEEEESaISD_EEZNSD_6createISF_JN9__gnu_cxx17__normal_iteratorIPKS9_S0_IS9_SaIS9_EEEESN_EEEPT_DpOT0_EUlPSF_E_E6_M_ptrEv
FNDA:0,_ZNSt15__uniq_ptr_implISt6vectorIN8nlohmann10basic_jsonISt3mapS0_NSt7__cxx1112basic_stringIcSt11char_traitsIcESaIcEEEblmdSaNS1_14adl_serializerES0_IhSaIhEEEESaISD_EEZNSD_6createISF_JN9__gnu_cxx17__normal_iteratorIPKS9_S0_IS9_SaIS9_EEEESN_EEEPT_DpOT0_EUlPSF_E_E6_M_ptrEv
FN:172,_ZNSt15__uniq_ptr_implINSt7__cxx1112basic_stringIcSt11char_traitsIcESaIcEEEZN8nlohmann10basic_jsonISt3mapSt6vectorS5_blmdSaNS6_14adl_serializerES9_IhSaIhEEE6createIS5_JRA1_KcEEEPT_DpOT0_EUlPS5_E_E6_M_ptrEv
FNDA:0,_ZNSt15__uniq_ptr_implINSt7__cxx1112basic_stringIcSt11char_traitsIcESaIcEEEZN8nlohmann10basic_jsonISt3mapSt6vectorS5_blmdSaNS6_14adl_serializerES9_IhSaIhEEE6createIS5_JRA1_KcEEEPT_DpOT0_EUlPS5_E_E6_M_ptrEv
FN:172,_ZNSt15__uniq_ptr_implINSt7__cxx1112basic_stringIcSt11char_traitsIcESaIcEEEZN8nlohmann10basic_jsonISt3mapSt6vectorS5_blmdSaNS6_14adl_serializerES9_IhSaIhEEE6createIS5_JRKS5_EEEPT_DpOT0_EUlPS5_E_E6_M_ptrEv
FNDA:0,_ZNSt15__uniq_ptr_implINSt7__cxx1112basic_stringIcSt11char_traitsIcESaIcEEEZN8nlohmann10basic_jsonISt3mapSt6vectorS5_blmdSaNS6_14adl_serializerES9_IhSaIhEEE6createIS5_JRKS5_EEEPT_DpOT0_EUlPS5_E_E6_M_ptrEv
FN:172,_ZNSt15__uniq_ptr_implISt6vectorIN8nlohmann10basic_jsonISt3mapS0_NSt7__cxx1112basic_stringIcSt11char_traitsIcESaIcEEEblmdSaNS1_14adl_serializerES0_IhSaIhEEEESaISD_EEZNSD_6createISF_JEEEPT_DpOT0_EUlPSF_E_E6_M_ptrEv
FNDA:0,_ZNSt15__uniq_ptr_implISt6vectorIN8nlohmann10basic_jsonISt3mapS0_NSt7__cxx1112basic_stringIcSt11char_traitsIcESaIcEEEblmdSaNS1_14adl_serializerES0_IhSaIhEEEESaISD_EEZNSD_6createISF_JEEEPT_DpOT0_EUlPSF_E_E6_M_ptrEv
FN:173,_ZNKSt15__uniq_ptr_implISt6vectorIN8nlohmann10basic_jsonISt3mapS0_NSt7__cxx1112basic_stringIcSt11char_traitsIcESaIcEEEblmdSaNS1_14adl_serializerES0_IhSaIhEEEESaISD_EEZNSD_6createISF_JN9__gnu_cxx17__normal_iteratorIPKS9_S0_IS9_SaIS9_EEEESN_EEEPT_DpOT0_EUlPSF_E_E6_M_ptrEv
FNDA:0,_ZNKSt15__uniq_ptr_implISt6vectorIN8nlohmann10basic_jsonISt3mapS0_NSt7__cxx1112basic_stringIcSt11char_traitsIcESaIcEEEblmdSaNS1_14adl_serializerES0_IhSaIhEEEESaISD_EEZNSD_6createISF_JN9__gnu_cxx17__normal_iteratorIPKS9_S0_IS9_SaIS9_EEEESN_EEEPT_DpOT0_EUlPSF_E_E6_M_ptrEv
FN:173,_ZNKSt15__uniq_ptr_implISt3mapINSt7__cxx1112basic_stringIcSt11char_traitsIcESaIcEEEN8nlohmann10basic_jsonIS0_St6vectorS6_blmdSaNS7_14adl_serializerES9_IhSaIhEEEESt4lessIS6_ESaISt4pairIKS6_SD_EEEZNSD_6createISK_JEEEPT_DpOT0_EUlPSK_E_E6_M_ptrEv
FNDA:0,_ZNKSt15__uniq_ptr_implISt3mapINSt7__cxx1112basic_stringIcSt11char_traitsIcESaIcEEEN8nlohmann10basic_jsonIS0_St6vectorS6_blmdSaNS7_14adl_serializerES9_IhSaIhEEEESt4lessIS6_ESaISt4pairIKS6_SD_EEEZNSD_6createISK_JEEEPT_DpOT0_EUlPSK_E_E6_M_ptrEv
FN:173,_ZNKSt15__uniq_ptr_implINSt7__cxx1112basic_stringIcSt11char_traitsIcESaIcEEEZN8nlohmann10basic_jsonISt3mapSt6vectorS5_blmdSaNS6_14adl_serializerES9_IhSaIhEEE6createIS5_JRKPcEEEPT_DpOT0_EUlPS5_E_E6_M_ptrEv
FNDA:0,_ZNKSt15__uniq_ptr_implINSt7__cxx1112basic_stringIcSt11char_traitsIcESaIcEEEZN8nlohmann10basic_jsonISt3mapSt6vectorS5_blmdSaNS6_14adl_serializerES9_IhSaIhEEE6createIS5_JRKPcEEEPT_DpOT0_EUlPS5_E_E6_M_ptrEv
FN:173,_ZNKSt15__uniq_ptr_implISt6vectorIN8nlohmann10basic_jsonISt3mapS0_NSt7__cxx1112basic_stringIcSt11char_traitsIcESaIcEEEblmdSaNS1_14adl_serializerES0_IhSaIhEEEESaISD_EEZNSD_6createISF_JEEEPT_DpOT0_EUlPSF_E_E6_M_ptrEv
FNDA:0,_ZNKSt15__uniq_ptr_implISt6vectorIN8nlohmann10basic_jsonISt3mapS0_NSt7__cxx1112basic_stringIcSt11char_traitsIcESaIcEEEblmdSaNS1_14adl_serializerES0_IhSaIhEEEESaISD_EEZNSD_6createISF_JEEEPT_DpOT0_EUlPSF_E_E6_M_ptrEv
FN:173,_ZNKSt15__uniq_ptr_implINSt7__cxx1112basic_stringIcSt11char_traitsIcESaIcEEEZN8nlohmann10basic_jsonISt3mapSt6vectorS5_blmdSaNS6_14adl_serializerES9_IhSaIhEEE6createIS5_JRKS5_EEEPT_DpOT0_EUlPS5_E_E6_M_ptrEv
FNDA:0,_ZNKSt15__uniq_ptr_implINSt7__cxx1112basic_stringIcSt11char_traitsIcESaIcEEEZN8nlohmann10basic_jsonISt3mapSt6vectorS5_blmdSaNS6_14adl_serializerES9_IhSaIhEEE6createIS5_JRKS5_EEEPT_DpOT0_EUlPS5_E_E6_M_ptrEv
FN:173,_ZNKSt15__uniq_ptr_implINSt7__cxx1112basic_stringIcSt11char_traitsIcESaIcEEEZN8nlohmann10basic_jsonISt3mapSt6vectorS5_blmdSaNS6_14adl_serializerES9_IhSaIhEEE6createIS5_JRA1_KcEEEPT_DpOT0_EUlPS5_E_E6_M_ptrEv
FNDA:0,_ZNKSt15__uniq_ptr_implINSt7__cxx1112basic_stringIcSt11char_traitsIcESaIcEEEZN8nlohmann10basic_jsonISt3mapSt6vectorS5_blmdSaNS6_14adl_serializerES9_IhSaIhEEE6createIS5_JRA1_KcEEEPT_DpOT0_EUlPS5_E_E6_M_ptrEv
FN:173,_ZNKSt15__uniq_ptr_implIN8nlohmann27byte_container_with_subtypeISt6vectorIhSaIhEEEEZNS0_10basic_jsonISt3mapS2_NSt7__cxx1112basic_stringIcSt11char_traitsIcESaIcEEEblmdSaNS0_14adl_serializerES4_E6createIS5_JEEEPT_DpOT0_EUlPS5_E_E6_M_ptrEv
FNDA:0,_ZNKSt15__uniq_ptr_implIN8nlohmann27byte_container_with_subtypeISt6vectorIhSaIhEEEEZNS0_10basic_jsonISt3mapS2_NSt7__cxx1112basic_stringIcSt11char_traitsIcESaIcEEEblmdSaNS0_14adl_serializerES4_E6createIS5_JEEEPT_DpOT0_EUlPS5_E_E6_M_ptrEv
FN:174,_ZNSt15__uniq_ptr_implINSt7__cxx1112basic_stringIcSt11char_traitsIcESaIcEEEZN8nlohmann10basic_jsonISt3mapSt6vectorS5_blmdSaNS6_14adl_serializerES9_IhSaIhEEE6createIS5_JRKS5_EEEPT_DpOT0_EUlPS5_E_E10_M_deleterEv
FNDA:0,_ZNSt15__uniq_ptr_implINSt7__cxx1112basic_stringIcSt11char_traitsIcESaIcEEEZN8nlohmann10basic_jsonISt3mapSt6vectorS5_blmdSaNS6_14adl_serializerES9_IhSaIhEEE6createIS5_JRKS5_EEEPT_DpOT0_EUlPS5_E_E10_M_deleterEv
FN:174,_ZNSt15__uniq_ptr_implISt3mapINSt7__cxx1112basic_stringIcSt11char_traitsIcESaIcEEEN8nlohmann10basic_jsonIS0_St6vectorS6_blmdSaNS7_14adl_serializerES9_IhSaIhEEEESt4lessIS6_ESaISt4pairIKS6_SD_EEEZNSD_6createISK_JEEEPT_DpOT0_EUlPSK_E_E10_M_deleterEv
FNDA:0,_ZNSt15__uniq_ptr_implISt3mapINSt7__cxx1112basic_stringIcSt11char_traitsIcESaIcEEEN8nlohmann10basic_jsonIS0_St6vectorS6_blmdSaNS7_14adl_serializerES9_IhSaIhEEEESt4lessIS6_ESaISt4pairIKS6_SD_EEEZNSD_6createISK_JEEEPT_DpOT0_EUlPSK_E_E10_M_deleterEv
FN:174,_ZNSt15__uniq_ptr_implISt6vectorIN8nlohmann10basic_jsonISt3mapS0_NSt7__cxx1112basic_stringIcSt11char_traitsIcESaIcEEEblmdSaNS1_14adl_serializerES0_IhSaIhEEEESaISD_EEZNSD_6createISF_JEEEPT_DpOT0_EUlPSF_E_E10_M_deleterEv
FNDA:0,_ZNSt15__uniq_ptr_implISt6vectorIN8nlohmann10basic_jsonISt3mapS0_NSt7__cxx1112basic_stringIcSt11char_traitsIcESaIcEEEblmdSaNS1_14adl_serializerES0_IhSaIhEEEESaISD_EEZNSD_6createISF_JEEEPT_DpOT0_EUlPSF_E_E10_M_deleterEv
FN:174,_ZNSt15__uniq_ptr_implINSt7__cxx1112basic_stringIcSt11char_traitsIcESaIcEEEZN8nlohmann10basic_jsonISt3mapSt6vectorS5_blmdSaNS6_14adl_serializerES9_IhSaIhEEE6createIS5_JRA1_KcEEEPT_DpOT0_EUlPS5_E_E10_M_deleterEv
FNDA:0,_ZNSt15__uniq_ptr_implINSt7__cxx1112basic_stringIcSt11char_traitsIcESaIcEEEZN8nlohmann10basic_jsonISt3mapSt6vectorS5_blmdSaNS6_14adl_serializerES9_IhSaIhEEE6createIS5_JRA1_KcEEEPT_DpOT0_EUlPS5_E_E10_M_deleterEv
FN:174,_ZNSt15__uniq_ptr_implIN8nlohmann27byte_container_with_subtypeISt6vectorIhSaIhEEEEZNS0_10basic_jsonISt3mapS2_NSt7__cxx1112basic_stringIcSt11char_traitsIcESaIcEEEblmdSaNS0_14adl_serializerES4_E6createIS5_JEEEPT_DpOT0_EUlPS5_E_E10_M_deleterEv
FNDA:0,_ZNSt15__uniq_ptr_implIN8nlohmann27byte_container_with_subtypeISt6vectorIhSaIhEEEEZNS0_10basic_jsonISt3mapS2_NSt7__cxx1112basic_stringIcSt11char_traitsIcESaIcEEEblmdSaNS0_14adl_serializerES4_E6createIS5_JEEEPT_DpOT0_EUlPS5_E_E10_M_deleterEv
FN:174,_ZNSt15__uniq_ptr_implISt6vectorIN8nlohmann10basic_jsonISt3mapS0_NSt7__cxx1112basic_stringIcSt11char_traitsIcESaIcEEEblmdSaNS1_14adl_serializerES0_IhSaIhEEEESaISD_EEZNSD_6createISF_JN9__gnu_cxx17__normal_iteratorIPKS9_S0_IS9_SaIS9_EEEESN_EEEPT_DpOT0_EUlPSF_E_E10_M_deleterEv
FNDA:0,_ZNSt15__uniq_ptr_implISt6vectorIN8nlohmann10basic_jsonISt3mapS0_NSt7__cxx1112basic_stringIcSt11char_traitsIcESaIcEEEblmdSaNS1_14adl_serializerES0_IhSaIhEEEESaISD_EEZNSD_6createISF_JN9__gnu_cxx17__normal_iteratorIPKS9_S0_IS9_SaIS9_EEEESN_EEEPT_DpOT0_EUlPSF_E_E10_M_deleterEv
FN:174,_ZNSt15__uniq_ptr_implINSt7__cxx1112basic_stringIcSt11char_traitsIcESaIcEEEZN8nlohmann10basic_jsonISt3mapSt6vectorS5_blmdSaNS6_14adl_serializerES9_IhSaIhEEE6createIS5_JRKPcEEEPT_DpOT0_EUlPS5_E_E10_M_deleterEv
FNDA:0,_ZNSt15__uniq_ptr_implINSt7__cxx1112basic_stringIcSt11char_traitsIcESaIcEEEZN8nlohmann10basic_jsonISt3mapSt6vectorS5_blmdSaNS6_14adl_serializerES9_IhSaIhEEE6createIS5_JRKPcEEEPT_DpOT0_EUlPS5_E_E10_M_deleterEv
FN:185,_ZNSt15__uniq_ptr_implISt6vectorIN8nlohmann10basic_jsonISt3mapS0_NSt7__cxx1112basic_stringIcSt11char_traitsIcESaIcEEEblmdSaNS1_14adl_serializerES0_IhSaIhEEEESaISD_EEZNSD_6createISF_JN9__gnu_cxx17__normal_iteratorIPKS9_S0_IS9_SaIS9_EEEESN_EEEPT_DpOT0_EUlPSF_E_E7releaseEv
FNDA:0,_ZNSt15__uniq_ptr_implISt6vectorIN8nlohmann10basic_jsonISt3mapS0_NSt7__cxx1112basic_stringIcSt11char_traitsIcESaIcEEEblmdSaNS1_14adl_serializerES0_IhSaIhEEEESaISD_EEZNSD_6createISF_JN9__gnu_cxx17__normal_iteratorIPKS9_S0_IS9_SaIS9_EEEESN_EEEPT_DpOT0_EUlPSF_E_E7releaseEv
FN:185,_ZNSt15__uniq_ptr_implISt3mapINSt7__cxx1112basic_stringIcSt11char_traitsIcESaIcEEEN8nlohmann10basic_jsonIS0_St6vectorS6_blmdSaNS7_14adl_serializerES9_IhSaIhEEEESt4lessIS6_ESaISt4pairIKS6_SD_EEEZNSD_6createISK_JEEEPT_DpOT0_EUlPSK_E_E7releaseEv
FNDA:0,_ZNSt15__uniq_ptr_implISt3mapINSt7__cxx1112basic_stringIcSt11char_traitsIcESaIcEEEN8nlohmann10basic_jsonIS0_St6vectorS6_blmdSaNS7_14adl_serializerES9_IhSaIhEEEESt4lessIS6_ESaISt4pairIKS6_SD_EEEZNSD_6createISK_JEEEPT_DpOT0_EUlPSK_E_E7releaseEv
FN:185,_ZNSt15__uniq_ptr_implINSt7__cxx1112basic_stringIcSt11char_traitsIcESaIcEEEZN8nlohmann10basic_jsonISt3mapSt6vectorS5_blmdSaNS6_14adl_serializerES9_IhSaIhEEE6createIS5_JRKS5_EEEPT_DpOT0_EUlPS5_E_E7releaseEv
FNDA:0,_ZNSt15__uniq_ptr_implINSt7__cxx1112basic_stringIcSt11char_traitsIcESaIcEEEZN8nlohmann10basic_jsonISt3mapSt6vectorS5_blmdSaNS6_14adl_serializerES9_IhSaIhEEE6createIS5_JRKS5_EEEPT_DpOT0_EUlPS5_E_E7releaseEv
FN:185,_ZNSt15__uniq_ptr_implISt6vectorIN8nlohmann10basic_jsonISt3mapS0_NSt7__cxx1112basic_stringIcSt11char_traitsIcESaIcEEEblmdSaNS1_14adl_serializerES0_IhSaIhEEEESaISD_EEZNSD_6createISF_JEEEPT_DpOT0_EUlPSF_E_E7releaseEv
FNDA:0,_ZNSt15__uniq_ptr_implISt6vectorIN8nlohmann10basic_jsonISt3mapS0_NSt7__cxx1112basic_stringIcSt11char_traitsIcESaIcEEEblmdSaNS1_14adl_serializerES0_IhSaIhEEEESaISD_EEZNSD_6createISF_JEEEPT_DpOT0_EUlPSF_E_E7releaseEv
FN:185,_ZNSt15__uniq_ptr_implIN8nlohmann27byte_container_with_subtypeISt6vectorIhSaIhEEEEZNS0_10basic_jsonISt3mapS2_NSt7__cxx1112basic_stringIcSt11char_traitsIcESaIcEEEblmdSaNS0_14adl_serializerES4_E6createIS5_JEEEPT_DpOT0_EUlPS5_E_E7releaseEv
FNDA:0,_ZNSt15__uniq_ptr_implIN8nlohmann27byte_container_with_subtypeISt6vectorIhSaIhEEEEZNS0_10basic_jsonISt3mapS2_NSt7__cxx1112basic_stringIcSt11char_traitsIcESaIcEEEblmdSaNS0_14adl_serializerES4_E6createIS5_JEEEPT_DpOT0_EUlPS5_E_E7releaseEv
FN:185,_ZNSt15__uniq_ptr_implINSt7__cxx1112basic_stringIcSt11char_traitsIcESaIcEEEZN8nlohmann10basic_jsonISt3mapSt6vectorS5_blmdSaNS6_14adl_serializerES9_IhSaIhEEE6createIS5_JRKPcEEEPT_DpOT0_EUlPS5_E_E7releaseEv
FNDA:0,_ZNSt15__uniq_ptr_implINSt7__cxx1112basic_stringIcSt11char_traitsIcESaIcEEEZN8nlohmann10basic_jsonISt3mapSt6vectorS5_blmdSaNS6_14adl_serializerES9_IhSaIhEEE6createIS5_JRKPcEEEPT_DpOT0_EUlPS5_E_E7releaseEv
FN:185,_ZNSt15__uniq_ptr_implINSt7__cxx1112basic_stringIcSt11char_traitsIcESaIcEEEZN8nlohmann10basic_jsonISt3mapSt6vectorS5_blmdSaNS6_14adl_serializerES9_IhSaIhEEE6createIS5_JRA1_KcEEEPT_DpOT0_EUlPS5_E_E7releaseEv
FNDA:0,_ZNSt15__uniq_ptr_implINSt7__cxx1112basic_stringIcSt11char_traitsIcESaIcEEEZN8nlohmann10basic_jsonISt3mapSt6vectorS5_blmdSaNS6_14adl_serializerES9_IhSaIhEEE6createIS5_JRA1_KcEEEPT_DpOT0_EUlPS5_E_E7releaseEv
FN:294,_ZNSt10unique_ptrISt3mapINSt7__cxx1112basic_stringIcSt11char_traitsIcESaIcEEEN8nlohmann10basic_jsonIS0_St6vectorS6_blmdSaNS7_14adl_serializerES9_IhSaIhEEEESt4lessIS6_ESaISt4pairIKS6_SD_EEEZNSD_6createISK_JEEEPT_DpOT0_EUlPSK_E_EC2ISS_vEESR_RKSS_
FNDA:0,_ZNSt10unique_ptrISt3mapINSt7__cxx1112basic_stringIcSt11char_traitsIcESaIcEEEN8nlohmann10basic_jsonIS0_St6vectorS6_blmdSaNS7_14adl_serializerES9_IhSaIhEEEESt4lessIS6_ESaISt4pairIKS6_SD_EEEZNSD_6createISK_JEEEPT_DpOT0_EUlPSK_E_EC2ISS_vEESR_RKSS_
FN:294,_ZNSt10unique_ptrIN8nlohmann27byte_container_with_subtypeISt6vectorIhSaIhEEEEZNS0_10basic_jsonISt3mapS2_NSt7__cxx1112basic_stringIcSt11char_traitsIcESaIcEEEblmdSaNS0_14adl_serializerES4_E6createIS5_JEEEPT_DpOT0_EUlPS5_E_EC2ISN_vEESM_RKSN_
FNDA:0,_ZNSt10unique_ptrIN8nlohmann27byte_container_with_subtypeISt6vectorIhSaIhEEEEZNS0_10basic_jsonISt3mapS2_NSt7__cxx1112basic_stringIcSt11char_traitsIcESaIcEEEblmdSaNS0_14adl_serializerES4_E6createIS5_JEEEPT_DpOT0_EUlPS5_E_EC2ISN_vEESM_RKSN_
FN:294,_ZNSt10unique_ptrINSt7__cxx1112basic_stringIcSt11char_traitsIcESaIcEEEZN8nlohmann10basic_jsonISt3mapSt6vectorS5_blmdSaNS6_14adl_serializerES9_IhSaIhEEE6createIS5_JRA1_KcEEEPT_DpOT0_EUlPS5_E_EC2ISO_vEESN_RKSO_
FNDA:0,_ZNSt10unique_ptrINSt7__cxx1112basic_stringIcSt11char_traitsIcESaIcEEEZN8nlohmann10basic_jsonISt3mapSt6vectorS5_blmdSaNS6_14adl_serializerES9_IhSaIhEEE6createIS5_JRA1_KcEEEPT_DpOT0_EUlPS5_E_EC2ISO_vEESN_RKSO_
FN:294,_ZNSt10unique_ptrISt6vectorIN8nlohmann10basic_jsonISt3mapS0_NSt7__cxx1112basic_stringIcSt11char_traitsIcESaIcEEEblmdSaNS1_14adl_serializerES0_IhSaIhEEEESaISD_EEZNSD_6createISF_JEEEPT_DpOT0_EUlPSF_E_EC2ISN_vEESM_RKSN_
FNDA:0,_ZNSt10unique_ptrISt6vectorIN8nlohmann10basic_jsonISt3mapS0_NSt7__cxx1112basic_stringIcSt11char_traitsIcESaIcEEEblmdSaNS1_14adl_serializerES0_IhSaIhEEEESaISD_EEZNSD_6createISF_JEEEPT_DpOT0_EUlPSF_E_EC2ISN_vEESM_RKSN_
FN:294,_ZNSt10unique_ptrISt6vectorIN8nlohmann10basic_jsonISt3mapS0_NSt7__cxx1112basic_stringIcSt11char_traitsIcESaIcEEEblmdSaNS1_14adl_serializerES0_IhSaIhEEEESaISD_EEZNSD_6createISF_JN9__gnu_cxx17__normal_iteratorIPKS9_S0_IS9_SaIS9_EEEESN_EEEPT_DpOT0_EUlPSF_E_EC2ISU_vEEST_RKSU_
FNDA:0,_ZNSt10unique_ptrISt6vectorIN8nlohmann10basic_jsonISt3mapS0_NSt7__cxx1112basic_stringIcSt11char_traitsIcESaIcEEEblmdSaNS1_14adl_serializerES0_IhSaIhEEEESaISD_EEZNSD_6createISF_JN9__gnu_cxx17__normal_iteratorIPKS9_S0_IS9_SaIS9_EEEESN_EEEPT_DpOT0_EUlPSF_E_EC2ISU_vEEST_RKSU_
FN:294,_ZNSt10unique_ptrINSt7__cxx1112basic_stringIcSt11char_traitsIcESaIcEEEZN8nlohmann10basic_jsonISt3mapSt6vectorS5_blmdSaNS6_14adl_serializerES9_IhSaIhEEE6createIS5_JRKS5_EEEPT_DpOT0_EUlPS5_E_EC2ISN_vEESM_RKSN_
FNDA:0,_ZNSt10unique_ptrINSt7__cxx1112basic_stringIcSt11char_traitsIcESaIcEEEZN8nlohmann10basic_jsonISt3mapSt6vectorS5_blmdSaNS6_14adl_serializerES9_IhSaIhEEE6createIS5_JRKS5_EEEPT_DpOT0_EUlPS5_E_EC2ISN_vEESM_RKSN_
FN:294,_ZNSt10unique_ptrINSt7__cxx1112basic_stringIcSt11char_traitsIcESaIcEEEZN8nlohmann10basic_jsonISt3mapSt6vectorS5_blmdSaNS6_14adl_serializerES9_IhSaIhEEE6createIS5_JRKPcEEEPT_DpOT0_EUlPS5_E_EC2ISO_vEESN_RKSO_
FNDA:0,_ZNSt10unique_ptrINSt7__cxx1112basic_stringIcSt11char_traitsIcESaIcEEEZN8nlohmann10basic_jsonISt3mapSt6vectorS5_blmdSaNS6_14adl_serializerES9_IhSaIhEEE6createIS5_JRKPcEEEPT_DpOT0_EUlPS5_E_EC2ISO_vEESN_RKSO_
FN:355,_ZNSt10unique_ptrISt6vectorIN8nlohmann10basic_jsonISt3mapS0_NSt7__cxx1112basic_stringIcSt11char_traitsIcESaIcEEEblmdSaNS1_14adl_serializerES0_IhSaIhEEEESaISD_EEZNSD_6createISF_JEEEPT_DpOT0_EUlPSF_E_ED2Ev
FNDA:0,_ZNSt10unique_ptrISt6vectorIN8nlohmann10basic_jsonISt3mapS0_NSt7__cxx1112basic_stringIcSt11char_traitsIcESaIcEEEblmdSaNS1_14adl_serializerES0_IhSaIhEEEESaISD_EEZNSD_6createISF_JEEEPT_DpOT0_EUlPSF_E_ED2Ev
FN:355,_ZNSt10unique_ptrISt6vectorIN8nlohmann10basic_jsonISt3mapS0_NSt7__cxx1112basic_stringIcSt11char_traitsIcESaIcEEEblmdSaNS1_14adl_serializerES0_IhSaIhEEEESaISD_EEZNSD_6createISF_JN9__gnu_cxx17__normal_iteratorIPKS9_S0_IS9_SaIS9_EEEESN_EEEPT_DpOT0_EUlPSF_E_ED2Ev
FNDA:0,_ZNSt10unique_ptrISt6vectorIN8nlohmann10basic_jsonISt3mapS0_NSt7__cxx1112basic_stringIcSt11char_traitsIcESaIcEEEblmdSaNS1_14adl_serializerES0_IhSaIhEEEESaISD_EEZNSD_6createISF_JN9__gnu_cxx17__normal_iteratorIPKS9_S0_IS9_SaIS9_EEEESN_EEEPT_DpOT0_EUlPSF_E_ED2Ev
FN:355,_ZNSt10unique_ptrINSt7__cxx1112basic_stringIcSt11char_traitsIcESaIcEEEZN8nlohmann10basic_jsonISt3mapSt6vectorS5_blmdSaNS6_14adl_serializerES9_IhSaIhEEE6createIS5_JRA1_KcEEEPT_DpOT0_EUlPS5_E_ED2Ev
FNDA:0,_ZNSt10unique_ptrINSt7__cxx1112basic_stringIcSt11char_traitsIcESaIcEEEZN8nlohmann10basic_jsonISt3mapSt6vectorS5_blmdSaNS6_14adl_serializerES9_IhSaIhEEE6createIS5_JRA1_KcEEEPT_DpOT0_EUlPS5_E_ED2Ev
FN:355,_ZNSt10unique_ptrISt3mapINSt7__cxx1112basic_stringIcSt11char_traitsIcESaIcEEEN8nlohmann10basic_jsonIS0_St6vectorS6_blmdSaNS7_14adl_serializerES9_IhSaIhEEEESt4lessIS6_ESaISt4pairIKS6_SD_EEEZNSD_6createISK_JEEEPT_DpOT0_EUlPSK_E_ED2Ev
FNDA:0,_ZNSt10unique_ptrISt3mapINSt7__cxx1112basic_stringIcSt11char_traitsIcESaIcEEEN8nlohmann10basic_jsonIS0_St6vectorS6_blmdSaNS7_14adl_serializerES9_IhSaIhEEEESt4lessIS6_ESaISt4pairIKS6_SD_EEEZNSD_6createISK_JEEEPT_DpOT0_EUlPSK_E_ED2Ev
FN:355,_ZNSt10unique_ptrINSt7__cxx1112basic_stringIcSt11char_traitsIcESaIcEEEZN8nlohmann10basic_jsonISt3mapSt6vectorS5_blmdSaNS6_14adl_serializerES9_IhSaIhEEE6createIS5_JRKS5_EEEPT_DpOT0_EUlPS5_E_ED2Ev
FNDA:0,_ZNSt10unique_ptrINSt7__cxx1112basic_stringIcSt11char_traitsIcESaIcEEEZN8nlohmann10basic_jsonISt3mapSt6vectorS5_blmdSaNS6_14adl_serializerES9_IhSaIhEEE6createIS5_JRKS5_EEEPT_DpOT0_EUlPS5_E_ED2Ev
FN:355,_ZNSt10unique_ptrIN8nlohmann27byte_container_with_subtypeISt6vectorIhSaIhEEEEZNS0_10basic_jsonISt3mapS2_NSt7__cxx1112basic_stringIcSt11char_traitsIcESaIcEEEblmdSaNS0_14adl_serializerES4_E6createIS5_JEEEPT_DpOT0_EUlPS5_E_ED2Ev
FNDA:0,_ZNSt10unique_ptrIN8nlohmann27byte_container_with_subtypeISt6vectorIhSaIhEEEEZNS0_10basic_jsonISt3mapS2_NSt7__cxx1112basic_stringIcSt11char_traitsIcESaIcEEEblmdSaNS0_14adl_serializerES4_E6createIS5_JEEEPT_DpOT0_EUlPS5_E_ED2Ev
FN:355,_ZNSt10unique_ptrINSt7__cxx1112basic_stringIcSt11char_traitsIcESaIcEEEZN8nlohmann10basic_jsonISt3mapSt6vectorS5_blmdSaNS6_14adl_serializerES9_IhSaIhEEE6createIS5_JRKPcEEEPT_DpOT0_EUlPS5_E_ED2Ev
FNDA:0,_ZNSt10unique_ptrINSt7__cxx1112basic_stringIcSt11char_traitsIcESaIcEEEZN8nlohmann10basic_jsonISt3mapSt6vectorS5_blmdSaNS6_14adl_serializerES9_IhSaIhEEE6createIS5_JRKPcEEEPT_DpOT0_EUlPS5_E_ED2Ev
FN:421,_ZNKSt10unique_ptrISt6vectorIN8nlohmann10basic_jsonISt3mapS0_NSt7__cxx1112basic_stringIcSt11char_traitsIcESaIcEEEblmdSaNS1_14adl_serializerES0_IhSaIhEEEESaISD_EEZNSD_6createISF_JEEEPT_DpOT0_EUlPSF_E_E3getEv
FNDA:0,_ZNKSt10unique_ptrISt6vectorIN8nlohmann10basic_jsonISt3mapS0_NSt7__cxx1112basic_stringIcSt11char_traitsIcESaIcEEEblmdSaNS1_14adl_serializerES0_IhSaIhEEEESaISD_EEZNSD_6createISF_JEEEPT_DpOT0_EUlPSF_E_E3getEv
FN:421,_ZNKSt10unique_ptrISt3mapINSt7__cxx1112basic_stringIcSt11char_traitsIcESaIcEEEN8nlohmann10basic_jsonIS0_St6vectorS6_blmdSaNS7_14adl_serializerES9_IhSaIhEEEESt4lessIS6_ESaISt4pairIKS6_SD_EEEZNSD_6createISK_JEEEPT_DpOT0_EUlPSK_E_E3getEv
FNDA:0,_ZNKSt10unique_ptrISt3mapINSt7__cxx1112basic_stringIcSt11char_traitsIcESaIcEEEN8nlohmann10basic_jsonIS0_St6vectorS6_blmdSaNS7_14adl_serializerES9_IhSaIhEEEESt4lessIS6_ESaISt4pairIKS6_SD_EEEZNSD_6createISK_JEEEPT_DpOT0_EUlPSK_E_E3getEv
FN:421,_ZNKSt10unique_ptrINSt7__cxx1112basic_stringIcSt11char_traitsIcESaIcEEEZN8nlohmann10basic_jsonISt3mapSt6vectorS5_blmdSaNS6_14adl_serializerES9_IhSaIhEEE6createIS5_JRA1_KcEEEPT_DpOT0_EUlPS5_E_E3getEv
FNDA:0,_ZNKSt10unique_ptrINSt7__cxx1112basic_stringIcSt11char_traitsIcESaIcEEEZN8nlohmann10basic_jsonISt3mapSt6vectorS5_blmdSaNS6_14adl_serializerES9_IhSaIhEEE6createIS5_JRA1_KcEEEPT_DpOT0_EUlPS5_E_E3getEv
FN:421,_ZNKSt10unique_ptrIN8nlohmann27byte_container_with_subtypeISt6vectorIhSaIhEEEEZNS0_10basic_jsonISt3mapS2_NSt7__cxx1112basic_stringIcSt11char_traitsIcESaIcEEEblmdSaNS0_14adl_serializerES4_E6createIS5_JEEEPT_DpOT0_EUlPS5_E_E3getEv
FNDA:0,_ZNKSt10unique_ptrIN8nlohmann27byte_container_with_subtypeISt6vectorIhSaIhEEEEZNS0_10basic_jsonISt3mapS2_NSt7__cxx1112basic_stringIcSt11char_traitsIcESaIcEEEblmdSaNS0_14adl_serializerES4_E6createIS5_JEEEPT_DpOT0_EUlPS5_E_E3getEv
FN:421,_ZNKSt10unique_ptrINSt7__cxx1112basic_stringIcSt11char_traitsIcESaIcEEEZN8nlohmann10basic_jsonISt3mapSt6vectorS5_blmdSaNS6_14adl_serializerES9_IhSaIhEEE6createIS5_JRKPcEEEPT_DpOT0_EUlPS5_E_E3getEv
FNDA:0,_ZNKSt10unique_ptrINSt7__cxx1112basic_stringIcSt11char_traitsIcESaIcEEEZN8nlohmann10basic_jsonISt3mapSt6vectorS5_blmdSaNS6_14adl_serializerES9_IhSaIhEEE6createIS5_JRKPcEEEPT_DpOT0_EUlPS5_E_E3getEv
FN:421,_ZNKSt10unique_ptrISt6vectorIN8nlohmann10basic_jsonISt3mapS0_NSt7__cxx1112basic_stringIcSt11char_traitsIcESaIcEEEblmdSaNS1_14adl_serializerES0_IhSaIhEEEESaISD_EEZNSD_6createISF_JN9__gnu_cxx17__normal_iteratorIPKS9_S0_IS9_SaIS9_EEEESN_EEEPT_DpOT0_EUlPSF_E_E3getEv
FNDA:0,_ZNKSt10unique_ptrISt6vectorIN8nlohmann10basic_jsonISt3mapS0_NSt7__cxx1112basic_stringIcSt11char_traitsIcESaIcEEEblmdSaNS1_14adl_serializerES0_IhSaIhEEEESaISD_EEZNSD_6createISF_JN9__gnu_cxx17__normal_iteratorIPKS9_S0_IS9_SaIS9_EEEESN_EEEPT_DpOT0_EUlPSF_E_E3getEv
FN:421,_ZNKSt10unique_ptrINSt7__cxx1112basic_stringIcSt11char_traitsIcESaIcEEEZN8nlohmann10basic_jsonISt3mapSt6vectorS5_blmdSaNS6_14adl_serializerES9_IhSaIhEEE6createIS5_JRKS5_EEEPT_DpOT0_EUlPS5_E_E3getEv
FNDA:0,_ZNKSt10unique_ptrINSt7__cxx1112basic_stringIcSt11char_traitsIcESaIcEEEZN8nlohmann10basic_jsonISt3mapSt6vectorS5_blmdSaNS6_14adl_serializerES9_IhSaIhEEE6createIS5_JRKS5_EEEPT_DpOT0_EUlPS5_E_E3getEv
FN:426,_ZNSt10unique_ptrISt3mapINSt7__cxx1112basic_stringIcSt11char_traitsIcESaIcEEEN8nlohmann10basic_jsonIS0_St6vectorS6_blmdSaNS7_14adl_serializerES9_IhSaIhEEEESt4lessIS6_ESaISt4pairIKS6_SD_EEEZNSD_6createISK_JEEEPT_DpOT0_EUlPSK_E_E11get_deleterEv
FNDA:0,_ZNSt10unique_ptrISt3mapINSt7__cxx1112basic_stringIcSt11char_traitsIcESaIcEEEN8nlohmann10basic_jsonIS0_St6vectorS6_blmdSaNS7_14adl_serializerES9_IhSaIhEEEESt4lessIS6_ESaISt4pairIKS6_SD_EEEZNSD_6createISK_JEEEPT_DpOT0_EUlPSK_E_E11get_deleterEv
FN:426,_ZNSt10unique_ptrISt6vectorIN8nlohmann10basic_jsonISt3mapS0_NSt7__cxx1112basic_stringIcSt11char_traitsIcESaIcEEEblmdSaNS1_14adl_serializerES0_IhSaIhEEEESaISD_EEZNSD_6createISF_JN9__gnu_cxx17__normal_iteratorIPKS9_S0_IS9_SaIS9_EEEESN_EEEPT_DpOT0_EUlPSF_E_E11get_deleterEv
FNDA:0,_ZNSt10unique_ptrISt6vectorIN8nlohmann10basic_jsonISt3mapS0_NSt7__cxx1112basic_stringIcSt11char_traitsIcESaIcEEEblmdSaNS1_14adl_serializerES0_IhSaIhEEEESaISD_EEZNSD_6createISF_JN9__gnu_cxx17__normal_iteratorIPKS9_S0_IS9_SaIS9_EEEESN_EEEPT_DpOT0_EUlPSF_E_E11get_deleterEv
FN:426,_ZNSt10unique_ptrISt6vectorIN8nlohmann10basic_jsonISt3mapS0_NSt7__cxx1112basic_stringIcSt11char_traitsIcESaIcEEEblmdSaNS1_14adl_serializerES0_IhSaIhEEEESaISD_EEZNSD_6createISF_JEEEPT_DpOT0_EUlPSF_E_E11get_deleterEv
FNDA:0,_ZNSt10unique_ptrISt6vectorIN8nlohmann10basic_jsonISt3mapS0_NSt7__cxx1112basic_stringIcSt11char_traitsIcESaIcEEEblmdSaNS1_14adl_serializerES0_IhSaIhEEEESaISD_EEZNSD_6createISF_JEEEPT_DpOT0_EUlPSF_E_E11get_deleterEv
FN:426,_ZNSt10unique_ptrINSt7__cxx1112basic_stringIcSt11char_traitsIcESaIcEEEZN8nlohmann10basic_jsonISt3mapSt6vectorS5_blmdSaNS6_14adl_serializerES9_IhSaIhEEE6createIS5_JRKS5_EEEPT_DpOT0_EUlPS5_E_E11get_deleterEv
FNDA:0,_ZNSt10unique_ptrINSt7__cxx1112basic_stringIcSt11char_traitsIcESaIcEEEZN8nlohmann10basic_jsonISt3mapSt6vectorS5_blmdSaNS6_14adl_serializerES9_IhSaIhEEE6createIS5_JRKS5_EEEPT_DpOT0_EUlPS5_E_E11get_deleterEv
FN:426,_ZNSt10unique_ptrINSt7__cxx1112basic_stringIcSt11char_traitsIcESaIcEEEZN8nlohmann10basic_jsonISt3mapSt6vectorS5_blmdSaNS6_14adl_serializerES9_IhSaIhEEE6createIS5_JRKPcEEEPT_DpOT0_EUlPS5_E_E11get_deleterEv
FNDA:0,_ZNSt10unique_ptrINSt7__cxx1112basic_stringIcSt11char_traitsIcESaIcEEEZN8nlohmann10basic_jsonISt3mapSt6vectorS5_blmdSaNS6_14adl_serializerES9_IhSaIhEEE6createIS5_JRKPcEEEPT_DpOT0_EUlPS5_E_E11get_deleterEv
FN:426,_ZNSt10unique_ptrINSt7__cxx1112basic_stringIcSt11char_traitsIcESaIcEEEZN8nlohmann10basic_jsonISt3mapSt6vectorS5_blmdSaNS6_14adl_serializerES9_IhSaIhEEE6createIS5_JRA1_KcEEEPT_DpOT0_EUlPS5_E_E11get_deleterEv
FNDA:0,_ZNSt10unique_ptrINSt7__cxx1112basic_stringIcSt11char_traitsIcESaIcEEEZN8nlohmann10basic_jsonISt3mapSt6vectorS5_blmdSaNS6_14adl_serializerES9_IhSaIhEEE6createIS5_JRA1_KcEEEPT_DpOT0_EUlPS5_E_E11get_deleterEv
FN:426,_ZNSt10unique_ptrIN8nlohmann27byte_container_with_subtypeISt6vectorIhSaIhEEEEZNS0_10basic_jsonISt3mapS2_NSt7__cxx1112basic_stringIcSt11char_traitsIcESaIcEEEblmdSaNS0_14adl_serializerES4_E6createIS5_JEEEPT_DpOT0_EUlPS5_E_E11get_deleterEv
FNDA:0,_ZNSt10unique_ptrIN8nlohmann27byte_container_with_subtypeISt6vectorIhSaIhEEEEZNS0_10basic_jsonISt3mapS2_NSt7__cxx1112basic_stringIcSt11char_traitsIcESaIcEEEblmdSaNS0_14adl_serializerES4_E6createIS5_JEEEPT_DpOT0_EUlPS5_E_E11get_deleterEv
FN:442,_ZNSt10unique_ptrIN8nlohmann27byte_container_with_subtypeISt6vectorIhSaIhEEEEZNS0_10basic_jsonISt3mapS2_NSt7__cxx1112basic_stringIcSt11char_traitsIcESaIcEEEblmdSaNS0_14adl_serializerES4_E6createIS5_JEEEPT_DpOT0_EUlPS5_E_E7releaseEv
FNDA:0,_ZNSt10unique_ptrIN8nlohmann27byte_container_with_subtypeISt6vectorIhSaIhEEEEZNS0_10basic_jsonISt3mapS2_NSt7__cxx1112basic_stringIcSt11char_traitsIcESaIcEEEblmdSaNS0_14adl_serializerES4_E6createIS5_JEEEPT_DpOT0_EUlPS5_E_E7releaseEv
FN:442,_ZNSt10unique_ptrINSt7__cxx1112basic_stringIcSt11char_traitsIcESaIcEEEZN8nlohmann10basic_jsonISt3mapSt6vectorS5_blmdSaNS6_14adl_serializerES9_IhSaIhEEE6createIS5_JRA1_KcEEEPT_DpOT0_EUlPS5_E_E7releaseEv
FNDA:0,_ZNSt10unique_ptrINSt7__cxx1112basic_stringIcSt11char_traitsIcESaIcEEEZN8nlohmann10basic_jsonISt3mapSt6vectorS5_blmdSaNS6_14adl_serializerES9_IhSaIhEEE6createIS5_JRA1_KcEEEPT_DpOT0_EUlPS5_E_E7releaseEv
FN:442,_ZNSt10unique_ptrISt6vectorIN8nlohmann10basic_jsonISt3mapS0_NSt7__cxx1112basic_stringIcSt11char_traitsIcESaIcEEEblmdSaNS1_14adl_serializerES0_IhSaIhEEEESaISD_EEZNSD_6createISF_JEEEPT_DpOT0_EUlPSF_E_E7releaseEv
FNDA:0,_ZNSt10unique_ptrISt6vectorIN8nlohmann10basic_jsonISt3mapS0_NSt7__cxx1112basic_stringIcSt11char_traitsIcESaIcEEEblmdSaNS1_14adl_serializerES0_IhSaIhEEEESaISD_EEZNSD_6createISF_JEEEPT_DpOT0_EUlPSF_E_E7releaseEv
FN:442,_ZNSt10unique_ptrISt6vectorIN8nlohmann10basic_jsonISt3mapS0_NSt7__cxx1112basic_stringIcSt11char_traitsIcESaIcEEEblmdSaNS1_14adl_serializerES0_IhSaIhEEEESaISD_EEZNSD_6createISF_JN9__gnu_cxx17__normal_iteratorIPKS9_S0_IS9_SaIS9_EEEESN_EEEPT_DpOT0_EUlPSF_E_E7releaseEv
FNDA:0,_ZNSt10unique_ptrISt6vectorIN8nlohmann10basic_jsonISt3mapS0_NSt7__cxx1112basic_stringIcSt11char_traitsIcESaIcEEEblmdSaNS1_14adl_serializerES0_IhSaIhEEEESaISD_EEZNSD_6createISF_JN9__gnu_cxx17__normal_iteratorIPKS9_S0_IS9_SaIS9_EEEESN_EEEPT_DpOT0_EUlPSF_E_E7releaseEv
FN:442,_ZNSt10unique_ptrISt3mapINSt7__cxx1112basic_stringIcSt11char_traitsIcESaIcEEEN8nlohmann10basic_jsonIS0_St6vectorS6_blmdSaNS7_14adl_serializerES9_IhSaIhEEEESt4lessIS6_ESaISt4pairIKS6_SD_EEEZNSD_6createISK_JEEEPT_DpOT0_EUlPSK_E_E7releaseEv
FNDA:0,_ZNSt10unique_ptrISt3mapINSt7__cxx1112basic_stringIcSt11char_traitsIcESaIcEEEN8nlohmann10basic_jsonIS0_St6vectorS6_blmdSaNS7_14adl_serializerES9_IhSaIhEEEESt4lessIS6_ESaISt4pairIKS6_SD_EEEZNSD_6createISK_JEEEPT_DpOT0_EUlPSK_E_E7releaseEv
FN:442,_ZNSt10unique_ptrINSt7__cxx1112basic_stringIcSt11char_traitsIcESaIcEEEZN8nlohmann10basic_jsonISt3mapSt6vectorS5_blmdSaNS6_14adl_serializerES9_IhSaIhEEE6createIS5_JRKS5_EEEPT_DpOT0_EUlPS5_E_E7releaseEv
FNDA:0,_ZNSt10unique_ptrINSt7__cxx1112basic_stringIcSt11char_traitsIcESaIcEEEZN8nlohmann10basic_jsonISt3mapSt6vectorS5_blmdSaNS6_14adl_serializerES9_IhSaIhEEE6createIS5_JRKS5_EEEPT_DpOT0_EUlPS5_E_E7releaseEv
FN:442,_ZNSt10unique_ptrINSt7__cxx1112basic_stringIcSt11char_traitsIcESaIcEEEZN8nlohmann10basic_jsonISt3mapSt6vectorS5_blmdSaNS6_14adl_serializerES9_IhSaIhEEE6createIS5_JRKPcEEEPT_DpOT0_EUlPS5_E_E7releaseEv
FNDA:0,_ZNSt10unique_ptrINSt7__cxx1112basic_stringIcSt11char_traitsIcESaIcEEEZN8nlohmann10basic_jsonISt3mapSt6vectorS5_blmdSaNS6_14adl_serializerES9_IhSaIhEEE6createIS5_JRKPcEEEPT_DpOT0_EUlPS5_E_E7releaseEv
DA:158,0
DA:159,0
DA:158,0
DA:159,0
DA:158,0
DA:159,0
DA:158,0
DA:159,0
DA:158,0
DA:159,0
DA:158,0
DA:159,0
DA:158,0
DA:159,0
DA:172,0
DA:172,0
DA:172,0
DA:172,0
DA:172,0
DA:172,0
DA:172,0
DA:173,0
DA:173,0
DA:173,0
DA:173,0
DA:173,0
DA:173,0
DA:173,0
DA:174,0
DA:174,0
DA:174,0
DA:174,0
DA:174,0
DA:174,0
DA:174,0
DA:185,0
DA:187,0
DA:188,0
DA:189,0
DA:185,0
DA:187,0
DA:188,0
DA:189,0
DA:185,0
DA:187,0
DA:188,0
DA:189,0
DA:185,0
DA:187,0
DA:188,0
DA:189,0
DA:185,0
DA:187,0
DA:188,0
DA:189,0
DA:185,0
DA:187,0
DA:188,0
DA:189,0
DA:185,0
DA:187,0
DA:188,0
DA:189,0
DA:294,0
DA:295,0
DA:294,0
DA:295,0
DA:294,0
DA:295,0
DA:294,0
DA:295,0
DA:294,0
DA:295,0
DA:294,0
DA:295,0
DA:294,0
DA:295,0
DA:355,0
DA:359,0
DA:360,0
BRDA:360,0,0,-
BRDA:360,0,1,-
DA:361,0
DA:362,0
DA:363,0
DA:355,0
DA:359,0
DA:360,0
BRDA:360,0,0,-
BRDA:360,0,1,-
DA:361,0
DA:362,0
DA:363,0
DA:355,0
DA:359,0
DA:360,0
BRDA:360,0,0,-
BRDA:360,0,1,-
DA:361,0
DA:362,0
DA:363,0
DA:355,0
DA:359,0
DA:360,0
BRDA:360,0,0,-
BRDA:360,0,1,-
DA:361,0
DA:362,0
DA:363,0
DA:355,0
DA:359,0
DA:360,0
BRDA:360,0,0,-
BRDA:360,0,1,-
DA:361,0
DA:362,0
DA:363,0
DA:355,0
DA:359,0
DA:360,0
BRDA:360,0,0,-
BRDA:360,0,1,-
DA:361,0
DA:362,0
DA:363,0
DA:355,0
DA:359,0
DA:360,0
BRDA:360,0,0,-
BRDA:360,0,1,-
DA:361,0
DA:362,0
DA:363,0
DA:421,0
DA:422,0
DA:421,0
DA:422,0
DA:421,0
DA:422,0
DA:421,0
DA:422,0
DA:421,0
DA:422,0
DA:421,0
DA:422,0
DA:421,0
DA:422,0
DA:426,0
DA:427,0
DA:426,0
DA:427,0
DA:426,0
DA:427,0
DA:426,0
DA:427,0
DA:426,0
DA:427,0
DA:426,0
DA:427,0
DA:426,0
DA:427,0
DA:442,0
DA:443,0
DA:442,0
DA:443,0
DA:442,0
DA:443,0
DA:442,0
DA:443,0
DA:442,0
DA:443,0
DA:442,0
DA:443,0
DA:442,0
DA:443,0
end_of_record
SF:/usr/include/c++/10/bits/shared_ptr.h
end_of_record
SF:/usr/include/c++/10/bits/basic_string.tcc
FN:206,_ZNSt7__cxx1112basic_stringIcSt11char_traitsIcESaIcEE12_M_constructIPcEEvT_S7_St20forward_iterator_tag
FNDA:70955,_ZNSt7__cxx1112basic_stringIcSt11char_traitsIcESaIcEE12_M_constructIPcEEvT_S7_St20forward_iterator_tag
FN:206,_ZNSt7__cxx1112basic_stringIcSt11char_traitsIcESaIcEE12_M_constructIPKcEEvT_S8_St20forward_iterator_tag
FNDA:0,_ZNSt7__cxx1112basic_stringIcSt11char_traitsIcESaIcEE12_M_constructIPKcEEvT_S8_St20forward_iterator_tag
FN:1152,_ZStplIcSt11char_traitsIcESaIcEENSt7__cxx1112basic_stringIT_T0_T1_EEPKS5_RKS8_
FNDA:0,_ZStplIcSt11char_traitsIcESaIcEENSt7__cxx1112basic_stringIT_T0_T1_EEPKS5_RKS8_
DA:206,70955
DA:211,70955
BRDA:211,0,0,0
BRDA:211,0,1,70955
BRDA:211,0,2,0
BRDA:211,0,3,0
BRDA:211,0,4,0
BRDA:211,0,5,70955
DA:212,0
DA:215,70955
BRDA:215,0,0,70955
BRDA:215,0,1,0
DA:217,70955
BRDA:217,0,0,23
BRDA:217,0,1,70932
DA:219,23
BRDA:219,0,0,23
BRDA:219,0,1,0
BRDA:219,0,2,23
BRDA:219,0,3,0
DA:220,23
BRDA:220,0,0,23
BRDA:220,0,1,0
DA:225,70955
BRDA:225,0,0,70955
BRDA:225,0,1,0
DA:226,0
DA:228,0
BRDA:228,0,0,0
BRDA:228,0,1,0
DA:229,0
DA:232,70955
BRDA:232,0,0,70955
BRDA:232,0,1,0
DA:233,70955
DA:206,0
DA:211,0
BRDA:211,0,0,-
BRDA:211,0,1,-
BRDA:211,0,2,-
BRDA:211,0,3,-
BRDA:211,0,4,-
BRDA:211,0,5,-
DA:212,0
DA:215,0
BRDA:215,0,0,-
BRDA:215,0,1,-
DA:217,0
BRDA:217,0,0,-
BRDA:217,0,1,-
DA:219,0
BRDA:219,0,0,-
BRDA:219,0,1,-
BRDA:219,0,2,-
BRDA:219,0,3,-
DA:220,0
BRDA:220,0,0,-
BRDA:220,0,1,-
DA:225,0
BRDA:225,0,0,-
BRDA:225,0,1,-
DA:226,0
DA:228,0
BRDA:228,0,0,0
BRDA:228,0,1,0
DA:229,0
DA:232,0
BRDA:232,0,0,-
BRDA:232,0,1,-
DA:233,0
DA:1152,0
DA:1161,0
DA:1162,0
BRDA:1162,0,0,-
BRDA:1162,0,1,-
DA:1164,0
BRDA:1164,0,0,-
BRDA:1164,0,1,-
DA:1165,0
BRDA:1165,0,0,-
BRDA:1165,0,1,-
DA:1166,0
BRDA:1166,0,0,-
BRDA:1166,0,1,-
DA:1167,0
end_of_record
SF:/usr/include/c++/10/cmath
FN:611,_ZSt5isnanf
FNDA:0,_ZSt5isnanf
DA:611,0
DA:612,0
end_of_record
SF:/usr/include/c++/10/ext/alloc_traits.h
FN:97,_ZN9__gnu_cxx14__alloc_traitsISaIcEcE17_S_select_on_copyERKS1_
FNDA:0,_ZN9__gnu_cxx14__alloc_traitsISaIcEcE17_S_select_on_copyERKS1_
DA:97,0
DA:98,0
end_of_record
SF:/usr/include/c++/10/ext/atomicity.h
DA:50,87
DA:68,0
DA:69,0
DA:70,0
DA:83,87
BRDA:83,0,0,87
BRDA:83,0,1,0
BRDA:83,0,2,0
BRDA:83,0,3,0
DA:84,87
DA:86,0
end_of_record
SF:/usr/include/c++/10/ext/string_conversions.h
FN:99,_ZN9__gnu_cxx12__to_xstringINSt7__cxx1112basic_stringIcSt11char_traitsIcESaIcEEEcEET_PFiPT0_mPKS8_P13__va_list_tagEmSB_z
FNDA:0,_ZN9__gnu_cxx12__to_xstringINSt7__cxx1112basic_stringIcSt11char_traitsIcESaIcEEEcEET_PFiPT0_mPKS8_P13__va_list_tagEmSB_z
DA:99,0
DA:105,0
DA:108,0
DA:109,0
DA:111,0
BRDA:111,0,0,-
BRDA:111,0,1,-
DA:113,0
DA:115,0
BRDA:115,0,0,-
BRDA:115,0,1,-
end_of_record
SF:/usr/include/c++/10/new
FN:174,_ZnwmPv
FNDA:75454,_ZnwmPv
FN:180,_ZdlPvS_
FNDA:0,_ZdlPvS_
DA:174,75454
DA:175,75454
DA:180,0
end_of_record
SF:/usr/include/c++/10/bits/stl_iterator_base_types.h
FN:238,_ZSt19__iterator_categoryIN9__gnu_cxx17__normal_iteratorIPKNSt7__cxx1112basic_stringIcSt11char_traitsIcESaIcEEESt6vectorIS7_SaIS7_EEEEENSt15iterator_traitsIT_E17iterator_categoryERKSF_
FNDA:0,_ZSt19__iterator_categoryIN9__gnu_cxx17__normal_iteratorIPKNSt7__cxx1112basic_stringIcSt11char_traitsIcESaIcEEESt6vectorIS7_SaIS7_EEEEENSt15iterator_traitsIT_E17iterator_categoryERKSF_
FN:238,_ZSt19__iterator_categoryIPcENSt15iterator_traitsIT_E17iterator_categoryERKS2_
FNDA:70955,_ZSt19__iterator_categoryIPcENSt15iterator_traitsIT_E17iterator_categoryERKS2_
FN:238,_ZSt19__iterator_categoryIPKcENSt15iterator_traitsIT_E17iterator_categoryERKS3_
FNDA:0,_ZSt19__iterator_categoryIPKcENSt15iterator_traitsIT_E17iterator_categoryERKS3_
DA:238,0
DA:239,0
DA:238,70955
DA:239,70955
DA:238,0
DA:239,0
end_of_record
SF:/src/http_server_stock_v2/http/server/HttpServer.h
FN:23,_ZN13http_server_sC2Ev
FNDA:1,_ZN13http_server_sC2Ev
DA:23,1
DA:24,1
DA:27,1
DA:28,1
DA:29,1
DA:30,1
DA:31,1
DA:32,1
DA:33,1
DA:34,1
DA:35,1
DA:36,1
DA:37,1
end_of_record
SF:/usr/include/c++/10/bits/shared_ptr_base.h
FN:151,_ZNSt16_Sp_counted_baseILN9__gnu_cxx12_Lock_policyE2EE10_M_releaseEv
FNDA:87,_ZNSt16_Sp_counted_baseILN9__gnu_cxx12_Lock_policyE2EE10_M_releaseEv
FN:733,_ZNSt14__shared_countILN9__gnu_cxx12_Lock_policyE2EED2Ev
FNDA:257,_ZNSt14__shared_countILN9__gnu_cxx12_Lock_policyE2EED2Ev
FN:1188,_ZNSt12__shared_ptrINSt7__cxx114listI19http_method_handlerSaIS2_EEELN9__gnu_cxx12_Lock_policyE2EED2Ev
FNDA:257,_ZNSt12__shared_ptrINSt7__cxx114listI19http_method_handlerSaIS2_EEELN9__gnu_cxx12_Lock_policyE2EED2Ev
DA:151,87
DA:155,174
BRDA:155,0,0,0
BRDA:155,0,1,87
DA:158,0
DA:170,0
DA:171,0
BRDA:171,0,0,-
BRDA:171,0,1,-
DA:174,0
DA:177,87
DA:733,257
DA:735,257
BRDA:735,0,0,87
BRDA:735,0,1,170
DA:736,87
DA:737,257
DA:1188,257
end_of_record
SF:/usr/include/c++/10/bits/allocated_ptr.h
FN:52,_ZNSt15__allocated_ptrISaISt10_List_nodeI10OrderClassEEEC2ERS3_PS2_
FNDA:0,_ZNSt15__allocated_ptrISaISt10_List_nodeI10OrderClassEEEC2ERS3_PS2_
FN:70,_ZNSt15__allocated_ptrISaISt10_List_nodeI10OrderClassEEED2Ev
FNDA:0,_ZNSt15__allocated_ptrISaISt10_List_nodeI10OrderClassEEED2Ev
FN:78,_ZNSt15__allocated_ptrISaISt10_List_nodeI10OrderClassEEEaSEDn
FNDA:0,_ZNSt15__allocated_ptrISaISt10_List_nodeI10OrderClassEEEaSEDn
DA:52,0
DA:53,0
DA:54,0
DA:70,0
DA:72,0
BRDA:72,0,0,-
BRDA:72,0,1,-
DA:73,0
DA:74,0
DA:78,0
DA:80,0
DA:81,0
end_of_record
SF:/usr/include/c++/10/bits/stl_function.h
FN:385,_ZNKSt4lessINSt7__cxx1112basic_stringIcSt11char_traitsIcESaIcEEEEclERKS5_S8_
FNDA:1296,_ZNKSt4lessINSt7__cxx1112basic_stringIcSt11char_traitsIcESaIcEEEEclERKS5_S8_
FN:1155,_ZNKSt10_Select1stISt4pairIKNSt7__cxx1112basic_stringIcSt11char_traitsIcESaIcEEEN8nlohmann10basic_jsonISt3mapSt6vectorS6_blmdSaNS8_14adl_serializerESB_IhSaIhEEEEEEclERKSG_
FNDA:0,_ZNKSt10_Select1stISt4pairIKNSt7__cxx1112basic_stringIcSt11char_traitsIcESaIcEEEN8nlohmann10basic_jsonISt3mapSt6vectorS6_blmdSaNS8_14adl_serializerESB_IhSaIhEEEEEEclERKSG_
DA:385,1296
DA:386,1296
DA:1155,0
DA:1156,0
end_of_record
SF:/usr/include/c++/10/bits/invoke.h
FN:59,_ZSt13__invoke_implIiRZ4mainEUlP11HttpRequestP12HttpResponseE30_JS1_S3_EET_St14__invoke_otherOT0_DpOT1_
FNDA:0,_ZSt13__invoke_implIiRZ4mainEUlP11HttpRequestP12HttpResponseE30_JS1_S3_EET_St14__invoke_otherOT0_DpOT1_
FN:59,_ZSt13__invoke_implIiRZ4mainEUlP11HttpRequestP12HttpResponseE20_JS1_S3_EET_St14__invoke_otherOT0_DpOT1_
FNDA:0,_ZSt13__invoke_implIiRZ4mainEUlP11HttpRequestP12HttpResponseE20_JS1_S3_EET_St14__invoke_otherOT0_DpOT1_
FN:59,_ZSt13__invoke_implIiRZ4mainEUlP11HttpRequestP12HttpResponseE21_JS1_S3_EET_St14__invoke_otherOT0_DpOT1_
FNDA:0,_ZSt13__invoke_implIiRZ4mainEUlP11HttpRequestP12HttpResponseE21_JS1_S3_EET_St14__invoke_otherOT0_DpOT1_
FN:59,_ZSt13__invoke_implIiRZ4mainEUlP11HttpRequestP12HttpResponseE22_JS1_S3_EET_St14__invoke_otherOT0_DpOT1_
FNDA:0,_ZSt13__invoke_implIiRZ4mainEUlP11HttpRequestP12HttpResponseE22_JS1_S3_EET_St14__invoke_otherOT0_DpOT1_
FN:59,_ZSt13__invoke_implIiRZ4mainEUlP11HttpRequestP12HttpResponseE23_JS1_S3_EET_St14__invoke_otherOT0_DpOT1_
FNDA:0,_ZSt13__invoke_implIiRZ4mainEUlP11HttpRequestP12HttpResponseE23_JS1_S3_EET_St14__invoke_otherOT0_DpOT1_
FN:59,_ZSt13__invoke_implIiRZ4mainEUlP11HttpRequestP12HttpResponseE24_JS1_S3_EET_St14__invoke_otherOT0_DpOT1_
FNDA:0,_ZSt13__invoke_implIiRZ4mainEUlP11HttpRequestP12HttpResponseE24_JS1_S3_EET_St14__invoke_otherOT0_DpOT1_
FN:59,_ZSt13__invoke_implIiRZ4mainEUlP11HttpRequestP12HttpResponseE25_JS1_S3_EET_St14__invoke_otherOT0_DpOT1_
FNDA:0,_ZSt13__invoke_implIiRZ4mainEUlP11HttpRequestP12HttpResponseE25_JS1_S3_EET_St14__invoke_otherOT0_DpOT1_
FN:59,_ZSt13__invoke_implIiRZ4mainEUlP11HttpRequestP12HttpResponseE26_JS1_S3_EET_St14__invoke_otherOT0_DpOT1_
FNDA:0,_ZSt13__invoke_implIiRZ4mainEUlP11HttpRequestP12HttpResponseE26_JS1_S3_EET_St14__invoke_otherOT0_DpOT1_
FN:59,_ZSt13__invoke_implIiRZ4mainEUlP11HttpRequestP12HttpResponseE27_JS1_S3_EET_St14__invoke_otherOT0_DpOT1_
FNDA:0,_ZSt13__invoke_implIiRZ4mainEUlP11HttpRequestP12HttpResponseE27_JS1_S3_EET_St14__invoke_otherOT0_DpOT1_
FN:59,_ZSt13__invoke_implIiRZ4mainEUlP11HttpRequestP12HttpResponseE28_JS1_S3_EET_St14__invoke_otherOT0_DpOT1_
FNDA:0,_ZSt13__invoke_implIiRZ4mainEUlP11HttpRequestP12HttpResponseE28_JS1_S3_EET_St14__invoke_otherOT0_DpOT1_
FN:59,_ZSt13__invoke_implIiRZ4mainEUlP11HttpRequestP12HttpResponseE29_JS1_S3_EET_St14__invoke_otherOT0_DpOT1_
FNDA:0,_ZSt13__invoke_implIiRZ4mainEUlP11HttpRequestP12HttpResponseE29_JS1_S3_EET_St14__invoke_otherOT0_DpOT1_
FN:59,_ZSt13__invoke_implIiRZ4mainEUlP11HttpRequestP12HttpResponseE19_JS1_S3_EET_St14__invoke_otherOT0_DpOT1_
FNDA:0,_ZSt13__invoke_implIiRZ4mainEUlP11HttpRequestP12HttpResponseE19_JS1_S3_EET_St14__invoke_otherOT0_DpOT1_
FN:59,_ZSt13__invoke_implIiRZ4mainEUlP11HttpRequestP12HttpResponseE31_JS1_S3_EET_St14__invoke_otherOT0_DpOT1_
FNDA:0,_ZSt13__invoke_implIiRZ4mainEUlP11HttpRequestP12HttpResponseE31_JS1_S3_EET_St14__invoke_otherOT0_DpOT1_
FN:59,_ZSt13__invoke_implIiRZ4mainEUlP11HttpRequestP12HttpResponseE32_JS1_S3_EET_St14__invoke_otherOT0_DpOT1_
FNDA:0,_ZSt13__invoke_implIiRZ4mainEUlP11HttpRequestP12HttpResponseE32_JS1_S3_EET_St14__invoke_otherOT0_DpOT1_
FN:59,_ZSt13__invoke_implIiRZ4mainEUlP11HttpRequestP12HttpResponseE33_JS1_S3_EET_St14__invoke_otherOT0_DpOT1_
FNDA:0,_ZSt13__invoke_implIiRZ4mainEUlP11HttpRequestP12HttpResponseE33_JS1_S3_EET_St14__invoke_otherOT0_DpOT1_
FN:59,_ZSt13__invoke_implIiRZ4mainEUlP11HttpRequestP12HttpResponseE34_JS1_S3_EET_St14__invoke_otherOT0_DpOT1_
FNDA:0,_ZSt13__invoke_implIiRZ4mainEUlP11HttpRequestP12HttpResponseE34_JS1_S3_EET_St14__invoke_otherOT0_DpOT1_
FN:59,_ZSt13__invoke_implIiRZ4mainEUlP11HttpRequestP12HttpResponseE35_JS1_S3_EET_St14__invoke_otherOT0_DpOT1_
FNDA:0,_ZSt13__invoke_implIiRZ4mainEUlP11HttpRequestP12HttpResponseE35_JS1_S3_EET_St14__invoke_otherOT0_DpOT1_
FN:59,_ZSt13__invoke_implIiRZ4mainEUlP11HttpRequestP12HttpResponseE36_JS1_S3_EET_St14__invoke_otherOT0_DpOT1_
FNDA:0,_ZSt13__invoke_implIiRZ4mainEUlP11HttpRequestP12HttpResponseE36_JS1_S3_EET_St14__invoke_otherOT0_DpOT1_
FN:59,_ZSt13__invoke_implIiRZ4mainEUlP11HttpRequestP12HttpResponseE37_JS1_S3_EET_St14__invoke_otherOT0_DpOT1_
FNDA:0,_ZSt13__invoke_implIiRZ4mainEUlP11HttpRequestP12HttpResponseE37_JS1_S3_EET_St14__invoke_otherOT0_DpOT1_
FN:59,_ZSt13__invoke_implIiRZ4mainEUlP11HttpRequestP12HttpResponseE38_JS1_S3_EET_St14__invoke_otherOT0_DpOT1_
FNDA:0,_ZSt13__invoke_implIiRZ4mainEUlP11HttpRequestP12HttpResponseE38_JS1_S3_EET_St14__invoke_otherOT0_DpOT1_
FN:59,_ZSt13__invoke_implIiRZ4mainEUlP11HttpRequestP12HttpResponseE39_JS1_S3_EET_St14__invoke_otherOT0_DpOT1_
FNDA:0,_ZSt13__invoke_implIiRZ4mainEUlP11HttpRequestP12HttpResponseE39_JS1_S3_EET_St14__invoke_otherOT0_DpOT1_
FN:59,_ZSt13__invoke_implIiRZ4mainEUlP11HttpRequestP12HttpResponseE40_JS1_S3_EET_St14__invoke_otherOT0_DpOT1_
FNDA:0,_ZSt13__invoke_implIiRZ4mainEUlP11HttpRequestP12HttpResponseE40_JS1_S3_EET_St14__invoke_otherOT0_DpOT1_
FN:59,_ZSt13__invoke_implIiRZ4mainEUlP11HttpRequestP12HttpResponseE8_JS1_S3_EET_St14__invoke_otherOT0_DpOT1_
FNDA:0,_ZSt13__invoke_implIiRZ4mainEUlP11HttpRequestP12HttpResponseE8_JS1_S3_EET_St14__invoke_otherOT0_DpOT1_
FN:59,_ZSt13__invoke_implIiRZ4mainEUlP11HttpRequestP12HttpResponseE85_JS1_S3_EET_St14__invoke_otherOT0_DpOT1_
FNDA:0,_ZSt13__invoke_implIiRZ4mainEUlP11HttpRequestP12HttpResponseE85_JS1_S3_EET_St14__invoke_otherOT0_DpOT1_
FN:59,_ZSt13__invoke_implIiRZ4mainEUlP11HttpRequestP12HttpResponseE_JS1_S3_EET_St14__invoke_otherOT0_DpOT1_
FNDA:0,_ZSt13__invoke_implIiRZ4mainEUlP11HttpRequestP12HttpResponseE_JS1_S3_EET_St14__invoke_otherOT0_DpOT1_
FN:59,_ZSt13__invoke_implIiRZ4mainEUlP11HttpRequestP12HttpResponseE0_JS1_S3_EET_St14__invoke_otherOT0_DpOT1_
FNDA:0,_ZSt13__invoke_implIiRZ4mainEUlP11HttpRequestP12HttpResponseE0_JS1_S3_EET_St14__invoke_otherOT0_DpOT1_
FN:59,_ZSt13__invoke_implIiRZ4mainEUlP11HttpRequestP12HttpResponseE1_JS1_S3_EET_St14__invoke_otherOT0_DpOT1_
FNDA:0,_ZSt13__invoke_implIiRZ4mainEUlP11HttpRequestP12HttpResponseE1_JS1_S3_EET_St14__invoke_otherOT0_DpOT1_
FN:59,_ZSt13__invoke_implIiRZ4mainEUlP11HttpRequestP12HttpResponseE2_JS1_S3_EET_St14__invoke_otherOT0_DpOT1_
FNDA:0,_ZSt13__invoke_implIiRZ4mainEUlP11HttpRequestP12HttpResponseE2_JS1_S3_EET_St14__invoke_otherOT0_DpOT1_
FN:59,_ZSt13__invoke_implIiRZ4mainEUlP11HttpRequestP12HttpResponseE3_JS1_S3_EET_St14__invoke_otherOT0_DpOT1_
FNDA:0,_ZSt13__invoke_implIiRZ4mainEUlP11HttpRequestP12HttpResponseE3_JS1_S3_EET_St14__invoke_otherOT0_DpOT1_
FN:59,_ZSt13__invoke_implIiRZ4mainEUlP11HttpRequestP12HttpResponseE4_JS1_S3_EET_St14__invoke_otherOT0_DpOT1_
FNDA:0,_ZSt13__invoke_implIiRZ4mainEUlP11HttpRequestP12HttpResponseE4_JS1_S3_EET_St14__invoke_otherOT0_DpOT1_
FN:59,_ZSt13__invoke_implIiRZ4mainEUlP11HttpRequestP12HttpResponseE5_JS1_S3_EET_St14__invoke_otherOT0_DpOT1_
FNDA:0,_ZSt13__invoke_implIiRZ4mainEUlP11HttpRequestP12HttpResponseE5_JS1_S3_EET_St14__invoke_otherOT0_DpOT1_
FN:59,_ZSt13__invoke_implIiRZ4mainEUlP11HttpRequestP12HttpResponseE6_JS1_S3_EET_St14__invoke_otherOT0_DpOT1_
FNDA:0,_ZSt13__invoke_implIiRZ4mainEUlP11HttpRequestP12HttpResponseE6_JS1_S3_EET_St14__invoke_otherOT0_DpOT1_
FN:59,_ZSt13__invoke_implIiRZ4mainEUlP11HttpRequestP12HttpResponseE7_JS1_S3_EET_St14__invoke_otherOT0_DpOT1_
FNDA:0,_ZSt13__invoke_implIiRZ4mainEUlP11HttpRequestP12HttpResponseE7_JS1_S3_EET_St14__invoke_otherOT0_DpOT1_
FN:59,_ZSt13__invoke_implIiRZ4mainEUlP11HttpRequestP12HttpResponseE84_JS1_S3_EET_St14__invoke_otherOT0_DpOT1_
FNDA:0,_ZSt13__invoke_implIiRZ4mainEUlP11HttpRequestP12HttpResponseE84_JS1_S3_EET_St14__invoke_otherOT0_DpOT1_
FN:59,_ZSt13__invoke_implIiRZ4mainEUlP11HttpRequestP12HttpResponseE9_JS1_S3_EET_St14__invoke_otherOT0_DpOT1_
FNDA:0,_ZSt13__invoke_implIiRZ4mainEUlP11HttpRequestP12HttpResponseE9_JS1_S3_EET_St14__invoke_otherOT0_DpOT1_
FN:59,_ZSt13__invoke_implIiRZ4mainEUlP11HttpRequestP12HttpResponseE10_JS1_S3_EET_St14__invoke_otherOT0_DpOT1_
FNDA:0,_ZSt13__invoke_implIiRZ4mainEUlP11HttpRequestP12HttpResponseE10_JS1_S3_EET_St14__invoke_otherOT0_DpOT1_
FN:59,_ZSt13__invoke_implIiRZ4mainEUlP11HttpRequestP12HttpResponseE11_JS1_S3_EET_St14__invoke_otherOT0_DpOT1_
FNDA:0,_ZSt13__invoke_implIiRZ4mainEUlP11HttpRequestP12HttpResponseE11_JS1_S3_EET_St14__invoke_otherOT0_DpOT1_
FN:59,_ZSt13__invoke_implIiRZ4mainEUlP11HttpRequestP12HttpResponseE12_JS1_S3_EET_St14__invoke_otherOT0_DpOT1_
FNDA:0,_ZSt13__invoke_implIiRZ4mainEUlP11HttpRequestP12HttpResponseE12_JS1_S3_EET_St14__invoke_otherOT0_DpOT1_
FN:59,_ZSt13__invoke_implIiRZ4mainEUlP11HttpRequestP12HttpResponseE13_JS1_S3_EET_St14__invoke_otherOT0_DpOT1_
FNDA:0,_ZSt13__invoke_implIiRZ4mainEUlP11HttpRequestP12HttpResponseE13_JS1_S3_EET_St14__invoke_otherOT0_DpOT1_
FN:59,_ZSt13__invoke_implIiRZ4mainEUlP11HttpRequestP12HttpResponseE14_JS1_S3_EET_St14__invoke_otherOT0_DpOT1_
FNDA:0,_ZSt13__invoke_implIiRZ4mainEUlP11HttpRequestP12HttpResponseE14_JS1_S3_EET_St14__invoke_otherOT0_DpOT1_
FN:59,_ZSt13__invoke_implIiRZ4mainEUlP11HttpRequestP12HttpResponseE15_JS1_S3_EET_St14__invoke_otherOT0_DpOT1_
FNDA:0,_ZSt13__invoke_implIiRZ4mainEUlP11HttpRequestP12HttpResponseE15_JS1_S3_EET_St14__invoke_otherOT0_DpOT1_
FN:59,_ZSt13__invoke_implIiRZ4mainEUlP11HttpRequestP12HttpResponseE16_JS1_S3_EET_St14__invoke_otherOT0_DpOT1_
FNDA:0,_ZSt13__invoke_implIiRZ4mainEUlP11HttpRequestP12HttpResponseE16_JS1_S3_EET_St14__invoke_otherOT0_DpOT1_
FN:59,_ZSt13__invoke_implIiRZ4mainEUlP11HttpRequestP12HttpResponseE17_JS1_S3_EET_St14__invoke_otherOT0_DpOT1_
FNDA:0,_ZSt13__invoke_implIiRZ4mainEUlP11HttpRequestP12HttpResponseE17_JS1_S3_EET_St14__invoke_otherOT0_DpOT1_
FN:59,_ZSt13__invoke_implIiRZ4mainEUlP11HttpRequestP12HttpResponseE18_JS1_S3_EET_St14__invoke_otherOT0_DpOT1_
FNDA:0,_ZSt13__invoke_implIiRZ4mainEUlP11HttpRequestP12HttpResponseE18_JS1_S3_EET_St14__invoke_otherOT0_DpOT1_
FN:59,_ZSt13__invoke_implIiRZ4mainEUlP11HttpRequestP12HttpResponseE74_JS1_S3_EET_St14__invoke_otherOT0_DpOT1_
FNDA:0,_ZSt13__invoke_implIiRZ4mainEUlP11HttpRequestP12HttpResponseE74_JS1_S3_EET_St14__invoke_otherOT0_DpOT1_
FN:59,_ZSt13__invoke_implIiRZ4mainEUlP11HttpRequestP12HttpResponseE64_JS1_S3_EET_St14__invoke_otherOT0_DpOT1_
FNDA:0,_ZSt13__invoke_implIiRZ4mainEUlP11HttpRequestP12HttpResponseE64_JS1_S3_EET_St14__invoke_otherOT0_DpOT1_
FN:59,_ZSt13__invoke_implIiRZ4mainEUlP11HttpRequestP12HttpResponseE65_JS1_S3_EET_St14__invoke_otherOT0_DpOT1_
FNDA:0,_ZSt13__invoke_implIiRZ4mainEUlP11HttpRequestP12HttpResponseE65_JS1_S3_EET_St14__invoke_otherOT0_DpOT1_
FN:59,_ZSt13__invoke_implIiRZ4mainEUlP11HttpRequestP12HttpResponseE66_JS1_S3_EET_St14__invoke_otherOT0_DpOT1_
FNDA:0,_ZSt13__invoke_implIiRZ4mainEUlP11HttpRequestP12HttpResponseE66_JS1_S3_EET_St14__invoke_otherOT0_DpOT1_
FN:59,_ZSt13__invoke_implIiRZ4mainEUlP11HttpRequestP12HttpResponseE67_JS1_S3_EET_St14__invoke_otherOT0_DpOT1_
FNDA:0,_ZSt13__invoke_implIiRZ4mainEUlP11HttpRequestP12HttpResponseE67_JS1_S3_EET_St14__invoke_otherOT0_DpOT1_
FN:59,_ZSt13__invoke_implIiRZ4mainEUlP11HttpRequestP12HttpResponseE68_JS1_S3_EET_St14__invoke_otherOT0_DpOT1_
FNDA:0,_ZSt13__invoke_implIiRZ4mainEUlP11HttpRequestP12HttpResponseE68_JS1_S3_EET_St14__invoke_otherOT0_DpOT1_
FN:59,_ZSt13__invoke_implIiRZ4mainEUlP11HttpRequestP12HttpResponseE69_JS1_S3_EET_St14__invoke_otherOT0_DpOT1_
FNDA:0,_ZSt13__invoke_implIiRZ4mainEUlP11HttpRequestP12HttpResponseE69_JS1_S3_EET_St14__invoke_otherOT0_DpOT1_
FN:59,_ZSt13__invoke_implIiRZ4mainEUlP11HttpRequestP12HttpResponseE70_JS1_S3_EET_St14__invoke_otherOT0_DpOT1_
FNDA:0,_ZSt13__invoke_implIiRZ4mainEUlP11HttpRequestP12HttpResponseE70_JS1_S3_EET_St14__invoke_otherOT0_DpOT1_
FN:59,_ZSt13__invoke_implIiRZ4mainEUlP11HttpRequestP12HttpResponseE71_JS1_S3_EET_St14__invoke_otherOT0_DpOT1_
FNDA:0,_ZSt13__invoke_implIiRZ4mainEUlP11HttpRequestP12HttpResponseE71_JS1_S3_EET_St14__invoke_otherOT0_DpOT1_
FN:59,_ZSt13__invoke_implIiRZ4mainEUlP11HttpRequestP12HttpResponseE72_JS1_S3_EET_St14__invoke_otherOT0_DpOT1_
FNDA:0,_ZSt13__invoke_implIiRZ4mainEUlP11HttpRequestP12HttpResponseE72_JS1_S3_EET_St14__invoke_otherOT0_DpOT1_
FN:59,_ZSt13__invoke_implIiRZ4mainEUlP11HttpRequestP12HttpResponseE73_JS1_S3_EET_St14__invoke_otherOT0_DpOT1_
FNDA:0,_ZSt13__invoke_implIiRZ4mainEUlP11HttpRequestP12HttpResponseE73_JS1_S3_EET_St14__invoke_otherOT0_DpOT1_
FN:59,_ZSt13__invoke_implIiRZ4mainEUlP11HttpRequestP12HttpResponseE42_JS1_S3_EET_St14__invoke_otherOT0_DpOT1_
FNDA:0,_ZSt13__invoke_implIiRZ4mainEUlP11HttpRequestP12HttpResponseE42_JS1_S3_EET_St14__invoke_otherOT0_DpOT1_
FN:59,_ZSt13__invoke_implIiRZ4mainEUlP11HttpRequestP12HttpResponseE75_JS1_S3_EET_St14__invoke_otherOT0_DpOT1_
FNDA:0,_ZSt13__invoke_implIiRZ4mainEUlP11HttpRequestP12HttpResponseE75_JS1_S3_EET_St14__invoke_otherOT0_DpOT1_
FN:59,_ZSt13__invoke_implIiRZ4mainEUlP11HttpRequestP12HttpResponseE76_JS1_S3_EET_St14__invoke_otherOT0_DpOT1_
FNDA:0,_ZSt13__invoke_implIiRZ4mainEUlP11HttpRequestP12HttpResponseE76_JS1_S3_EET_St14__invoke_otherOT0_DpOT1_
FN:59,_ZSt13__invoke_implIiRZ4mainEUlP11HttpRequestP12HttpResponseE77_JS1_S3_EET_St14__invoke_otherOT0_DpOT1_
FNDA:0,_ZSt13__invoke_implIiRZ4mainEUlP11HttpRequestP12HttpResponseE77_JS1_S3_EET_St14__invoke_otherOT0_DpOT1_
FN:59,_ZSt13__invoke_implIiRZ4mainEUlP11HttpRequestP12HttpResponseE78_JS1_S3_EET_St14__invoke_otherOT0_DpOT1_
FNDA:0,_ZSt13__invoke_implIiRZ4mainEUlP11HttpRequestP12HttpResponseE78_JS1_S3_EET_St14__invoke_otherOT0_DpOT1_
FN:59,_ZSt13__invoke_implIiRZ4mainEUlP11HttpRequestP12HttpResponseE79_JS1_S3_EET_St14__invoke_otherOT0_DpOT1_
FNDA:0,_ZSt13__invoke_implIiRZ4mainEUlP11HttpRequestP12HttpResponseE79_JS1_S3_EET_St14__invoke_otherOT0_DpOT1_
FN:59,_ZSt13__invoke_implIiRZ4mainEUlP11HttpRequestP12HttpResponseE80_JS1_S3_EET_St14__invoke_otherOT0_DpOT1_
FNDA:0,_ZSt13__invoke_implIiRZ4mainEUlP11HttpRequestP12HttpResponseE80_JS1_S3_EET_St14__invoke_otherOT0_DpOT1_
FN:59,_ZSt13__invoke_implIiRZ4mainEUlP11HttpRequestP12HttpResponseE81_JS1_S3_EET_St14__invoke_otherOT0_DpOT1_
FNDA:0,_ZSt13__invoke_implIiRZ4mainEUlP11HttpRequestP12HttpResponseE81_JS1_S3_EET_St14__invoke_otherOT0_DpOT1_
FN:59,_ZSt13__invoke_implIiRZ4mainEUlP11HttpRequestP12HttpResponseE82_JS1_S3_EET_St14__invoke_otherOT0_DpOT1_
FNDA:0,_ZSt13__invoke_implIiRZ4mainEUlP11HttpRequestP12HttpResponseE82_JS1_S3_EET_St14__invoke_otherOT0_DpOT1_
FN:59,_ZSt13__invoke_implIiRZ4mainEUlP11HttpRequestP12HttpResponseE83_JS1_S3_EET_St14__invoke_otherOT0_DpOT1_
FNDA:0,_ZSt13__invoke_implIiRZ4mainEUlP11HttpRequestP12HttpResponseE83_JS1_S3_EET_St14__invoke_otherOT0_DpOT1_
FN:59,_ZSt13__invoke_implIiRZ4mainEUlP11HttpRequestP12HttpResponseE41_JS1_S3_EET_St14__invoke_otherOT0_DpOT1_
FNDA:0,_ZSt13__invoke_implIiRZ4mainEUlP11HttpRequestP12HttpResponseE41_JS1_S3_EET_St14__invoke_otherOT0_DpOT1_
FN:59,_ZSt13__invoke_implIiRZ4mainEUlP11HttpRequestP12HttpResponseE62_JS1_S3_EET_St14__invoke_otherOT0_DpOT1_
FNDA:0,_ZSt13__invoke_implIiRZ4mainEUlP11HttpRequestP12HttpResponseE62_JS1_S3_EET_St14__invoke_otherOT0_DpOT1_
FN:59,_ZSt13__invoke_implIiRZ4mainEUlP11HttpRequestP12HttpResponseE63_JS1_S3_EET_St14__invoke_otherOT0_DpOT1_
FNDA:0,_ZSt13__invoke_implIiRZ4mainEUlP11HttpRequestP12HttpResponseE63_JS1_S3_EET_St14__invoke_otherOT0_DpOT1_
FN:59,_ZSt13__invoke_implIiRZ4mainEUlP11HttpRequestP12HttpResponseE43_JS1_S3_EET_St14__invoke_otherOT0_DpOT1_
FNDA:0,_ZSt13__invoke_implIiRZ4mainEUlP11HttpRequestP12HttpResponseE43_JS1_S3_EET_St14__invoke_otherOT0_DpOT1_
FN:59,_ZSt13__invoke_implIiRZ4mainEUlP11HttpRequestP12HttpResponseE44_JS1_S3_EET_St14__invoke_otherOT0_DpOT1_
FNDA:0,_ZSt13__invoke_implIiRZ4mainEUlP11HttpRequestP12HttpResponseE44_JS1_S3_EET_St14__invoke_otherOT0_DpOT1_
FN:59,_ZSt13__invoke_implIiRZ4mainEUlP11HttpRequestP12HttpResponseE45_JS1_S3_EET_St14__invoke_otherOT0_DpOT1_
FNDA:0,_ZSt13__invoke_implIiRZ4mainEUlP11HttpRequestP12HttpResponseE45_JS1_S3_EET_St14__invoke_otherOT0_DpOT1_
FN:59,_ZSt13__invoke_implIiRZ4mainEUlP11HttpRequestP12HttpResponseE46_JS1_S3_EET_St14__invoke_otherOT0_DpOT1_
FNDA:0,_ZSt13__invoke_implIiRZ4mainEUlP11HttpRequestP12HttpResponseE46_JS1_S3_EET_St14__invoke_otherOT0_DpOT1_
FN:59,_ZSt13__invoke_implIiRZ4mainEUlP11HttpRequestP12HttpResponseE47_JS1_S3_EET_St14__invoke_otherOT0_DpOT1_
FNDA:0,_ZSt13__invoke_implIiRZ4mainEUlP11HttpRequestP12HttpResponseE47_JS1_S3_EET_St14__invoke_otherOT0_DpOT1_
FN:59,_ZSt13__invoke_implIiRZ4mainEUlP11HttpRequestP12HttpResponseE48_JS1_S3_EET_St14__invoke_otherOT0_DpOT1_
FNDA:0,_ZSt13__invoke_implIiRZ4mainEUlP11HttpRequestP12HttpResponseE48_JS1_S3_EET_St14__invoke_otherOT0_DpOT1_
FN:59,_ZSt13__invoke_implIiRZ4mainEUlP11HttpRequestP12HttpResponseE49_JS1_S3_EET_St14__invoke_otherOT0_DpOT1_
FNDA:0,_ZSt13__invoke_implIiRZ4mainEUlP11HttpRequestP12HttpResponseE49_JS1_S3_EET_St14__invoke_otherOT0_DpOT1_
FN:59,_ZSt13__invoke_implIiRZ4mainEUlP11HttpRequestP12HttpResponseE50_JS1_S3_EET_St14__invoke_otherOT0_DpOT1_
FNDA:0,_ZSt13__invoke_implIiRZ4mainEUlP11HttpRequestP12HttpResponseE50_JS1_S3_EET_St14__invoke_otherOT0_DpOT1_
FN:59,_ZSt13__invoke_implIiRZ4mainEUlP11HttpRequestP12HttpResponseE51_JS1_S3_EET_St14__invoke_otherOT0_DpOT1_
FNDA:0,_ZSt13__invoke_implIiRZ4mainEUlP11HttpRequestP12HttpResponseE51_JS1_S3_EET_St14__invoke_otherOT0_DpOT1_
FN:59,_ZSt13__invoke_implIiRZ4mainEUlP11HttpRequestP12HttpResponseE53_JS1_S3_EET_St14__invoke_otherOT0_DpOT1_
FNDA:0,_ZSt13__invoke_implIiRZ4mainEUlP11HttpRequestP12HttpResponseE53_JS1_S3_EET_St14__invoke_otherOT0_DpOT1_
FN:59,_ZSt13__invoke_implIiRZ4mainEUlP11HttpRequestP12HttpResponseE54_JS1_S3_EET_St14__invoke_otherOT0_DpOT1_
FNDA:0,_ZSt13__invoke_implIiRZ4mainEUlP11HttpRequestP12HttpResponseE54_JS1_S3_EET_St14__invoke_otherOT0_DpOT1_
FN:59,_ZSt13__invoke_implIiRZ4mainEUlP11HttpRequestP12HttpResponseE55_JS1_S3_EET_St14__invoke_otherOT0_DpOT1_
FNDA:0,_ZSt13__invoke_implIiRZ4mainEUlP11HttpRequestP12HttpResponseE55_JS1_S3_EET_St14__invoke_otherOT0_DpOT1_
FN:59,_ZSt13__invoke_implIiRZ4mainEUlP11HttpRequestP12HttpResponseE56_JS1_S3_EET_St14__invoke_otherOT0_DpOT1_
FNDA:0,_ZSt13__invoke_implIiRZ4mainEUlP11HttpRequestP12HttpResponseE56_JS1_S3_EET_St14__invoke_otherOT0_DpOT1_
FN:59,_ZSt13__invoke_implIiRZ4mainEUlP11HttpRequestP12HttpResponseE57_JS1_S3_EET_St14__invoke_otherOT0_DpOT1_
FNDA:0,_ZSt13__invoke_implIiRZ4mainEUlP11HttpRequestP12HttpResponseE57_JS1_S3_EET_St14__invoke_otherOT0_DpOT1_
FN:59,_ZSt13__invoke_implIiRZ4mainEUlP11HttpRequestP12HttpResponseE58_JS1_S3_EET_St14__invoke_otherOT0_DpOT1_
FNDA:0,_ZSt13__invoke_implIiRZ4mainEUlP11HttpRequestP12HttpResponseE58_JS1_S3_EET_St14__invoke_otherOT0_DpOT1_
FN:59,_ZSt13__invoke_implIiRZ4mainEUlP11HttpRequestP12HttpResponseE59_JS1_S3_EET_St14__invoke_otherOT0_DpOT1_
FNDA:0,_ZSt13__invoke_implIiRZ4mainEUlP11HttpRequestP12HttpResponseE59_JS1_S3_EET_St14__invoke_otherOT0_DpOT1_
FN:59,_ZSt13__invoke_implIiRZ4mainEUlP11HttpRequestP12HttpResponseE60_JS1_S3_EET_St14__invoke_otherOT0_DpOT1_
FNDA:0,_ZSt13__invoke_implIiRZ4mainEUlP11HttpRequestP12HttpResponseE60_JS1_S3_EET_St14__invoke_otherOT0_DpOT1_
FN:59,_ZSt13__invoke_implIiRZ4mainEUlP11HttpRequestP12HttpResponseE61_JS1_S3_EET_St14__invoke_otherOT0_DpOT1_
FNDA:0,_ZSt13__invoke_implIiRZ4mainEUlP11HttpRequestP12HttpResponseE61_JS1_S3_EET_St14__invoke_otherOT0_DpOT1_
FN:59,_ZSt13__invoke_implIiRZ4mainEUlP11HttpRequestP12HttpResponseE52_JS1_S3_EET_St14__invoke_otherOT0_DpOT1_
FNDA:0,_ZSt13__invoke_implIiRZ4mainEUlP11HttpRequestP12HttpResponseE52_JS1_S3_EET_St14__invoke_otherOT0_DpOT1_
FN:136,_ZSt10__invoke_rIiRZ4mainEUlP11HttpRequestP12HttpResponseE30_JS1_S3_EENSt9enable_ifIXsrSt6__and_IJSt6__not_ISt7is_voidIT_EESt14is_convertibleINSt15__invoke_resultIT0_JDpT1_EE4typeESA_EEE5valueESA_E4typeEOSF_DpOSG_
FNDA:0,_ZSt10__invoke_rIiRZ4mainEUlP11HttpRequestP12HttpResponseE30_JS1_S3_EENSt9enable_ifIXsrSt6__and_IJSt6__not_ISt7is_voidIT_EESt14is_convertibleINSt15__invoke_resultIT0_JDpT1_EE4typeESA_EEE5valueESA_E4typeEOSF_DpOSG_
FN:136,_ZSt10__invoke_rIiRZ4mainEUlP11HttpRequestP12HttpResponseE29_JS1_S3_EENSt9enable_ifIXsrSt6__and_IJSt6__not_ISt7is_voidIT_EESt14is_convertibleINSt15__invoke_resultIT0_JDpT1_EE4typeESA_EEE5valueESA_E4typeEOSF_DpOSG_
FNDA:0,_ZSt10__invoke_rIiRZ4mainEUlP11HttpRequestP12HttpResponseE29_JS1_S3_EENSt9enable_ifIXsrSt6__and_IJSt6__not_ISt7is_voidIT_EESt14is_convertibleINSt15__invoke_resultIT0_JDpT1_EE4typeESA_EEE5valueESA_E4typeEOSF_DpOSG_
FN:136,_ZSt10__invoke_rIiRZ4mainEUlP11HttpRequestP12HttpResponseE28_JS1_S3_EENSt9enable_ifIXsrSt6__and_IJSt6__not_ISt7is_voidIT_EESt14is_convertibleINSt15__invoke_resultIT0_JDpT1_EE4typeESA_EEE5valueESA_E4typeEOSF_DpOSG_
FNDA:0,_ZSt10__invoke_rIiRZ4mainEUlP11HttpRequestP12HttpResponseE28_JS1_S3_EENSt9enable_ifIXsrSt6__and_IJSt6__not_ISt7is_voidIT_EESt14is_convertibleINSt15__invoke_resultIT0_JDpT1_EE4typeESA_EEE5valueESA_E4typeEOSF_DpOSG_
FN:136,_ZSt10__invoke_rIiRZ4mainEUlP11HttpRequestP12HttpResponseE27_JS1_S3_EENSt9enable_ifIXsrSt6__and_IJSt6__not_ISt7is_voidIT_EESt14is_convertibleINSt15__invoke_resultIT0_JDpT1_EE4typeESA_EEE5valueESA_E4typeEOSF_DpOSG_
FNDA:0,_ZSt10__invoke_rIiRZ4mainEUlP11HttpRequestP12HttpResponseE27_JS1_S3_EENSt9enable_ifIXsrSt6__and_IJSt6__not_ISt7is_voidIT_EESt14is_convertibleINSt15__invoke_resultIT0_JDpT1_EE4typeESA_EEE5valueESA_E4typeEOSF_DpOSG_
FN:136,_ZSt10__invoke_rIiRZ4mainEUlP11HttpRequestP12HttpResponseE26_JS1_S3_EENSt9enable_ifIXsrSt6__and_IJSt6__not_ISt7is_voidIT_EESt14is_convertibleINSt15__invoke_resultIT0_JDpT1_EE4typeESA_EEE5valueESA_E4typeEOSF_DpOSG_
FNDA:0,_ZSt10__invoke_rIiRZ4mainEUlP11HttpRequestP12HttpResponseE26_JS1_S3_EENSt9enable_ifIXsrSt6__and_IJSt6__not_ISt7is_voidIT_EESt14is_convertibleINSt15__invoke_resultIT0_JDpT1_EE4typeESA_EEE5valueESA_E4typeEOSF_DpOSG_
FN:136,_ZSt10__invoke_rIiRZ4mainEUlP11HttpRequestP12HttpResponseE25_JS1_S3_EENSt9enable_ifIXsrSt6__and_IJSt6__not_ISt7is_voidIT_EESt14is_convertibleINSt15__invoke_resultIT0_JDpT1_EE4typeESA_EEE5valueESA_E4typeEOSF_DpOSG_
FNDA:0,_ZSt10__invoke_rIiRZ4mainEUlP11HttpRequestP12HttpResponseE25_JS1_S3_EENSt9enable_ifIXsrSt6__and_IJSt6__not_ISt7is_voidIT_EESt14is_convertibleINSt15__invoke_resultIT0_JDpT1_EE4typeESA_EEE5valueESA_E4typeEOSF_DpOSG_
FN:136,_ZSt10__invoke_rIiRZ4mainEUlP11HttpRequestP12HttpResponseE24_JS1_S3_EENSt9enable_ifIXsrSt6__and_IJSt6__not_ISt7is_voidIT_EESt14is_convertibleINSt15__invoke_resultIT0_JDpT1_EE4typeESA_EEE5valueESA_E4typeEOSF_DpOSG_
FNDA:0,_ZSt10__invoke_rIiRZ4mainEUlP11HttpRequestP12HttpResponseE24_JS1_S3_EENSt9enable_ifIXsrSt6__and_IJSt6__not_ISt7is_voidIT_EESt14is_convertibleINSt15__invoke_resultIT0_JDpT1_EE4typeESA_EEE5valueESA_E4typeEOSF_DpOSG_
FN:136,_ZSt10__invoke_rIiRZ4mainEUlP11HttpRequestP12HttpResponseE23_JS1_S3_EENSt9enable_ifIXsrSt6__and_IJSt6__not_ISt7is_voidIT_EESt14is_convertibleINSt15__invoke_resultIT0_JDpT1_EE4typeESA_EEE5valueESA_E4typeEOSF_DpOSG_
FNDA:0,_ZSt10__invoke_rIiRZ4mainEUlP11HttpRequestP12HttpResponseE23_JS1_S3_EENSt9enable_ifIXsrSt6__and_IJSt6__not_ISt7is_voidIT_EESt14is_convertibleINSt15__invoke_resultIT0_JDpT1_EE4typeESA_EEE5valueESA_E4typeEOSF_DpOSG_
FN:136,_ZSt10__invoke_rIiRZ4mainEUlP11HttpRequestP12HttpResponseE22_JS1_S3_EENSt9enable_ifIXsrSt6__and_IJSt6__not_ISt7is_voidIT_EESt14is_convertibleINSt15__invoke_resultIT0_JDpT1_EE4typeESA_EEE5valueESA_E4typeEOSF_DpOSG_
FNDA:0,_ZSt10__invoke_rIiRZ4mainEUlP11HttpRequestP12HttpResponseE22_JS1_S3_EENSt9enable_ifIXsrSt6__and_IJSt6__not_ISt7is_voidIT_EESt14is_convertibleINSt15__invoke_resultIT0_JDpT1_EE4typeESA_EEE5valueESA_E4typeEOSF_DpOSG_
FN:136,_ZSt10__invoke_rIiRZ4mainEUlP11HttpRequestP12HttpResponseE21_JS1_S3_EENSt9enable_ifIXsrSt6__and_IJSt6__not_ISt7is_voidIT_EESt14is_convertibleINSt15__invoke_resultIT0_JDpT1_EE4typeESA_EEE5valueESA_E4typeEOSF_DpOSG_
FNDA:0,_ZSt10__invoke_rIiRZ4mainEUlP11HttpRequestP12HttpResponseE21_JS1_S3_EENSt9enable_ifIXsrSt6__and_IJSt6__not_ISt7is_voidIT_EESt14is_convertibleINSt15__invoke_resultIT0_JDpT1_EE4typeESA_EEE5valueESA_E4typeEOSF_DpOSG_
FN:136,_ZSt10__invoke_rIiRZ4mainEUlP11HttpRequestP12HttpResponseE31_JS1_S3_EENSt9enable_ifIXsrSt6__and_IJSt6__not_ISt7is_voidIT_EESt14is_convertibleINSt15__invoke_resultIT0_JDpT1_EE4typeESA_EEE5valueESA_E4typeEOSF_DpOSG_
FNDA:0,_ZSt10__invoke_rIiRZ4mainEUlP11HttpRequestP12HttpResponseE31_JS1_S3_EENSt9enable_ifIXsrSt6__and_IJSt6__not_ISt7is_voidIT_EESt14is_convertibleINSt15__invoke_resultIT0_JDpT1_EE4typeESA_EEE5valueESA_E4typeEOSF_DpOSG_
FN:136,_ZSt10__invoke_rIiRZ4mainEUlP11HttpRequestP12HttpResponseE32_JS1_S3_EENSt9enable_ifIXsrSt6__and_IJSt6__not_ISt7is_voidIT_EESt14is_convertibleINSt15__invoke_resultIT0_JDpT1_EE4typeESA_EEE5valueESA_E4typeEOSF_DpOSG_
FNDA:0,_ZSt10__invoke_rIiRZ4mainEUlP11HttpRequestP12HttpResponseE32_JS1_S3_EENSt9enable_ifIXsrSt6__and_IJSt6__not_ISt7is_voidIT_EESt14is_convertibleINSt15__invoke_resultIT0_JDpT1_EE4typeESA_EEE5valueESA_E4typeEOSF_DpOSG_
FN:136,_ZSt10__invoke_rIiRZ4mainEUlP11HttpRequestP12HttpResponseE33_JS1_S3_EENSt9enable_ifIXsrSt6__and_IJSt6__not_ISt7is_voidIT_EESt14is_convertibleINSt15__invoke_resultIT0_JDpT1_EE4typeESA_EEE5valueESA_E4typeEOSF_DpOSG_
FNDA:0,_ZSt10__invoke_rIiRZ4mainEUlP11HttpRequestP12HttpResponseE33_JS1_S3_EENSt9enable_ifIXsrSt6__and_IJSt6__not_ISt7is_voidIT_EESt14is_convertibleINSt15__invoke_resultIT0_JDpT1_EE4typeESA_EEE5valueESA_E4typeEOSF_DpOSG_
FN:136,_ZSt10__invoke_rIiRZ4mainEUlP11HttpRequestP12HttpResponseE34_JS1_S3_EENSt9enable_ifIXsrSt6__and_IJSt6__not_ISt7is_voidIT_EESt14is_convertibleINSt15__invoke_resultIT0_JDpT1_EE4typeESA_EEE5valueESA_E4typeEOSF_DpOSG_
FNDA:0,_ZSt10__invoke_rIiRZ4mainEUlP11HttpRequestP12HttpResponseE34_JS1_S3_EENSt9enable_ifIXsrSt6__and_IJSt6__not_ISt7is_voidIT_EESt14is_convertibleINSt15__invoke_resultIT0_JDpT1_EE4typeESA_EEE5valueESA_E4typeEOSF_DpOSG_
FN:136,_ZSt10__invoke_rIiRZ4mainEUlP11HttpRequestP12HttpResponseE35_JS1_S3_EENSt9enable_ifIXsrSt6__and_IJSt6__not_ISt7is_voidIT_EESt14is_convertibleINSt15__invoke_resultIT0_JDpT1_EE4typeESA_EEE5valueESA_E4typeEOSF_DpOSG_
FNDA:0,_ZSt10__invoke_rIiRZ4mainEUlP11HttpRequestP12HttpResponseE35_JS1_S3_EENSt9enable_ifIXsrSt6__and_IJSt6__not_ISt7is_voidIT_EESt14is_convertibleINSt15__invoke_resultIT0_JDpT1_EE4typeESA_EEE5valueESA_E4typeEOSF_DpOSG_
FN:136,_ZSt10__invoke_rIiRZ4mainEUlP11HttpRequestP12HttpResponseE36_JS1_S3_EENSt9enable_ifIXsrSt6__and_IJSt6__not_ISt7is_voidIT_EESt14is_convertibleINSt15__invoke_resultIT0_JDpT1_EE4typeESA_EEE5valueESA_E4typeEOSF_DpOSG_
FNDA:0,_ZSt10__invoke_rIiRZ4mainEUlP11HttpRequestP12HttpResponseE36_JS1_S3_EENSt9enable_ifIXsrSt6__and_IJSt6__not_ISt7is_voidIT_EESt14is_convertibleINSt15__invoke_resultIT0_JDpT1_EE4typeESA_EEE5valueESA_E4typeEOSF_DpOSG_
FN:136,_ZSt10__invoke_rIiRZ4mainEUlP11HttpRequestP12HttpResponseE37_JS1_S3_EENSt9enable_ifIXsrSt6__and_IJSt6__not_ISt7is_voidIT_EESt14is_convertibleINSt15__invoke_resultIT0_JDpT1_EE4typeESA_EEE5valueESA_E4typeEOSF_DpOSG_
FNDA:0,_ZSt10__invoke_rIiRZ4mainEUlP11HttpRequestP12HttpResponseE37_JS1_S3_EENSt9enable_ifIXsrSt6__and_IJSt6__not_ISt7is_voidIT_EESt14is_convertibleINSt15__invoke_resultIT0_JDpT1_EE4typeESA_EEE5valueESA_E4typeEOSF_DpOSG_
FN:136,_ZSt10__invoke_rIiRZ4mainEUlP11HttpRequestP12HttpResponseE38_JS1_S3_EENSt9enable_ifIXsrSt6__and_IJSt6__not_ISt7is_voidIT_EESt14is_convertibleINSt15__invoke_resultIT0_JDpT1_EE4typeESA_EEE5valueESA_E4typeEOSF_DpOSG_
FNDA:0,_ZSt10__invoke_rIiRZ4mainEUlP11HttpRequestP12HttpResponseE38_JS1_S3_EENSt9enable_ifIXsrSt6__and_IJSt6__not_ISt7is_voidIT_EESt14is_convertibleINSt15__invoke_resultIT0_JDpT1_EE4typeESA_EEE5valueESA_E4typeEOSF_DpOSG_
FN:136,_ZSt10__invoke_rIiRZ4mainEUlP11HttpRequestP12HttpResponseE39_JS1_S3_EENSt9enable_ifIXsrSt6__and_IJSt6__not_ISt7is_voidIT_EESt14is_convertibleINSt15__invoke_resultIT0_JDpT1_EE4typeESA_EEE5valueESA_E4typeEOSF_DpOSG_
FNDA:0,_ZSt10__invoke_rIiRZ4mainEUlP11HttpRequestP12HttpResponseE39_JS1_S3_EENSt9enable_ifIXsrSt6__and_IJSt6__not_ISt7is_voidIT_EESt14is_convertibleINSt15__invoke_resultIT0_JDpT1_EE4typeESA_EEE5valueESA_E4typeEOSF_DpOSG_
FN:136,_ZSt10__invoke_rIiRZ4mainEUlP11HttpRequestP12HttpResponseE40_JS1_S3_EENSt9enable_ifIXsrSt6__and_IJSt6__not_ISt7is_voidIT_EESt14is_convertibleINSt15__invoke_resultIT0_JDpT1_EE4typeESA_EEE5valueESA_E4typeEOSF_DpOSG_
FNDA:0,_ZSt10__invoke_rIiRZ4mainEUlP11HttpRequestP12HttpResponseE40_JS1_S3_EENSt9enable_ifIXsrSt6__and_IJSt6__not_ISt7is_voidIT_EESt14is_convertibleINSt15__invoke_resultIT0_JDpT1_EE4typeESA_EEE5valueESA_E4typeEOSF_DpOSG_
FN:136,_ZSt10__invoke_rIiRZ4mainEUlP11HttpRequestP12HttpResponseE41_JS1_S3_EENSt9enable_ifIXsrSt6__and_IJSt6__not_ISt7is_voidIT_EESt14is_convertibleINSt15__invoke_resultIT0_JDpT1_EE4typeESA_EEE5valueESA_E4typeEOSF_DpOSG_
FNDA:0,_ZSt10__invoke_rIiRZ4mainEUlP11HttpRequestP12HttpResponseE41_JS1_S3_EENSt9enable_ifIXsrSt6__and_IJSt6__not_ISt7is_voidIT_EESt14is_convertibleINSt15__invoke_resultIT0_JDpT1_EE4typeESA_EEE5valueESA_E4typeEOSF_DpOSG_
FN:136,_ZSt10__invoke_rIiRZ4mainEUlP11HttpRequestP12HttpResponseE9_JS1_S3_EENSt9enable_ifIXsrSt6__and_IJSt6__not_ISt7is_voidIT_EESt14is_convertibleINSt15__invoke_resultIT0_JDpT1_EE4typeESA_EEE5valueESA_E4typeEOSF_DpOSG_
FNDA:0,_ZSt10__invoke_rIiRZ4mainEUlP11HttpRequestP12HttpResponseE9_JS1_S3_EENSt9enable_ifIXsrSt6__and_IJSt6__not_ISt7is_voidIT_EESt14is_convertibleINSt15__invoke_resultIT0_JDpT1_EE4typeESA_EEE5valueESA_E4typeEOSF_DpOSG_
FN:136,_ZSt10__invoke_rIiRZ4mainEUlP11HttpRequestP12HttpResponseE_JS1_S3_EENSt9enable_ifIXsrSt6__and_IJSt6__not_ISt7is_voidIT_EESt14is_convertibleINSt15__invoke_resultIT0_JDpT1_EE4typeESA_EEE5valueESA_E4typeEOSF_DpOSG_
FNDA:0,_ZSt10__invoke_rIiRZ4mainEUlP11HttpRequestP12HttpResponseE_JS1_S3_EENSt9enable_ifIXsrSt6__and_IJSt6__not_ISt7is_voidIT_EESt14is_convertibleINSt15__invoke_resultIT0_JDpT1_EE4typeESA_EEE5valueESA_E4typeEOSF_DpOSG_
FN:136,_ZSt10__invoke_rIiRZ4mainEUlP11HttpRequestP12HttpResponseE0_JS1_S3_EENSt9enable_ifIXsrSt6__and_IJSt6__not_ISt7is_voidIT_EESt14is_convertibleINSt15__invoke_resultIT0_JDpT1_EE4typeESA_EEE5valueESA_E4typeEOSF_DpOSG_
FNDA:0,_ZSt10__invoke_rIiRZ4mainEUlP11HttpRequestP12HttpResponseE0_JS1_S3_EENSt9enable_ifIXsrSt6__and_IJSt6__not_ISt7is_voidIT_EESt14is_convertibleINSt15__invoke_resultIT0_JDpT1_EE4typeESA_EEE5valueESA_E4typeEOSF_DpOSG_
FN:136,_ZSt10__invoke_rIiRZ4mainEUlP11HttpRequestP12HttpResponseE1_JS1_S3_EENSt9enable_ifIXsrSt6__and_IJSt6__not_ISt7is_voidIT_EESt14is_convertibleINSt15__invoke_resultIT0_JDpT1_EE4typeESA_EEE5valueESA_E4typeEOSF_DpOSG_
FNDA:0,_ZSt10__invoke_rIiRZ4mainEUlP11HttpRequestP12HttpResponseE1_JS1_S3_EENSt9enable_ifIXsrSt6__and_IJSt6__not_ISt7is_voidIT_EESt14is_convertibleINSt15__invoke_resultIT0_JDpT1_EE4typeESA_EEE5valueESA_E4typeEOSF_DpOSG_
FN:136,_ZSt10__invoke_rIiRZ4mainEUlP11HttpRequestP12HttpResponseE2_JS1_S3_EENSt9enable_ifIXsrSt6__and_IJSt6__not_ISt7is_voidIT_EESt14is_convertibleINSt15__invoke_resultIT0_JDpT1_EE4typeESA_EEE5valueESA_E4typeEOSF_DpOSG_
FNDA:0,_ZSt10__invoke_rIiRZ4mainEUlP11HttpRequestP12HttpResponseE2_JS1_S3_EENSt9enable_ifIXsrSt6__and_IJSt6__not_ISt7is_voidIT_EESt14is_convertibleINSt15__invoke_resultIT0_JDpT1_EE4typeESA_EEE5valueESA_E4typeEOSF_DpOSG_
FN:136,_ZSt10__invoke_rIiRZ4mainEUlP11HttpRequestP12HttpResponseE3_JS1_S3_EENSt9enable_ifIXsrSt6__and_IJSt6__not_ISt7is_voidIT_EESt14is_convertibleINSt15__invoke_resultIT0_JDpT1_EE4typeESA_EEE5valueESA_E4typeEOSF_DpOSG_
FNDA:0,_ZSt10__invoke_rIiRZ4mainEUlP11HttpRequestP12HttpResponseE3_JS1_S3_EENSt9enable_ifIXsrSt6__and_IJSt6__not_ISt7is_voidIT_EESt14is_convertibleINSt15__invoke_resultIT0_JDpT1_EE4typeESA_EEE5valueESA_E4typeEOSF_DpOSG_
FN:136,_ZSt10__invoke_rIiRZ4mainEUlP11HttpRequestP12HttpResponseE4_JS1_S3_EENSt9enable_ifIXsrSt6__and_IJSt6__not_ISt7is_voidIT_EESt14is_convertibleINSt15__invoke_resultIT0_JDpT1_EE4typeESA_EEE5valueESA_E4typeEOSF_DpOSG_
FNDA:0,_ZSt10__invoke_rIiRZ4mainEUlP11HttpRequestP12HttpResponseE4_JS1_S3_EENSt9enable_ifIXsrSt6__and_IJSt6__not_ISt7is_voidIT_EESt14is_convertibleINSt15__invoke_resultIT0_JDpT1_EE4typeESA_EEE5valueESA_E4typeEOSF_DpOSG_
FN:136,_ZSt10__invoke_rIiRZ4mainEUlP11HttpRequestP12HttpResponseE5_JS1_S3_EENSt9enable_ifIXsrSt6__and_IJSt6__not_ISt7is_voidIT_EESt14is_convertibleINSt15__invoke_resultIT0_JDpT1_EE4typeESA_EEE5valueESA_E4typeEOSF_DpOSG_
FNDA:0,_ZSt10__invoke_rIiRZ4mainEUlP11HttpRequestP12HttpResponseE5_JS1_S3_EENSt9enable_ifIXsrSt6__and_IJSt6__not_ISt7is_voidIT_EESt14is_convertibleINSt15__invoke_resultIT0_JDpT1_EE4typeESA_EEE5valueESA_E4typeEOSF_DpOSG_
FN:136,_ZSt10__invoke_rIiRZ4mainEUlP11HttpRequestP12HttpResponseE6_JS1_S3_EENSt9enable_ifIXsrSt6__and_IJSt6__not_ISt7is_voidIT_EESt14is_convertibleINSt15__invoke_resultIT0_JDpT1_EE4typeESA_EEE5valueESA_E4typeEOSF_DpOSG_
FNDA:0,_ZSt10__invoke_rIiRZ4mainEUlP11HttpRequestP12HttpResponseE6_JS1_S3_EENSt9enable_ifIXsrSt6__and_IJSt6__not_ISt7is_voidIT_EESt14is_convertibleINSt15__invoke_resultIT0_JDpT1_EE4typeESA_EEE5valueESA_E4typeEOSF_DpOSG_
FN:136,_ZSt10__invoke_rIiRZ4mainEUlP11HttpRequestP12HttpResponseE7_JS1_S3_EENSt9enable_ifIXsrSt6__and_IJSt6__not_ISt7is_voidIT_EESt14is_convertibleINSt15__invoke_resultIT0_JDpT1_EE4typeESA_EEE5valueESA_E4typeEOSF_DpOSG_
FNDA:0,_ZSt10__invoke_rIiRZ4mainEUlP11HttpRequestP12HttpResponseE7_JS1_S3_EENSt9enable_ifIXsrSt6__and_IJSt6__not_ISt7is_voidIT_EESt14is_convertibleINSt15__invoke_resultIT0_JDpT1_EE4typeESA_EEE5valueESA_E4typeEOSF_DpOSG_
FN:136,_ZSt10__invoke_rIiRZ4mainEUlP11HttpRequestP12HttpResponseE8_JS1_S3_EENSt9enable_ifIXsrSt6__and_IJSt6__not_ISt7is_voidIT_EESt14is_convertibleINSt15__invoke_resultIT0_JDpT1_EE4typeESA_EEE5valueESA_E4typeEOSF_DpOSG_
FNDA:0,_ZSt10__invoke_rIiRZ4mainEUlP11HttpRequestP12HttpResponseE8_JS1_S3_EENSt9enable_ifIXsrSt6__and_IJSt6__not_ISt7is_voidIT_EESt14is_convertibleINSt15__invoke_resultIT0_JDpT1_EE4typeESA_EEE5valueESA_E4typeEOSF_DpOSG_
FN:136,_ZSt10__invoke_rIiRZ4mainEUlP11HttpRequestP12HttpResponseE20_JS1_S3_EENSt9enable_ifIXsrSt6__and_IJSt6__not_ISt7is_voidIT_EESt14is_convertibleINSt15__invoke_resultIT0_JDpT1_EE4typeESA_EEE5valueESA_E4typeEOSF_DpOSG_
FNDA:0,_ZSt10__invoke_rIiRZ4mainEUlP11HttpRequestP12HttpResponseE20_JS1_S3_EENSt9enable_ifIXsrSt6__and_IJSt6__not_ISt7is_voidIT_EESt14is_convertibleINSt15__invoke_resultIT0_JDpT1_EE4typeESA_EEE5valueESA_E4typeEOSF_DpOSG_
FN:136,_ZSt10__invoke_rIiRZ4mainEUlP11HttpRequestP12HttpResponseE10_JS1_S3_EENSt9enable_ifIXsrSt6__and_IJSt6__not_ISt7is_voidIT_EESt14is_convertibleINSt15__invoke_resultIT0_JDpT1_EE4typeESA_EEE5valueESA_E4typeEOSF_DpOSG_
FNDA:0,_ZSt10__invoke_rIiRZ4mainEUlP11HttpRequestP12HttpResponseE10_JS1_S3_EENSt9enable_ifIXsrSt6__and_IJSt6__not_ISt7is_voidIT_EESt14is_convertibleINSt15__invoke_resultIT0_JDpT1_EE4typeESA_EEE5valueESA_E4typeEOSF_DpOSG_
FN:136,_ZSt10__invoke_rIiRZ4mainEUlP11HttpRequestP12HttpResponseE11_JS1_S3_EENSt9enable_ifIXsrSt6__and_IJSt6__not_ISt7is_voidIT_EESt14is_convertibleINSt15__invoke_resultIT0_JDpT1_EE4typeESA_EEE5valueESA_E4typeEOSF_DpOSG_
FNDA:0,_ZSt10__invoke_rIiRZ4mainEUlP11HttpRequestP12HttpResponseE11_JS1_S3_EENSt9enable_ifIXsrSt6__and_IJSt6__not_ISt7is_voidIT_EESt14is_convertibleINSt15__invoke_resultIT0_JDpT1_EE4typeESA_EEE5valueESA_E4typeEOSF_DpOSG_
FN:136,_ZSt10__invoke_rIiRZ4mainEUlP11HttpRequestP12HttpResponseE12_JS1_S3_EENSt9enable_ifIXsrSt6__and_IJSt6__not_ISt7is_voidIT_EESt14is_convertibleINSt15__invoke_resultIT0_JDpT1_EE4typeESA_EEE5valueESA_E4typeEOSF_DpOSG_
FNDA:0,_ZSt10__invoke_rIiRZ4mainEUlP11HttpRequestP12HttpResponseE12_JS1_S3_EENSt9enable_ifIXsrSt6__and_IJSt6__not_ISt7is_voidIT_EESt14is_convertibleINSt15__invoke_resultIT0_JDpT1_EE4typeESA_EEE5valueESA_E4typeEOSF_DpOSG_
FN:136,_ZSt10__invoke_rIiRZ4mainEUlP11HttpRequestP12HttpResponseE13_JS1_S3_EENSt9enable_ifIXsrSt6__and_IJSt6__not_ISt7is_voidIT_EESt14is_convertibleINSt15__invoke_resultIT0_JDpT1_EE4typeESA_EEE5valueESA_E4typeEOSF_DpOSG_
FNDA:0,_ZSt10__invoke_rIiRZ4mainEUlP11HttpRequestP12HttpResponseE13_JS1_S3_EENSt9enable_ifIXsrSt6__and_IJSt6__not_ISt7is_voidIT_EESt14is_convertibleINSt15__invoke_resultIT0_JDpT1_EE4typeESA_EEE5valueESA_E4typeEOSF_DpOSG_
FN:136,_ZSt10__invoke_rIiRZ4mainEUlP11HttpRequestP12HttpResponseE14_JS1_S3_EENSt9enable_ifIXsrSt6__and_IJSt6__not_ISt7is_voidIT_EESt14is_convertibleINSt15__invoke_resultIT0_JDpT1_EE4typeESA_EEE5valueESA_E4typeEOSF_DpOSG_
FNDA:0,_ZSt10__invoke_rIiRZ4mainEUlP11HttpRequestP12HttpResponseE14_JS1_S3_EENSt9enable_ifIXsrSt6__and_IJSt6__not_ISt7is_voidIT_EESt14is_convertibleINSt15__invoke_resultIT0_JDpT1_EE4typeESA_EEE5valueESA_E4typeEOSF_DpOSG_
FN:136,_ZSt10__invoke_rIiRZ4mainEUlP11HttpRequestP12HttpResponseE15_JS1_S3_EENSt9enable_ifIXsrSt6__and_IJSt6__not_ISt7is_voidIT_EESt14is_convertibleINSt15__invoke_resultIT0_JDpT1_EE4typeESA_EEE5valueESA_E4typeEOSF_DpOSG_
FNDA:0,_ZSt10__invoke_rIiRZ4mainEUlP11HttpRequestP12HttpResponseE15_JS1_S3_EENSt9enable_ifIXsrSt6__and_IJSt6__not_ISt7is_voidIT_EESt14is_convertibleINSt15__invoke_resultIT0_JDpT1_EE4typeESA_EEE5valueESA_E4typeEOSF_DpOSG_
FN:136,_ZSt10__invoke_rIiRZ4mainEUlP11HttpRequestP12HttpResponseE16_JS1_S3_EENSt9enable_ifIXsrSt6__and_IJSt6__not_ISt7is_voidIT_EESt14is_convertibleINSt15__invoke_resultIT0_JDpT1_EE4typeESA_EEE5valueESA_E4typeEOSF_DpOSG_
FNDA:0,_ZSt10__invoke_rIiRZ4mainEUlP11HttpRequestP12HttpResponseE16_JS1_S3_EENSt9enable_ifIXsrSt6__and_IJSt6__not_ISt7is_voidIT_EESt14is_convertibleINSt15__invoke_resultIT0_JDpT1_EE4typeESA_EEE5valueESA_E4typeEOSF_DpOSG_
FN:136,_ZSt10__invoke_rIiRZ4mainEUlP11HttpRequestP12HttpResponseE17_JS1_S3_EENSt9enable_ifIXsrSt6__and_IJSt6__not_ISt7is_voidIT_EESt14is_convertibleINSt15__invoke_resultIT0_JDpT1_EE4typeESA_EEE5valueESA_E4typeEOSF_DpOSG_
FNDA:0,_ZSt10__invoke_rIiRZ4mainEUlP11HttpRequestP12HttpResponseE17_JS1_S3_EENSt9enable_ifIXsrSt6__and_IJSt6__not_ISt7is_voidIT_EESt14is_convertibleINSt15__invoke_resultIT0_JDpT1_EE4typeESA_EEE5valueESA_E4typeEOSF_DpOSG_
FN:136,_ZSt10__invoke_rIiRZ4mainEUlP11HttpRequestP12HttpResponseE18_JS1_S3_EENSt9enable_ifIXsrSt6__and_IJSt6__not_ISt7is_voidIT_EESt14is_convertibleINSt15__invoke_resultIT0_JDpT1_EE4typeESA_EEE5valueESA_E4typeEOSF_DpOSG_
FNDA:0,_ZSt10__invoke_rIiRZ4mainEUlP11HttpRequestP12HttpResponseE18_JS1_S3_EENSt9enable_ifIXsrSt6__and_IJSt6__not_ISt7is_voidIT_EESt14is_convertibleINSt15__invoke_resultIT0_JDpT1_EE4typeESA_EEE5valueESA_E4typeEOSF_DpOSG_
FN:136,_ZSt10__invoke_rIiRZ4mainEUlP11HttpRequestP12HttpResponseE19_JS1_S3_EENSt9enable_ifIXsrSt6__and_IJSt6__not_ISt7is_voidIT_EESt14is_convertibleINSt15__invoke_resultIT0_JDpT1_EE4typeESA_EEE5valueESA_E4typeEOSF_DpOSG_
FNDA:0,_ZSt10__invoke_rIiRZ4mainEUlP11HttpRequestP12HttpResponseE19_JS1_S3_EENSt9enable_ifIXsrSt6__and_IJSt6__not_ISt7is_voidIT_EESt14is_convertibleINSt15__invoke_resultIT0_JDpT1_EE4typeESA_EEE5valueESA_E4typeEOSF_DpOSG_
FN:136,_ZSt10__invoke_rIiRZ4mainEUlP11HttpRequestP12HttpResponseE75_JS1_S3_EENSt9enable_ifIXsrSt6__and_IJSt6__not_ISt7is_voidIT_EESt14is_convertibleINSt15__invoke_resultIT0_JDpT1_EE4typeESA_EEE5valueESA_E4typeEOSF_DpOSG_
FNDA:0,_ZSt10__invoke_rIiRZ4mainEUlP11HttpRequestP12HttpResponseE75_JS1_S3_EENSt9enable_ifIXsrSt6__and_IJSt6__not_ISt7is_voidIT_EESt14is_convertibleINSt15__invoke_resultIT0_JDpT1_EE4typeESA_EEE5valueESA_E4typeEOSF_DpOSG_
FN:136,_ZSt10__invoke_rIiRZ4mainEUlP11HttpRequestP12HttpResponseE65_JS1_S3_EENSt9enable_ifIXsrSt6__and_IJSt6__not_ISt7is_voidIT_EESt14is_convertibleINSt15__invoke_resultIT0_JDpT1_EE4typeESA_EEE5valueESA_E4typeEOSF_DpOSG_
FNDA:0,_ZSt10__invoke_rIiRZ4mainEUlP11HttpRequestP12HttpResponseE65_JS1_S3_EENSt9enable_ifIXsrSt6__and_IJSt6__not_ISt7is_voidIT_EESt14is_convertibleINSt15__invoke_resultIT0_JDpT1_EE4typeESA_EEE5valueESA_E4typeEOSF_DpOSG_
FN:136,_ZSt10__invoke_rIiRZ4mainEUlP11HttpRequestP12HttpResponseE66_JS1_S3_EENSt9enable_ifIXsrSt6__and_IJSt6__not_ISt7is_voidIT_EESt14is_convertibleINSt15__invoke_resultIT0_JDpT1_EE4typeESA_EEE5valueESA_E4typeEOSF_DpOSG_
FNDA:0,_ZSt10__invoke_rIiRZ4mainEUlP11HttpRequestP12HttpResponseE66_JS1_S3_EENSt9enable_ifIXsrSt6__and_IJSt6__not_ISt7is_voidIT_EESt14is_convertibleINSt15__invoke_resultIT0_JDpT1_EE4typeESA_EEE5valueESA_E4typeEOSF_DpOSG_
FN:136,_ZSt10__invoke_rIiRZ4mainEUlP11HttpRequestP12HttpResponseE67_JS1_S3_EENSt9enable_ifIXsrSt6__and_IJSt6__not_ISt7is_voidIT_EESt14is_convertibleINSt15__invoke_resultIT0_JDpT1_EE4typeESA_EEE5valueESA_E4typeEOSF_DpOSG_
FNDA:0,_ZSt10__invoke_rIiRZ4mainEUlP11HttpRequestP12HttpResponseE67_JS1_S3_EENSt9enable_ifIXsrSt6__and_IJSt6__not_ISt7is_voidIT_EESt14is_convertibleINSt15__invoke_resultIT0_JDpT1_EE4typeESA_EEE5valueESA_E4typeEOSF_DpOSG_
FN:136,_ZSt10__invoke_rIiRZ4mainEUlP11HttpRequestP12HttpResponseE68_JS1_S3_EENSt9enable_ifIXsrSt6__and_IJSt6__not_ISt7is_voidIT_EESt14is_convertibleINSt15__invoke_resultIT0_JDpT1_EE4typeESA_EEE5valueESA_E4typeEOSF_DpOSG_
FNDA:0,_ZSt10__invoke_rIiRZ4mainEUlP11HttpRequestP12HttpResponseE68_JS1_S3_EENSt9enable_ifIXsrSt6__and_IJSt6__not_ISt7is_voidIT_EESt14is_convertibleINSt15__invoke_resultIT0_JDpT1_EE4typeESA_EEE5valueESA_E4typeEOSF_DpOSG_
FN:136,_ZSt10__invoke_rIiRZ4mainEUlP11HttpRequestP12HttpResponseE69_JS1_S3_EENSt9enable_ifIXsrSt6__and_IJSt6__not_ISt7is_voidIT_EESt14is_convertibleINSt15__invoke_resultIT0_JDpT1_EE4typeESA_EEE5valueESA_E4typeEOSF_DpOSG_
FNDA:0,_ZSt10__invoke_rIiRZ4mainEUlP11HttpRequestP12HttpResponseE69_JS1_S3_EENSt9enable_ifIXsrSt6__and_IJSt6__not_ISt7is_voidIT_EESt14is_convertibleINSt15__invoke_resultIT0_JDpT1_EE4typeESA_EEE5valueESA_E4typeEOSF_DpOSG_
FN:136,_ZSt10__invoke_rIiRZ4mainEUlP11HttpRequestP12HttpResponseE70_JS1_S3_EENSt9enable_ifIXsrSt6__and_IJSt6__not_ISt7is_voidIT_EESt14is_convertibleINSt15__invoke_resultIT0_JDpT1_EE4typeESA_EEE5valueESA_E4typeEOSF_DpOSG_
FNDA:0,_ZSt10__invoke_rIiRZ4mainEUlP11HttpRequestP12HttpResponseE70_JS1_S3_EENSt9enable_ifIXsrSt6__and_IJSt6__not_ISt7is_voidIT_EESt14is_convertibleINSt15__invoke_resultIT0_JDpT1_EE4typeESA_EEE5valueESA_E4typeEOSF_DpOSG_
FN:136,_ZSt10__invoke_rIiRZ4mainEUlP11HttpRequestP12HttpResponseE71_JS1_S3_EENSt9enable_ifIXsrSt6__and_IJSt6__not_ISt7is_voidIT_EESt14is_convertibleINSt15__invoke_resultIT0_JDpT1_EE4typeESA_EEE5valueESA_E4typeEOSF_DpOSG_
FNDA:0,_ZSt10__invoke_rIiRZ4mainEUlP11HttpRequestP12HttpResponseE71_JS1_S3_EENSt9enable_ifIXsrSt6__and_IJSt6__not_ISt7is_voidIT_EESt14is_convertibleINSt15__invoke_resultIT0_JDpT1_EE4typeESA_EEE5valueESA_E4typeEOSF_DpOSG_
FN:136,_ZSt10__invoke_rIiRZ4mainEUlP11HttpRequestP12HttpResponseE72_JS1_S3_EENSt9enable_ifIXsrSt6__and_IJSt6__not_ISt7is_voidIT_EESt14is_convertibleINSt15__invoke_resultIT0_JDpT1_EE4typeESA_EEE5valueESA_E4typeEOSF_DpOSG_
FNDA:0,_ZSt10__invoke_rIiRZ4mainEUlP11HttpRequestP12HttpResponseE72_JS1_S3_EENSt9enable_ifIXsrSt6__and_IJSt6__not_ISt7is_voidIT_EESt14is_convertibleINSt15__invoke_resultIT0_JDpT1_EE4typeESA_EEE5valueESA_E4typeEOSF_DpOSG_
FN:136,_ZSt10__invoke_rIiRZ4mainEUlP11HttpRequestP12HttpResponseE73_JS1_S3_EENSt9enable_ifIXsrSt6__and_IJSt6__not_ISt7is_voidIT_EESt14is_convertibleINSt15__invoke_resultIT0_JDpT1_EE4typeESA_EEE5valueESA_E4typeEOSF_DpOSG_
FNDA:0,_ZSt10__invoke_rIiRZ4mainEUlP11HttpRequestP12HttpResponseE73_JS1_S3_EENSt9enable_ifIXsrSt6__and_IJSt6__not_ISt7is_voidIT_EESt14is_convertibleINSt15__invoke_resultIT0_JDpT1_EE4typeESA_EEE5valueESA_E4typeEOSF_DpOSG_
FN:136,_ZSt10__invoke_rIiRZ4mainEUlP11HttpRequestP12HttpResponseE74_JS1_S3_EENSt9enable_ifIXsrSt6__and_IJSt6__not_ISt7is_voidIT_EESt14is_convertibleINSt15__invoke_resultIT0_JDpT1_EE4typeESA_EEE5valueESA_E4typeEOSF_DpOSG_
FNDA:0,_ZSt10__invoke_rIiRZ4mainEUlP11HttpRequestP12HttpResponseE74_JS1_S3_EENSt9enable_ifIXsrSt6__and_IJSt6__not_ISt7is_voidIT_EESt14is_convertibleINSt15__invoke_resultIT0_JDpT1_EE4typeESA_EEE5valueESA_E4typeEOSF_DpOSG_
FN:136,_ZSt10__invoke_rIiRZ4mainEUlP11HttpRequestP12HttpResponseE64_JS1_S3_EENSt9enable_ifIXsrSt6__and_IJSt6__not_ISt7is_voidIT_EESt14is_convertibleINSt15__invoke_resultIT0_JDpT1_EE4typeESA_EEE5valueESA_E4typeEOSF_DpOSG_
FNDA:0,_ZSt10__invoke_rIiRZ4mainEUlP11HttpRequestP12HttpResponseE64_JS1_S3_EENSt9enable_ifIXsrSt6__and_IJSt6__not_ISt7is_voidIT_EESt14is_convertibleINSt15__invoke_resultIT0_JDpT1_EE4typeESA_EEE5valueESA_E4typeEOSF_DpOSG_
FN:136,_ZSt10__invoke_rIiRZ4mainEUlP11HttpRequestP12HttpResponseE76_JS1_S3_EENSt9enable_ifIXsrSt6__and_IJSt6__not_ISt7is_voidIT_EESt14is_convertibleINSt15__invoke_resultIT0_JDpT1_EE4typeESA_EEE5valueESA_E4typeEOSF_DpOSG_
FNDA:0,_ZSt10__invoke_rIiRZ4mainEUlP11HttpRequestP12HttpResponseE76_JS1_S3_EENSt9enable_ifIXsrSt6__and_IJSt6__not_ISt7is_voidIT_EESt14is_convertibleINSt15__invoke_resultIT0_JDpT1_EE4typeESA_EEE5valueESA_E4typeEOSF_DpOSG_
FN:136,_ZSt10__invoke_rIiRZ4mainEUlP11HttpRequestP12HttpResponseE77_JS1_S3_EENSt9enable_ifIXsrSt6__and_IJSt6__not_ISt7is_voidIT_EESt14is_convertibleINSt15__invoke_resultIT0_JDpT1_EE4typeESA_EEE5valueESA_E4typeEOSF_DpOSG_
FNDA:0,_ZSt10__invoke_rIiRZ4mainEUlP11HttpRequestP12HttpResponseE77_JS1_S3_EENSt9enable_ifIXsrSt6__and_IJSt6__not_ISt7is_voidIT_EESt14is_convertibleINSt15__invoke_resultIT0_JDpT1_EE4typeESA_EEE5valueESA_E4typeEOSF_DpOSG_
FN:136,_ZSt10__invoke_rIiRZ4mainEUlP11HttpRequestP12HttpResponseE78_JS1_S3_EENSt9enable_ifIXsrSt6__and_IJSt6__not_ISt7is_voidIT_EESt14is_convertibleINSt15__invoke_resultIT0_JDpT1_EE4typeESA_EEE5valueESA_E4typeEOSF_DpOSG_
FNDA:0,_ZSt10__invoke_rIiRZ4mainEUlP11HttpRequestP12HttpResponseE78_JS1_S3_EENSt9enable_ifIXsrSt6__and_IJSt6__not_ISt7is_voidIT_EESt14is_convertibleINSt15__invoke_resultIT0_JDpT1_EE4typeESA_EEE5valueESA_E4typeEOSF_DpOSG_
FN:136,_ZSt10__invoke_rIiRZ4mainEUlP11HttpRequestP12HttpResponseE79_JS1_S3_EENSt9enable_ifIXsrSt6__and_IJSt6__not_ISt7is_voidIT_EESt14is_convertibleINSt15__invoke_resultIT0_JDpT1_EE4typeESA_EEE5valueESA_E4typeEOSF_DpOSG_
FNDA:0,_ZSt10__invoke_rIiRZ4mainEUlP11HttpRequestP12HttpResponseE79_JS1_S3_EENSt9enable_ifIXsrSt6__and_IJSt6__not_ISt7is_voidIT_EESt14is_convertibleINSt15__invoke_resultIT0_JDpT1_EE4typeESA_EEE5valueESA_E4typeEOSF_DpOSG_
FN:136,_ZSt10__invoke_rIiRZ4mainEUlP11HttpRequestP12HttpResponseE80_JS1_S3_EENSt9enable_ifIXsrSt6__and_IJSt6__not_ISt7is_voidIT_EESt14is_convertibleINSt15__invoke_resultIT0_JDpT1_EE4typeESA_EEE5valueESA_E4typeEOSF_DpOSG_
FNDA:0,_ZSt10__invoke_rIiRZ4mainEUlP11HttpRequestP12HttpResponseE80_JS1_S3_EENSt9enable_ifIXsrSt6__and_IJSt6__not_ISt7is_voidIT_EESt14is_convertibleINSt15__invoke_resultIT0_JDpT1_EE4typeESA_EEE5valueESA_E4typeEOSF_DpOSG_
FN:136,_ZSt10__invoke_rIiRZ4mainEUlP11HttpRequestP12HttpResponseE81_JS1_S3_EENSt9enable_ifIXsrSt6__and_IJSt6__not_ISt7is_voidIT_EESt14is_convertibleINSt15__invoke_resultIT0_JDpT1_EE4typeESA_EEE5valueESA_E4typeEOSF_DpOSG_
FNDA:0,_ZSt10__invoke_rIiRZ4mainEUlP11HttpRequestP12HttpResponseE81_JS1_S3_EENSt9enable_ifIXsrSt6__and_IJSt6__not_ISt7is_voidIT_EESt14is_convertibleINSt15__invoke_resultIT0_JDpT1_EE4typeESA_EEE5valueESA_E4typeEOSF_DpOSG_
FN:136,_ZSt10__invoke_rIiRZ4mainEUlP11HttpRequestP12HttpResponseE82_JS1_S3_EENSt9enable_ifIXsrSt6__and_IJSt6__not_ISt7is_voidIT_EESt14is_convertibleINSt15__invoke_resultIT0_JDpT1_EE4typeESA_EEE5valueESA_E4typeEOSF_DpOSG_
FNDA:0,_ZSt10__invoke_rIiRZ4mainEUlP11HttpRequestP12HttpResponseE82_JS1_S3_EENSt9enable_ifIXsrSt6__and_IJSt6__not_ISt7is_voidIT_EESt14is_convertibleINSt15__invoke_resultIT0_JDpT1_EE4typeESA_EEE5valueESA_E4typeEOSF_DpOSG_
FN:136,_ZSt10__invoke_rIiRZ4mainEUlP11HttpRequestP12HttpResponseE83_JS1_S3_EENSt9enable_ifIXsrSt6__and_IJSt6__not_ISt7is_voidIT_EESt14is_convertibleINSt15__invoke_resultIT0_JDpT1_EE4typeESA_EEE5valueESA_E4typeEOSF_DpOSG_
FNDA:0,_ZSt10__invoke_rIiRZ4mainEUlP11HttpRequestP12HttpResponseE83_JS1_S3_EENSt9enable_ifIXsrSt6__and_IJSt6__not_ISt7is_voidIT_EESt14is_convertibleINSt15__invoke_resultIT0_JDpT1_EE4typeESA_EEE5valueESA_E4typeEOSF_DpOSG_
FN:136,_ZSt10__invoke_rIiRZ4mainEUlP11HttpRequestP12HttpResponseE84_JS1_S3_EENSt9enable_ifIXsrSt6__and_IJSt6__not_ISt7is_voidIT_EESt14is_convertibleINSt15__invoke_resultIT0_JDpT1_EE4typeESA_EEE5valueESA_E4typeEOSF_DpOSG_
FNDA:0,_ZSt10__invoke_rIiRZ4mainEUlP11HttpRequestP12HttpResponseE84_JS1_S3_EENSt9enable_ifIXsrSt6__and_IJSt6__not_ISt7is_voidIT_EESt14is_convertibleINSt15__invoke_resultIT0_JDpT1_EE4typeESA_EEE5valueESA_E4typeEOSF_DpOSG_
FN:136,_ZSt10__invoke_rIiRZ4mainEUlP11HttpRequestP12HttpResponseE85_JS1_S3_EENSt9enable_ifIXsrSt6__and_IJSt6__not_ISt7is_voidIT_EESt14is_convertibleINSt15__invoke_resultIT0_JDpT1_EE4typeESA_EEE5valueESA_E4typeEOSF_DpOSG_
FNDA:0,_ZSt10__invoke_rIiRZ4mainEUlP11HttpRequestP12HttpResponseE85_JS1_S3_EENSt9enable_ifIXsrSt6__and_IJSt6__not_ISt7is_voidIT_EESt14is_convertibleINSt15__invoke_resultIT0_JDpT1_EE4typeESA_EEE5valueESA_E4typeEOSF_DpOSG_
FN:136,_ZSt10__invoke_rIiRZ4mainEUlP11HttpRequestP12HttpResponseE53_JS1_S3_EENSt9enable_ifIXsrSt6__and_IJSt6__not_ISt7is_voidIT_EESt14is_convertibleINSt15__invoke_resultIT0_JDpT1_EE4typeESA_EEE5valueESA_E4typeEOSF_DpOSG_
FNDA:0,_ZSt10__invoke_rIiRZ4mainEUlP11HttpRequestP12HttpResponseE53_JS1_S3_EENSt9enable_ifIXsrSt6__and_IJSt6__not_ISt7is_voidIT_EESt14is_convertibleINSt15__invoke_resultIT0_JDpT1_EE4typeESA_EEE5valueESA_E4typeEOSF_DpOSG_
FN:136,_ZSt10__invoke_rIiRZ4mainEUlP11HttpRequestP12HttpResponseE43_JS1_S3_EENSt9enable_ifIXsrSt6__and_IJSt6__not_ISt7is_voidIT_EESt14is_convertibleINSt15__invoke_resultIT0_JDpT1_EE4typeESA_EEE5valueESA_E4typeEOSF_DpOSG_
FNDA:0,_ZSt10__invoke_rIiRZ4mainEUlP11HttpRequestP12HttpResponseE43_JS1_S3_EENSt9enable_ifIXsrSt6__and_IJSt6__not_ISt7is_voidIT_EESt14is_convertibleINSt15__invoke_resultIT0_JDpT1_EE4typeESA_EEE5valueESA_E4typeEOSF_DpOSG_
FN:136,_ZSt10__invoke_rIiRZ4mainEUlP11HttpRequestP12HttpResponseE44_JS1_S3_EENSt9enable_ifIXsrSt6__and_IJSt6__not_ISt7is_voidIT_EESt14is_convertibleINSt15__invoke_resultIT0_JDpT1_EE4typeESA_EEE5valueESA_E4typeEOSF_DpOSG_
FNDA:0,_ZSt10__invoke_rIiRZ4mainEUlP11HttpRequestP12HttpResponseE44_JS1_S3_EENSt9enable_ifIXsrSt6__and_IJSt6__not_ISt7is_voidIT_EESt14is_convertibleINSt15__invoke_resultIT0_JDpT1_EE4typeESA_EEE5valueESA_E4typeEOSF_DpOSG_
FN:136,_ZSt10__invoke_rIiRZ4mainEUlP11HttpRequestP12HttpResponseE45_JS1_S3_EENSt9enable_ifIXsrSt6__and_IJSt6__not_ISt7is_voidIT_EESt14is_convertibleINSt15__invoke_resultIT0_JDpT1_EE4typeESA_EEE5valueESA_E4typeEOSF_DpOSG_
FNDA:0,_ZSt10__invoke_rIiRZ4mainEUlP11HttpRequestP12HttpResponseE45_JS1_S3_EENSt9enable_ifIXsrSt6__and_IJSt6__not_ISt7is_voidIT_EESt14is_convertibleINSt15__invoke_resultIT0_JDpT1_EE4typeESA_EEE5valueESA_E4typeEOSF_DpOSG_
FN:136,_ZSt10__invoke_rIiRZ4mainEUlP11HttpRequestP12HttpResponseE46_JS1_S3_EENSt9enable_ifIXsrSt6__and_IJSt6__not_ISt7is_voidIT_EESt14is_convertibleINSt15__invoke_resultIT0_JDpT1_EE4typeESA_EEE5valueESA_E4typeEOSF_DpOSG_
FNDA:0,_ZSt10__invoke_rIiRZ4mainEUlP11HttpRequestP12HttpResponseE46_JS1_S3_EENSt9enable_ifIXsrSt6__and_IJSt6__not_ISt7is_voidIT_EESt14is_convertibleINSt15__invoke_resultIT0_JDpT1_EE4typeESA_EEE5valueESA_E4typeEOSF_DpOSG_
FN:136,_ZSt10__invoke_rIiRZ4mainEUlP11HttpRequestP12HttpResponseE47_JS1_S3_EENSt9enable_ifIXsrSt6__and_IJSt6__not_ISt7is_voidIT_EESt14is_convertibleINSt15__invoke_resultIT0_JDpT1_EE4typeESA_EEE5valueESA_E4typeEOSF_DpOSG_
FNDA:0,_ZSt10__invoke_rIiRZ4mainEUlP11HttpRequestP12HttpResponseE47_JS1_S3_EENSt9enable_ifIXsrSt6__and_IJSt6__not_ISt7is_voidIT_EESt14is_convertibleINSt15__invoke_resultIT0_JDpT1_EE4typeESA_EEE5valueESA_E4typeEOSF_DpOSG_
FN:136,_ZSt10__invoke_rIiRZ4mainEUlP11HttpRequestP12HttpResponseE48_JS1_S3_EENSt9enable_ifIXsrSt6__and_IJSt6__not_ISt7is_voidIT_EESt14is_convertibleINSt15__invoke_resultIT0_JDpT1_EE4typeESA_EEE5valueESA_E4typeEOSF_DpOSG_
FNDA:0,_ZSt10__invoke_rIiRZ4mainEUlP11HttpRequestP12HttpResponseE48_JS1_S3_EENSt9enable_ifIXsrSt6__and_IJSt6__not_ISt7is_voidIT_EESt14is_convertibleINSt15__invoke_resultIT0_JDpT1_EE4typeESA_EEE5valueESA_E4typeEOSF_DpOSG_
FN:136,_ZSt10__invoke_rIiRZ4mainEUlP11HttpRequestP12HttpResponseE49_JS1_S3_EENSt9enable_ifIXsrSt6__and_IJSt6__not_ISt7is_voidIT_EESt14is_convertibleINSt15__invoke_resultIT0_JDpT1_EE4typeESA_EEE5valueESA_E4typeEOSF_DpOSG_
FNDA:0,_ZSt10__invoke_rIiRZ4mainEUlP11HttpRequestP12HttpResponseE49_JS1_S3_EENSt9enable_ifIXsrSt6__and_IJSt6__not_ISt7is_voidIT_EESt14is_convertibleINSt15__invoke_resultIT0_JDpT1_EE4typeESA_EEE5valueESA_E4typeEOSF_DpOSG_
FN:136,_ZSt10__invoke_rIiRZ4mainEUlP11HttpRequestP12HttpResponseE50_JS1_S3_EENSt9enable_ifIXsrSt6__and_IJSt6__not_ISt7is_voidIT_EESt14is_convertibleINSt15__invoke_resultIT0_JDpT1_EE4typeESA_EEE5valueESA_E4typeEOSF_DpOSG_
FNDA:0,_ZSt10__invoke_rIiRZ4mainEUlP11HttpRequestP12HttpResponseE50_JS1_S3_EENSt9enable_ifIXsrSt6__and_IJSt6__not_ISt7is_voidIT_EESt14is_convertibleINSt15__invoke_resultIT0_JDpT1_EE4typeESA_EEE5valueESA_E4typeEOSF_DpOSG_
FN:136,_ZSt10__invoke_rIiRZ4mainEUlP11HttpRequestP12HttpResponseE51_JS1_S3_EENSt9enable_ifIXsrSt6__and_IJSt6__not_ISt7is_voidIT_EESt14is_convertibleINSt15__invoke_resultIT0_JDpT1_EE4typeESA_EEE5valueESA_E4typeEOSF_DpOSG_
FNDA:0,_ZSt10__invoke_rIiRZ4mainEUlP11HttpRequestP12HttpResponseE51_JS1_S3_EENSt9enable_ifIXsrSt6__and_IJSt6__not_ISt7is_voidIT_EESt14is_convertibleINSt15__invoke_resultIT0_JDpT1_EE4typeESA_EEE5valueESA_E4typeEOSF_DpOSG_
FN:136,_ZSt10__invoke_rIiRZ4mainEUlP11HttpRequestP12HttpResponseE52_JS1_S3_EENSt9enable_ifIXsrSt6__and_IJSt6__not_ISt7is_voidIT_EESt14is_convertibleINSt15__invoke_resultIT0_JDpT1_EE4typeESA_EEE5valueESA_E4typeEOSF_DpOSG_
FNDA:0,_ZSt10__invoke_rIiRZ4mainEUlP11HttpRequestP12HttpResponseE52_JS1_S3_EENSt9enable_ifIXsrSt6__and_IJSt6__not_ISt7is_voidIT_EESt14is_convertibleINSt15__invoke_resultIT0_JDpT1_EE4typeESA_EEE5valueESA_E4typeEOSF_DpOSG_
FN:136,_ZSt10__invoke_rIiRZ4mainEUlP11HttpRequestP12HttpResponseE42_JS1_S3_EENSt9enable_ifIXsrSt6__and_IJSt6__not_ISt7is_voidIT_EESt14is_convertibleINSt15__invoke_resultIT0_JDpT1_EE4typeESA_EEE5valueESA_E4typeEOSF_DpOSG_
FNDA:0,_ZSt10__invoke_rIiRZ4mainEUlP11HttpRequestP12HttpResponseE42_JS1_S3_EENSt9enable_ifIXsrSt6__and_IJSt6__not_ISt7is_voidIT_EESt14is_convertibleINSt15__invoke_resultIT0_JDpT1_EE4typeESA_EEE5valueESA_E4typeEOSF_DpOSG_
FN:136,_ZSt10__invoke_rIiRZ4mainEUlP11HttpRequestP12HttpResponseE54_JS1_S3_EENSt9enable_ifIXsrSt6__and_IJSt6__not_ISt7is_voidIT_EESt14is_convertibleINSt15__invoke_resultIT0_JDpT1_EE4typeESA_EEE5valueESA_E4typeEOSF_DpOSG_
FNDA:0,_ZSt10__invoke_rIiRZ4mainEUlP11HttpRequestP12HttpResponseE54_JS1_S3_EENSt9enable_ifIXsrSt6__and_IJSt6__not_ISt7is_voidIT_EESt14is_convertibleINSt15__invoke_resultIT0_JDpT1_EE4typeESA_EEE5valueESA_E4typeEOSF_DpOSG_
FN:136,_ZSt10__invoke_rIiRZ4mainEUlP11HttpRequestP12HttpResponseE55_JS1_S3_EENSt9enable_ifIXsrSt6__and_IJSt6__not_ISt7is_voidIT_EESt14is_convertibleINSt15__invoke_resultIT0_JDpT1_EE4typeESA_EEE5valueESA_E4typeEOSF_DpOSG_
FNDA:0,_ZSt10__invoke_rIiRZ4mainEUlP11HttpRequestP12HttpResponseE55_JS1_S3_EENSt9enable_ifIXsrSt6__and_IJSt6__not_ISt7is_voidIT_EESt14is_convertibleINSt15__invoke_resultIT0_JDpT1_EE4typeESA_EEE5valueESA_E4typeEOSF_DpOSG_
FN:136,_ZSt10__invoke_rIiRZ4mainEUlP11HttpRequestP12HttpResponseE56_JS1_S3_EENSt9enable_ifIXsrSt6__and_IJSt6__not_ISt7is_voidIT_EESt14is_convertibleINSt15__invoke_resultIT0_JDpT1_EE4typeESA_EEE5valueESA_E4typeEOSF_DpOSG_
FNDA:0,_ZSt10__invoke_rIiRZ4mainEUlP11HttpRequestP12HttpResponseE56_JS1_S3_EENSt9enable_ifIXsrSt6__and_IJSt6__not_ISt7is_voidIT_EESt14is_convertibleINSt15__invoke_resultIT0_JDpT1_EE4typeESA_EEE5valueESA_E4typeEOSF_DpOSG_
FN:136,_ZSt10__invoke_rIiRZ4mainEUlP11HttpRequestP12HttpResponseE57_JS1_S3_EENSt9enable_ifIXsrSt6__and_IJSt6__not_ISt7is_voidIT_EESt14is_convertibleINSt15__invoke_resultIT0_JDpT1_EE4typeESA_EEE5valueESA_E4typeEOSF_DpOSG_
FNDA:0,_ZSt10__invoke_rIiRZ4mainEUlP11HttpRequestP12HttpResponseE57_JS1_S3_EENSt9enable_ifIXsrSt6__and_IJSt6__not_ISt7is_voidIT_EESt14is_convertibleINSt15__invoke_resultIT0_JDpT1_EE4typeESA_EEE5valueESA_E4typeEOSF_DpOSG_
FN:136,_ZSt10__invoke_rIiRZ4mainEUlP11HttpRequestP12HttpResponseE58_JS1_S3_EENSt9enable_ifIXsrSt6__and_IJSt6__not_ISt7is_voidIT_EESt14is_convertibleINSt15__invoke_resultIT0_JDpT1_EE4typeESA_EEE5valueESA_E4typeEOSF_DpOSG_
FNDA:0,_ZSt10__invoke_rIiRZ4mainEUlP11HttpRequestP12HttpResponseE58_JS1_S3_EENSt9enable_ifIXsrSt6__and_IJSt6__not_ISt7is_voidIT_EESt14is_convertibleINSt15__invoke_resultIT0_JDpT1_EE4typeESA_EEE5valueESA_E4typeEOSF_DpOSG_
FN:136,_ZSt10__invoke_rIiRZ4mainEUlP11HttpRequestP12HttpResponseE59_JS1_S3_EENSt9enable_ifIXsrSt6__and_IJSt6__not_ISt7is_voidIT_EESt14is_convertibleINSt15__invoke_resultIT0_JDpT1_EE4typeESA_EEE5valueESA_E4typeEOSF_DpOSG_
FNDA:0,_ZSt10__invoke_rIiRZ4mainEUlP11HttpRequestP12HttpResponseE59_JS1_S3_EENSt9enable_ifIXsrSt6__and_IJSt6__not_ISt7is_voidIT_EESt14is_convertibleINSt15__invoke_resultIT0_JDpT1_EE4typeESA_EEE5valueESA_E4typeEOSF_DpOSG_
FN:136,_ZSt10__invoke_rIiRZ4mainEUlP11HttpRequestP12HttpResponseE60_JS1_S3_EENSt9enable_ifIXsrSt6__and_IJSt6__not_ISt7is_voidIT_EESt14is_convertibleINSt15__invoke_resultIT0_JDpT1_EE4typeESA_EEE5valueESA_E4typeEOSF_DpOSG_
FNDA:0,_ZSt10__invoke_rIiRZ4mainEUlP11HttpRequestP12HttpResponseE60_JS1_S3_EENSt9enable_ifIXsrSt6__and_IJSt6__not_ISt7is_voidIT_EESt14is_convertibleINSt15__invoke_resultIT0_JDpT1_EE4typeESA_EEE5valueESA_E4typeEOSF_DpOSG_
FN:136,_ZSt10__invoke_rIiRZ4mainEUlP11HttpRequestP12HttpResponseE61_JS1_S3_EENSt9enable_ifIXsrSt6__and_IJSt6__not_ISt7is_voidIT_EESt14is_convertibleINSt15__invoke_resultIT0_JDpT1_EE4typeESA_EEE5valueESA_E4typeEOSF_DpOSG_
FNDA:0,_ZSt10__invoke_rIiRZ4mainEUlP11HttpRequestP12HttpResponseE61_JS1_S3_EENSt9enable_ifIXsrSt6__and_IJSt6__not_ISt7is_voidIT_EESt14is_convertibleINSt15__invoke_resultIT0_JDpT1_EE4typeESA_EEE5valueESA_E4typeEOSF_DpOSG_
FN:136,_ZSt10__invoke_rIiRZ4mainEUlP11HttpRequestP12HttpResponseE62_JS1_S3_EENSt9enable_ifIXsrSt6__and_IJSt6__not_ISt7is_voidIT_EESt14is_convertibleINSt15__invoke_resultIT0_JDpT1_EE4typeESA_EEE5valueESA_E4typeEOSF_DpOSG_
FNDA:0,_ZSt10__invoke_rIiRZ4mainEUlP11HttpRequestP12HttpResponseE62_JS1_S3_EENSt9enable_ifIXsrSt6__and_IJSt6__not_ISt7is_voidIT_EESt14is_convertibleINSt15__invoke_resultIT0_JDpT1_EE4typeESA_EEE5valueESA_E4typeEOSF_DpOSG_
FN:136,_ZSt10__invoke_rIiRZ4mainEUlP11HttpRequestP12HttpResponseE63_JS1_S3_EENSt9enable_ifIXsrSt6__and_IJSt6__not_ISt7is_voidIT_EESt14is_convertibleINSt15__invoke_resultIT0_JDpT1_EE4typeESA_EEE5valueESA_E4typeEOSF_DpOSG_
FNDA:0,_ZSt10__invoke_rIiRZ4mainEUlP11HttpRequestP12HttpResponseE63_JS1_S3_EENSt9enable_ifIXsrSt6__and_IJSt6__not_ISt7is_voidIT_EESt14is_convertibleINSt15__invoke_resultIT0_JDpT1_EE4typeESA_EEE5valueESA_E4typeEOSF_DpOSG_
DA:59,0
DA:60,0
DA:59,0
DA:60,0
DA:59,0
DA:60,0
DA:59,0
DA:60,0
DA:59,0
DA:60,0
DA:59,0
DA:60,0
DA:59,0
DA:60,0
DA:59,0
DA:60,0
DA:59,0
DA:60,0
DA:59,0
DA:60,0
DA:59,0
DA:60,0
DA:59,0
DA:60,0
DA:59,0
DA:60,0
DA:59,0
DA:60,0
DA:59,0
DA:60,0
DA:59,0
DA:60,0
DA:59,0
DA:60,0
DA:59,0
DA:60,0
DA:59,0
DA:60,0
DA:59,0
DA:60,0
DA:59,0
DA:60,0
DA:59,0
DA:60,0
DA:59,0
DA:60,0
DA:59,0
DA:60,0
DA:59,0
DA:60,0
DA:59,0
DA:60,0
DA:59,0
DA:60,0
DA:59,0
DA:60,0
DA:59,0
DA:60,0
DA:59,0
DA:60,0
DA:59,0
DA:60,0
DA:59,0
DA:60,0
DA:59,0
DA:60,0
DA:59,0
DA:60,0
DA:59,0
DA:60,0
DA:59,0
DA:60,0
DA:59,0
DA:60,0
DA:59,0
DA:60,0
DA:59,0
DA:60,0
DA:59,0
DA:60,0
DA:59,0
DA:60,0
DA:59,0
DA:60,0
DA:59,0
DA:60,0
DA:59,0
DA:60,0
DA:59,0
DA:60,0
DA:59,0
DA:60,0
DA:59,0
DA:60,0
DA:59,0
DA:60,0
DA:59,0
DA:60,0
DA:59,0
DA:60,0
DA:59,0
DA:60,0
DA:59,0
DA:60,0
DA:59,0
DA:60,0
DA:59,0
DA:60,0
DA:59,0
DA:60,0
DA:59,0
DA:60,0
DA:59,0
DA:60,0
DA:59,0
DA:60,0
DA:59,0
DA:60,0
DA:59,0
DA:60,0
DA:59,0
DA:60,0
DA:59,0
DA:60,0
DA:59,0
DA:60,0
DA:59,0
DA:60,0
DA:59,0
DA:60,0
DA:59,0
DA:60,0
DA:59,0
DA:60,0
DA:59,0
DA:60,0
DA:59,0
DA:60,0
DA:59,0
DA:60,0
DA:59,0
DA:60,0
DA:59,0
DA:60,0
DA:59,0
DA:60,0
DA:59,0
DA:60,0
DA:59,0
DA:60,0
DA:59,0
DA:60,0
DA:59,0
DA:60,0
DA:59,0
DA:60,0
DA:59,0
DA:60,0
DA:59,0
DA:60,0
DA:59,0
DA:60,0
DA:59,0
DA:60,0
DA:59,0
DA:60,0
DA:59,0
DA:60,0
DA:59,0
DA:60,0
DA:59,0
DA:60,0
DA:59,0
DA:60,0
DA:136,0
DA:141,0
DA:142,0
DA:136,0
DA:141,0
DA:142,0
DA:136,0
DA:141,0
DA:142,0
DA:136,0
DA:141,0
DA:142,0
DA:136,0
DA:141,0
DA:142,0
DA:136,0
DA:141,0
DA:142,0
DA:136,0
DA:141,0
DA:142,0
DA:136,0
DA:141,0
DA:142,0
DA:136,0
DA:141,0
DA:142,0
DA:136,0
DA:141,0
DA:142,0
DA:136,0
DA:141,0
DA:142,0
DA:136,0
DA:141,0
DA:142,0
DA:136,0
DA:141,0
DA:142,0
DA:136,0
DA:141,0
DA:142,0
DA:136,0
DA:141,0
DA:142,0
DA:136,0
DA:141,0
DA:142,0
DA:136,0
DA:141,0
DA:142,0
DA:136,0
DA:141,0
DA:142,0
DA:136,0
DA:141,0
DA:142,0
DA:136,0
DA:141,0
DA:142,0
DA:136,0
DA:141,0
DA:142,0
DA:136,0
DA:141,0
DA:142,0
DA:136,0
DA:141,0
DA:142,0
DA:136,0
DA:141,0
DA:142,0
DA:136,0
DA:141,0
DA:142,0
DA:136,0
DA:141,0
DA:142,0
DA:136,0
DA:141,0
DA:142,0
DA:136,0
DA:141,0
DA:142,0
DA:136,0
DA:141,0
DA:142,0
DA:136,0
DA:141,0
DA:142,0
DA:136,0
DA:141,0
DA:142,0
DA:136,0
DA:141,0
DA:142,0
DA:136,0
DA:141,0
DA:142,0
DA:136,0
DA:141,0
DA:142,0
DA:136,0
DA:141,0
DA:142,0
DA:136,0
DA:141,0
DA:142,0
DA:136,0
DA:141,0
DA:142,0
DA:136,0
DA:141,0
DA:142,0
DA:136,0
DA:141,0
DA:142,0
DA:136,0
DA:141,0
DA:142,0
DA:136,0
DA:141,0
DA:142,0
DA:136,0
DA:141,0
DA:142,0
DA:136,0
DA:141,0
DA:142,0
DA:136,0
DA:141,0
DA:142,0
DA:136,0
DA:141,0
DA:142,0
DA:136,0
DA:141,0
DA:142,0
DA:136,0
DA:141,0
DA:142,0
DA:136,0
DA:141,0
DA:142,0
DA:136,0
DA:141,0
DA:142,0
DA:136,0
DA:141,0
DA:142,0
DA:136,0
DA:141,0
DA:142,0
DA:136,0
DA:141,0
DA:142,0
DA:136,0
DA:141,0
DA:142,0
DA:136,0
DA:141,0
DA:142,0
DA:136,0
DA:141,0
DA:142,0
DA:136,0
DA:141,0
DA:142,0
DA:136,0
DA:141,0
DA:142,0
DA:136,0
DA:141,0
DA:142,0
DA:136,0
DA:141,0
DA:142,0
DA:136,0
DA:141,0
DA:142,0
DA:136,0
DA:141,0
DA:142,0
DA:136,0
DA:141,0
DA:142,0
DA:136,0
DA:141,0
DA:142,0
DA:136,0
DA:141,0
DA:142,0
DA:136,0
DA:141,0
DA:142,0
DA:136,0
DA:141,0
DA:142,0
DA:136,0
DA:141,0
DA:142,0
DA:136,0
DA:141,0
DA:142,0
DA:136,0
DA:141,0
DA:142,0
DA:136,0
DA:141,0
DA:142,0
DA:136,0
DA:141,0
DA:142,0
DA:136,0
DA:141,0
DA:142,0
DA:136,0
DA:141,0
DA:142,0
DA:136,0
DA:141,0
DA:142,0
DA:136,0
DA:141,0
DA:142,0
DA:136,0
DA:141,0
DA:142,0
DA:136,0
DA:141,0
DA:142,0
DA:136,0
DA:141,0
DA:142,0
DA:136,0
DA:141,0
DA:142,0
DA:136,0
DA:141,0
DA:142,0
DA:136,0
DA:141,0
DA:142,0
DA:136,0
DA:141,0
DA:142,0
DA:136,0
DA:141,0
DA:142,0
DA:136,0
DA:141,0
DA:142,0
DA:136,0
DA:141,0
DA:142,0
DA:136,0
DA:141,0
DA:142,0
DA:136,0
DA:141,0
DA:142,0
end_of_record
SF:/usr/include/c++/10/bits/vector.tcc
FN:66,_ZNSt6vectorIN8nlohmann10basic_jsonISt3mapS_NSt7__cxx1112basic_stringIcSt11char_traitsIcESaIcEEEblmdSaNS0_14adl_serializerES_IhSaIhEEEESaISC_EE7reserveEm
FNDA:0,_ZNSt6vectorIN8nlohmann10basic_jsonISt3mapS_NSt7__cxx1112basic_stringIcSt11char_traitsIcESaIcEEEblmdSaNS0_14adl_serializerES_IhSaIhEEEESaISC_EE7reserveEm
FN:109,_ZNSt6vectorIN8nlohmann10basic_jsonISt3mapS_NSt7__cxx1112basic_stringIcSt11char_traitsIcESaIcEEEblmdSaNS0_14adl_serializerES_IhSaIhEEEESaISC_EE12emplace_backIJSC_EEEvDpOT_
FNDA:0,_ZNSt6vectorIN8nlohmann10basic_jsonISt3mapS_NSt7__cxx1112basic_stringIcSt11char_traitsIcESaIcEEEblmdSaNS0_14adl_serializerES_IhSaIhEEEESaISC_EE12emplace_backIJSC_EEEvDpOT_
FN:109,_ZNSt6vectorINSt7__cxx1112basic_stringIcSt11char_traitsIcESaIcEEESaIS5_EE12emplace_backIJRKS5_EEEvDpOT_
FNDA:0,_ZNSt6vectorINSt7__cxx1112basic_stringIcSt11char_traitsIcESaIcEEESaIS5_EE12emplace_backIJRKS5_EEEvDpOT_
FN:426,_ZNSt6vectorIN8nlohmann10basic_jsonISt3mapS_NSt7__cxx1112basic_stringIcSt11char_traitsIcESaIcEEEblmdSaNS0_14adl_serializerES_IhSaIhEEEESaISC_EE17_M_realloc_insertIJSC_EEEvN9__gnu_cxx17__normal_iteratorIPSC_SE_EEDpOT_
FNDA:0,_ZNSt6vectorIN8nlohmann10basic_jsonISt3mapS_NSt7__cxx1112basic_stringIcSt11char_traitsIcESaIcEEEblmdSaNS0_14adl_serializerES_IhSaIhEEEESaISC_EE17_M_realloc_insertIJSC_EEEvN9__gnu_cxx17__normal_iteratorIPSC_SE_EEDpOT_
FN:426,_ZNSt6vectorINSt7__cxx1112basic_stringIcSt11char_traitsIcESaIcEEESaIS5_EE17_M_realloc_insertIJRKS5_EEEvN9__gnu_cxx17__normal_iteratorIPS5_S7_EEDpOT_
FNDA:0,_ZNSt6vectorINSt7__cxx1112basic_stringIcSt11char_traitsIcESaIcEEESaIS5_EE17_M_realloc_insertIJRKS5_EEEvN9__gnu_cxx17__normal_iteratorIPS5_S7_EEDpOT_
DA:66,0
DA:69,0
BRDA:69,0,0,-
BRDA:69,0,1,-
DA:70,0
DA:71,0
BRDA:71,0,0,-
BRDA:71,0,1,-
DA:73,0
DA:76,0
BRDA:76,0,0,-
BRDA:76,0,1,-
DA:78,0
DA:79,0
DA:80,0
DA:85,0
DA:88,0
DA:89,0
DA:92,0
DA:93,0
DA:94,0
DA:95,0
DA:96,0
DA:97,0
DA:99,0
DA:109,0
DA:112,0
BRDA:112,0,0,-
BRDA:112,0,1,-
DA:115,0
DA:117,0
DA:121,0
DA:125,0
DA:109,0
DA:112,0
BRDA:112,0,0,-
BRDA:112,0,1,-
DA:115,0
DA:117,0
DA:121,0
DA:125,0
DA:426,0
DA:436,0
DA:437,0
DA:438,0
DA:439,0
DA:440,0
DA:441,0
DA:449,0
DA:450,0
DA:456,0
DA:459,0
BRDA:459,0,0,-
BRDA:459,0,1,-
BRDA:459,0,2,-
BRDA:459,0,3,-
DA:461,0
DA:462,0
DA:464,0
DA:466,0
DA:467,0
DA:474,0
BRDA:474,0,0,-
BRDA:474,0,1,-
DA:475,0
DA:477,0
DA:481,0
BRDA:481,0,0,-
BRDA:481,0,1,-
DA:482,0
DA:485,0
DA:487,0
BRDA:487,0,0,0
BRDA:487,0,1,0
DA:488,0
DA:489,0
DA:491,0
BRDA:491,0,0,0
BRDA:491,0,1,0
DA:492,0
BRDA:492,0,0,0
BRDA:492,0,1,0
DA:493,0
DA:496,0
BRDA:496,0,0,-
BRDA:496,0,1,-
DA:498,0
DA:500,0
DA:501,0
DA:502,0
DA:503,0
DA:504,0
DA:505,0
DA:426,0
DA:436,0
DA:437,0
DA:438,0
DA:439,0
DA:440,0
DA:441,0
DA:449,0
DA:450,0
BRDA:450,0,0,-
BRDA:450,0,1,-
DA:456,0
DA:459,0
BRDA:459,0,0,-
BRDA:459,0,1,-
BRDA:459,0,2,-
BRDA:459,0,3,-
DA:461,0
DA:462,0
DA:464,0
DA:466,0
DA:467,0
DA:474,0
BRDA:474,0,0,-
BRDA:474,0,1,-
DA:475,0
DA:477,0
DA:481,0
BRDA:481,0,0,-
BRDA:481,0,1,-
DA:482,0
DA:485,0
DA:487,0
BRDA:487,0,0,0
BRDA:487,0,1,0
DA:488,0
DA:489,0
DA:491,0
BRDA:491,0,0,0
BRDA:491,0,1,0
DA:492,0
BRDA:492,0,0,0
BRDA:492,0,1,0
DA:493,0
DA:496,0
BRDA:496,0,0,-
BRDA:496,0,1,-
DA:498,0
DA:500,0
DA:501,0
DA:502,0
DA:503,0
DA:504,0
DA:505,0
end_of_record
SF:/usr/include/c++/10/bits/allocator.h
FN:152,_ZNSaIhEC2Ev
FNDA:0,_ZNSaIhEC2Ev
FN:152,_ZNSaISt13_Rb_tree_nodeISt4pairIKNSt7__cxx1112basic_stringIcSt11char_traitsIcESaIcEEESt10shared_ptrINS1_4listI19http_method_handlerSaISA_EEEEEEEC2Ev
FNDA:1,_ZNSaISt13_Rb_tree_nodeISt4pairIKNSt7__cxx1112basic_stringIcSt11char_traitsIcESaIcEEESt10shared_ptrINS1_4listI19http_method_handlerSaISA_EEEEEEEC2Ev
FN:152,_ZNSaINSt7__cxx1112basic_stringIcSt11char_traitsIcESaIcEEEEC2Ev
FNDA:1,_ZNSaINSt7__cxx1112basic_stringIcSt11char_traitsIcESaIcEEEEC2Ev
FN:152,_ZNSaISt10_List_nodeI10OrderClassEEC2Ev
FNDA:1,_ZNSaISt10_List_nodeI10OrderClassEEC2Ev
FN:152,_ZNSaISt3mapINSt7__cxx1112basic_stringIcSt11char_traitsIcESaIcEEEN8nlohmann10basic_jsonIS_St6vectorS5_blmdSaNS6_14adl_serializerES8_IhSaIhEEEESt4lessIS5_ESaISt4pairIKS5_SC_EEEEC2Ev
FNDA:0,_ZNSaISt3mapINSt7__cxx1112basic_stringIcSt11char_traitsIcESaIcEEEN8nlohmann10basic_jsonIS_St6vectorS5_blmdSaNS6_14adl_serializerES8_IhSaIhEEEESt4lessIS5_ESaISt4pairIKS5_SC_EEEEC2Ev
FN:152,_ZNSaISt6vectorIN8nlohmann10basic_jsonISt3mapS_NSt7__cxx1112basic_stringIcSt11char_traitsIcESaIcEEEblmdSaNS0_14adl_serializerES_IhSaIhEEEESaISC_EEEC2Ev
FNDA:0,_ZNSaISt6vectorIN8nlohmann10basic_jsonISt3mapS_NSt7__cxx1112basic_stringIcSt11char_traitsIcESaIcEEEblmdSaNS0_14adl_serializerES_IhSaIhEEEESaISC_EEEC2Ev
FN:152,_ZNSaIN8nlohmann27byte_container_with_subtypeISt6vectorIhSaIhEEEEEC2Ev
FNDA:0,_ZNSaIN8nlohmann27byte_container_with_subtypeISt6vectorIhSaIhEEEEEC2Ev
FN:152,_ZNSaIN8nlohmann10basic_jsonISt3mapSt6vectorNSt7__cxx1112basic_stringIcSt11char_traitsIcESaIcEEEblmdSaNS_14adl_serializerES2_IhSaIhEEEEEC2Ev
FNDA:0,_ZNSaIN8nlohmann10basic_jsonISt3mapSt6vectorNSt7__cxx1112basic_stringIcSt11char_traitsIcESaIcEEEblmdSaNS_14adl_serializerES2_IhSaIhEEEEEC2Ev
FN:152,_ZNSaISt13_Rb_tree_nodeISt4pairIKNSt7__cxx1112basic_stringIcSt11char_traitsIcESaIcEEEN8nlohmann10basic_jsonISt3mapSt6vectorS6_blmdSaNS8_14adl_serializerESB_IhSaIhEEEEEEEC2Ev
FNDA:0,_ZNSaISt13_Rb_tree_nodeISt4pairIKNSt7__cxx1112basic_stringIcSt11char_traitsIcESaIcEEEN8nlohmann10basic_jsonISt3mapSt6vectorS6_blmdSaNS8_14adl_serializerESB_IhSaIhEEEEEEEC2Ev
FN:155,_ZNSaIN8nlohmann10basic_jsonISt3mapSt6vectorNSt7__cxx1112basic_stringIcSt11char_traitsIcESaIcEEEblmdSaNS_14adl_serializerES2_IhSaIhEEEEEC2ERKSD_
FNDA:0,_ZNSaIN8nlohmann10basic_jsonISt3mapSt6vectorNSt7__cxx1112basic_stringIcSt11char_traitsIcESaIcEEEblmdSaNS_14adl_serializerES2_IhSaIhEEEEEC2ERKSD_
FN:170,_ZNSaIN8nlohmann27byte_container_with_subtypeISt6vectorIhSaIhEEEEED2Ev
FNDA:0,_ZNSaIN8nlohmann27byte_container_with_subtypeISt6vectorIhSaIhEEEEED2Ev
FN:170,_ZNSaISt6vectorIN8nlohmann10basic_jsonISt3mapS_NSt7__cxx1112basic_stringIcSt11char_traitsIcESaIcEEEblmdSaNS0_14adl_serializerES_IhSaIhEEEESaISC_EEED2Ev
FNDA:0,_ZNSaISt6vectorIN8nlohmann10basic_jsonISt3mapS_NSt7__cxx1112basic_stringIcSt11char_traitsIcESaIcEEEblmdSaNS0_14adl_serializerES_IhSaIhEEEESaISC_EEED2Ev
FN:170,_ZNSaISt3mapINSt7__cxx1112basic_stringIcSt11char_traitsIcESaIcEEEN8nlohmann10basic_jsonIS_St6vectorS5_blmdSaNS6_14adl_serializerES8_IhSaIhEEEESt4lessIS5_ESaISt4pairIKS5_SC_EEEED2Ev
FNDA:0,_ZNSaISt3mapINSt7__cxx1112basic_stringIcSt11char_traitsIcESaIcEEEN8nlohmann10basic_jsonIS_St6vectorS5_blmdSaNS6_14adl_serializerES8_IhSaIhEEEESt4lessIS5_ESaISt4pairIKS5_SC_EEEED2Ev
FN:170,_ZNSaISt13_Rb_tree_nodeISt4pairIKNSt7__cxx1112basic_stringIcSt11char_traitsIcESaIcEEEN8nlohmann10basic_jsonISt3mapSt6vectorS6_blmdSaNS8_14adl_serializerESB_IhSaIhEEEEEEED2Ev
FNDA:0,_ZNSaISt13_Rb_tree_nodeISt4pairIKNSt7__cxx1112basic_stringIcSt11char_traitsIcESaIcEEEN8nlohmann10basic_jsonISt3mapSt6vectorS6_blmdSaNS8_14adl_serializerESB_IhSaIhEEEEEEED2Ev
FN:170,_ZNSaIN8nlohmann10basic_jsonISt3mapSt6vectorNSt7__cxx1112basic_stringIcSt11char_traitsIcESaIcEEEblmdSaNS_14adl_serializerES2_IhSaIhEEEEED2Ev
FNDA:0,_ZNSaIN8nlohmann10basic_jsonISt3mapSt6vectorNSt7__cxx1112basic_stringIcSt11char_traitsIcESaIcEEEblmdSaNS_14adl_serializerES2_IhSaIhEEEEED2Ev
FN:170,_ZNSaIhED2Ev
FNDA:0,_ZNSaIhED2Ev
FN:170,_ZNSaISt13_Rb_tree_nodeISt4pairIKNSt7__cxx1112basic_stringIcSt11char_traitsIcESaIcEEESt10shared_ptrINS1_4listI19http_method_handlerSaISA_EEEEEEED2Ev
FNDA:0,_ZNSaISt13_Rb_tree_nodeISt4pairIKNSt7__cxx1112basic_stringIcSt11char_traitsIcESaIcEEESt10shared_ptrINS1_4listI19http_method_handlerSaISA_EEEEEEED2Ev
FN:170,_ZNSaINSt7__cxx1112basic_stringIcSt11char_traitsIcESaIcEEEED2Ev
FNDA:1,_ZNSaINSt7__cxx1112basic_stringIcSt11char_traitsIcESaIcEEEED2Ev
FN:200,_ZSteqRKSaIcES1_
FNDA:0,_ZSteqRKSaIcES1_
DA:152,0
DA:152,0
DA:152,0
DA:152,0
DA:152,0
DA:152,0
DA:152,1
DA:152,1
DA:152,1
DA:155,0
DA:156,0
DA:170,0
DA:170,0
DA:170,0
DA:170,0
DA:170,0
DA:170,0
DA:170,0
DA:170,1
DA:200,0
DA:201,0
end_of_record
SF:/usr/include/c++/10/bits/stl_map.h
FN:185,_ZNSt3mapINSt7__cxx1112basic_stringIcSt11char_traitsIcESaIcEEEN8nlohmann10basic_jsonIS_St6vectorS5_blmdSaNS6_14adl_serializerES8_IhSaIhEEEESt4lessIS5_ESaISt4pairIKS5_SC_EEEC2Ev
FNDA:0,_ZNSt3mapINSt7__cxx1112basic_stringIcSt11char_traitsIcESaIcEEEN8nlohmann10basic_jsonIS_St6vectorS5_blmdSaNS6_14adl_serializerES8_IhSaIhEEEESt4lessIS5_ESaISt4pairIKS5_SC_EEEC2Ev
FN:185,_ZNSt3mapINSt7__cxx1112basic_stringIcSt11char_traitsIcESaIcEEESt10shared_ptrINS0_4listI19http_method_handlerSaIS8_EEEESt4lessIS5_ESaISt4pairIKS5_SB_EEEC2Ev
FNDA:1,_ZNSt3mapINSt7__cxx1112basic_stringIcSt11char_traitsIcESaIcEEESt10shared_ptrINS0_4listI19http_method_handlerSaIS8_EEEESt4lessIS5_ESaISt4pairIKS5_SB_EEEC2Ev
FN:302,_ZNSt3mapINSt7__cxx1112basic_stringIcSt11char_traitsIcESaIcEEEN8nlohmann10basic_jsonIS_St6vectorS5_blmdSaNS6_14adl_serializerES8_IhSaIhEEEESt4lessIS5_ESaISt4pairIKS5_SC_EEED2Ev
FNDA:0,_ZNSt3mapINSt7__cxx1112basic_stringIcSt11char_traitsIcESaIcEEEN8nlohmann10basic_jsonIS_St6vectorS5_blmdSaNS6_14adl_serializerES8_IhSaIhEEEESt4lessIS5_ESaISt4pairIKS5_SC_EEED2Ev
FN:302,_ZNSt3mapINSt7__cxx1112basic_stringIcSt11char_traitsIcESaIcEEESt10shared_ptrINS0_4listI19http_method_handlerSaIS8_EEEESt4lessIS5_ESaISt4pairIKS5_SB_EEED2Ev
FNDA:0,_ZNSt3mapINSt7__cxx1112basic_stringIcSt11char_traitsIcESaIcEEESt10shared_ptrINS0_4listI19http_method_handlerSaIS8_EEEESt4lessIS5_ESaISt4pairIKS5_SB_EEED2Ev
FN:356,_ZNSt3mapINSt7__cxx1112basic_stringIcSt11char_traitsIcESaIcEEEN8nlohmann10basic_jsonIS_St6vectorS5_blmdSaNS6_14adl_serializerES8_IhSaIhEEEESt4lessIS5_ESaISt4pairIKS5_SC_EEE5beginEv
FNDA:0,_ZNSt3mapINSt7__cxx1112basic_stringIcSt11char_traitsIcESaIcEEEN8nlohmann10basic_jsonIS_St6vectorS5_blmdSaNS6_14adl_serializerES8_IhSaIhEEEESt4lessIS5_ESaISt4pairIKS5_SC_EEE5beginEv
FN:356,_ZNSt3mapINSt7__cxx1112basic_stringIcSt11char_traitsIcESaIcEEES5_St4lessIS5_ESaISt4pairIKS5_S5_EEE5beginEv
FNDA:0,_ZNSt3mapINSt7__cxx1112basic_stringIcSt11char_traitsIcESaIcEEES5_St4lessIS5_ESaISt4pairIKS5_S5_EEE5beginEv
FN:356,_ZNSt3mapINSt7__cxx1112basic_stringIcSt11char_traitsIcESaIcEEESt10shared_ptrINS0_4listI19http_method_handlerSaIS8_EEEESt4lessIS5_ESaISt4pairIKS5_SB_EEE5beginEv
FNDA:0,_ZNSt3mapINSt7__cxx1112basic_stringIcSt11char_traitsIcESaIcEEESt10shared_ptrINS0_4listI19http_method_handlerSaIS8_EEEESt4lessIS5_ESaISt4pairIKS5_SB_EEE5beginEv
FN:374,_ZNSt3mapINSt7__cxx1112basic_stringIcSt11char_traitsIcESaIcEEEN8nlohmann10basic_jsonIS_St6vectorS5_blmdSaNS6_14adl_serializerES8_IhSaIhEEEESt4lessIS5_ESaISt4pairIKS5_SC_EEE3endEv
FNDA:0,_ZNSt3mapINSt7__cxx1112basic_stringIcSt11char_traitsIcESaIcEEEN8nlohmann10basic_jsonIS_St6vectorS5_blmdSaNS6_14adl_serializerES8_IhSaIhEEEESt4lessIS5_ESaISt4pairIKS5_SC_EEE3endEv
FN:374,_ZNSt3mapINSt7__cxx1112basic_stringIcSt11char_traitsIcESaIcEEESt10shared_ptrINS0_4listI19http_method_handlerSaIS8_EEEESt4lessIS5_ESaISt4pairIKS5_SB_EEE3endEv
FNDA:172,_ZNSt3mapINSt7__cxx1112basic_stringIcSt11char_traitsIcESaIcEEESt10shared_ptrINS0_4listI19http_method_handlerSaIS8_EEEESt4lessIS5_ESaISt4pairIKS5_SB_EEE3endEv
FN:374,_ZNSt3mapINSt7__cxx1112basic_stringIcSt11char_traitsIcESaIcEEES5_St4lessIS5_ESaISt4pairIKS5_S5_EEE3endEv
FNDA:0,_ZNSt3mapINSt7__cxx1112basic_stringIcSt11char_traitsIcESaIcEEES5_St4lessIS5_ESaISt4pairIKS5_S5_EEE3endEv
FN:470,_ZNKSt3mapINSt7__cxx1112basic_stringIcSt11char_traitsIcESaIcEEEN8nlohmann10basic_jsonIS_St6vectorS5_blmdSaNS6_14adl_serializerES8_IhSaIhEEEESt4lessIS5_ESaISt4pairIKS5_SC_EEE4sizeEv
FNDA:0,_ZNKSt3mapINSt7__cxx1112basic_stringIcSt11char_traitsIcESaIcEEEN8nlohmann10basic_jsonIS_St6vectorS5_blmdSaNS6_14adl_serializerES8_IhSaIhEEEESt4lessIS5_ESaISt4pairIKS5_SC_EEE4sizeEv
FN:512,_ZNSt3mapINSt7__cxx1112basic_stringIcSt11char_traitsIcESaIcEEEN8nlohmann10basic_jsonIS_St6vectorS5_blmdSaNS6_14adl_serializerES8_IhSaIhEEEESt4lessIS5_ESaISt4pairIKS5_SC_EEEixEOS5_
FNDA:0,_ZNSt3mapINSt7__cxx1112basic_stringIcSt11char_traitsIcESaIcEEEN8nlohmann10basic_jsonIS_St6vectorS5_blmdSaNS6_14adl_serializerES8_IhSaIhEEEESt4lessIS5_ESaISt4pairIKS5_SC_EEEixEOS5_
FN:1133,_ZNSt3mapINSt7__cxx1112basic_stringIcSt11char_traitsIcESaIcEEEN8nlohmann10basic_jsonIS_St6vectorS5_blmdSaNS6_14adl_serializerES8_IhSaIhEEEESt4lessIS5_ESaISt4pairIKS5_SC_EEE5clearEv
FNDA:0,_ZNSt3mapINSt7__cxx1112basic_stringIcSt11char_traitsIcESaIcEEEN8nlohmann10basic_jsonIS_St6vectorS5_blmdSaNS6_14adl_serializerES8_IhSaIhEEEESt4lessIS5_ESaISt4pairIKS5_SC_EEE5clearEv
FN:1142,_ZNKSt3mapINSt7__cxx1112basic_stringIcSt11char_traitsIcESaIcEEEN8nlohmann10basic_jsonIS_St6vectorS5_blmdSaNS6_14adl_serializerES8_IhSaIhEEEESt4lessIS5_ESaISt4pairIKS5_SC_EEE8key_compEv
FNDA:0,_ZNKSt3mapINSt7__cxx1112basic_stringIcSt11char_traitsIcESaIcEEEN8nlohmann10basic_jsonIS_St6vectorS5_blmdSaNS6_14adl_serializerES8_IhSaIhEEEESt4lessIS5_ESaISt4pairIKS5_SC_EEE8key_compEv
FN:1258,_ZNSt3mapINSt7__cxx1112basic_stringIcSt11char_traitsIcESaIcEEEN8nlohmann10basic_jsonIS_St6vectorS5_blmdSaNS6_14adl_serializerES8_IhSaIhEEEESt4lessIS5_ESaISt4pairIKS5_SC_EEE11lower_boundERSG_
FNDA:0,_ZNSt3mapINSt7__cxx1112basic_stringIcSt11char_traitsIcESaIcEEEN8nlohmann10basic_jsonIS_St6vectorS5_blmdSaNS6_14adl_serializerES8_IhSaIhEEEESt4lessIS5_ESaISt4pairIKS5_SC_EEE11lower_boundERSG_
DA:185,0
DA:185,1
DA:302,0
DA:302,0
DA:356,0
DA:357,0
DA:356,0
DA:357,0
DA:356,0
DA:357,0
DA:374,0
DA:375,0
DA:374,172
DA:375,172
DA:374,0
DA:375,0
DA:470,0
DA:471,0
DA:512,0
DA:517,0
BRDA:517,0,0,-
BRDA:517,0,1,-
DA:519,0
BRDA:519,0,0,-
BRDA:519,0,1,-
BRDA:519,0,2,-
BRDA:519,0,3,-
BRDA:519,0,4,-
BRDA:519,0,5,-
BRDA:519,0,6,-
BRDA:519,0,7,-
BRDA:519,0,8,-
BRDA:519,0,9,-
BRDA:519,0,10,-
BRDA:519,0,11,-
BRDA:519,0,12,-
BRDA:519,0,13,-
BRDA:519,0,14,-
BRDA:519,0,15,-
DA:520,0
BRDA:520,0,0,-
BRDA:520,0,1,-
DA:521,0
DA:522,0
DA:523,0
DA:1133,0
DA:1134,0
DA:1142,0
DA:1143,0
DA:1258,0
DA:1259,0
end_of_record
SF:/usr/include/c++/10/bits/move.h
FN:49,_ZSt11__addressofIKZ4mainEUlP11HttpRequestP12HttpResponseE67_EPT_RS6_
FNDA:0,_ZSt11__addressofIKZ4mainEUlP11HttpRequestP12HttpResponseE67_EPT_RS6_
FN:49,_ZSt11__addressofIKZ4mainEUlP11HttpRequestP12HttpResponseE61_EPT_RS6_
FNDA:0,_ZSt11__addressofIKZ4mainEUlP11HttpRequestP12HttpResponseE61_EPT_RS6_
FN:49,_ZSt11__addressofIKZ4mainEUlP11HttpRequestP12HttpResponseE15_EPT_RS6_
FNDA:0,_ZSt11__addressofIKZ4mainEUlP11HttpRequestP12HttpResponseE15_EPT_RS6_
FN:49,_ZSt11__addressofIKZ4mainEUlP11HttpRequestP12HttpResponseE62_EPT_RS6_
FNDA:0,_ZSt11__addressofIKZ4mainEUlP11HttpRequestP12HttpResponseE62_EPT_RS6_
FN:49,_ZSt11__addressofIKZ4mainEUlP11HttpRequestP12HttpResponseE63_EPT_RS6_
FNDA:0,_ZSt11__addressofIKZ4mainEUlP11HttpRequestP12HttpResponseE63_EPT_RS6_
FN:49,_ZSt11__addressofIKZ4mainEUlP11HttpRequestP12HttpResponseE14_EPT_RS6_
FNDA:0,_ZSt11__addressofIKZ4mainEUlP11HttpRequestP12HttpResponseE14_EPT_RS6_
FN:49,_ZSt11__addressofIKZ4mainEUlP11HttpRequestP12HttpResponseE64_EPT_RS6_
FNDA:0,_ZSt11__addressofIKZ4mainEUlP11HttpRequestP12HttpResponseE64_EPT_RS6_
FN:49,_ZSt11__addressofIKZ4mainEUlP11HttpRequestP12HttpResponseE44_EPT_RS6_
FNDA:0,_ZSt11__addressofIKZ4mainEUlP11HttpRequestP12HttpResponseE44_EPT_RS6_
FN:49,_ZSt11__addressofIKZ4mainEUlP11HttpRequestP12HttpResponseE65_EPT_RS6_
FNDA:0,_ZSt11__addressofIKZ4mainEUlP11HttpRequestP12HttpResponseE65_EPT_RS6_
FN:49,_ZSt11__addressofIKZ4mainEUlP11HttpRequestP12HttpResponseE13_EPT_RS6_
FNDA:0,_ZSt11__addressofIKZ4mainEUlP11HttpRequestP12HttpResponseE13_EPT_RS6_
FN:49,_ZSt11__addressofIKZ4mainEUlP11HttpRequestP12HttpResponseE66_EPT_RS6_
FNDA:0,_ZSt11__addressofIKZ4mainEUlP11HttpRequestP12HttpResponseE66_EPT_RS6_
FN:49,_ZSt11__addressofIKZ4mainEUlP11HttpRequestP12HttpResponseE24_EPT_RS6_
FNDA:0,_ZSt11__addressofIKZ4mainEUlP11HttpRequestP12HttpResponseE24_EPT_RS6_
FN:49,_ZSt11__addressofIKZ4mainEUlP11HttpRequestP12HttpResponseE45_EPT_RS6_
FNDA:0,_ZSt11__addressofIKZ4mainEUlP11HttpRequestP12HttpResponseE45_EPT_RS6_
FN:49,_ZSt11__addressofIKZ4mainEUlP11HttpRequestP12HttpResponseE12_EPT_RS6_
FNDA:0,_ZSt11__addressofIKZ4mainEUlP11HttpRequestP12HttpResponseE12_EPT_RS6_
FN:49,_ZSt11__addressofIKZ4mainEUlP11HttpRequestP12HttpResponseE68_EPT_RS6_
FNDA:0,_ZSt11__addressofIKZ4mainEUlP11HttpRequestP12HttpResponseE68_EPT_RS6_
FN:49,_ZSt11__addressofIKZ4mainEUlP11HttpRequestP12HttpResponseE43_EPT_RS6_
FNDA:0,_ZSt11__addressofIKZ4mainEUlP11HttpRequestP12HttpResponseE43_EPT_RS6_
FN:49,_ZSt11__addressofIKZ4mainEUlP11HttpRequestP12HttpResponseE69_EPT_RS6_
FNDA:0,_ZSt11__addressofIKZ4mainEUlP11HttpRequestP12HttpResponseE69_EPT_RS6_
FN:49,_ZSt11__addressofIKZ4mainEUlP11HttpRequestP12HttpResponseE11_EPT_RS6_
FNDA:0,_ZSt11__addressofIKZ4mainEUlP11HttpRequestP12HttpResponseE11_EPT_RS6_
FN:49,_ZSt11__addressofIKZ4mainEUlP11HttpRequestP12HttpResponseE70_EPT_RS6_
FNDA:0,_ZSt11__addressofIKZ4mainEUlP11HttpRequestP12HttpResponseE70_EPT_RS6_
FN:49,_ZSt11__addressofIKZ4mainEUlP11HttpRequestP12HttpResponseE71_EPT_RS6_
FNDA:0,_ZSt11__addressofIKZ4mainEUlP11HttpRequestP12HttpResponseE71_EPT_RS6_
FN:49,_ZSt11__addressofIKZ4mainEUlP11HttpRequestP12HttpResponseE10_EPT_RS6_
FNDA:0,_ZSt11__addressofIKZ4mainEUlP11HttpRequestP12HttpResponseE10_EPT_RS6_
FN:49,_ZSt11__addressofIKZ4mainEUlP11HttpRequestP12HttpResponseE72_EPT_RS6_
FNDA:0,_ZSt11__addressofIKZ4mainEUlP11HttpRequestP12HttpResponseE72_EPT_RS6_
FN:49,_ZSt11__addressofIKZ4mainEUlP11HttpRequestP12HttpResponseE42_EPT_RS6_
FNDA:0,_ZSt11__addressofIKZ4mainEUlP11HttpRequestP12HttpResponseE42_EPT_RS6_
FN:49,_ZSt11__addressofIKZ4mainEUlP11HttpRequestP12HttpResponseE9_EPT_RS6_
FNDA:0,_ZSt11__addressofIKZ4mainEUlP11HttpRequestP12HttpResponseE9_EPT_RS6_
FN:49,_ZSt11__addressofIKZ4mainEUlP11HttpRequestP12HttpResponseE54_EPT_RS6_
FNDA:0,_ZSt11__addressofIKZ4mainEUlP11HttpRequestP12HttpResponseE54_EPT_RS6_
FN:49,_ZSt11__addressofIKZ4mainEUlP11HttpRequestP12HttpResponseE48_EPT_RS6_
FNDA:0,_ZSt11__addressofIKZ4mainEUlP11HttpRequestP12HttpResponseE48_EPT_RS6_
FN:49,_ZSt11__addressofIKZ4mainEUlP11HttpRequestP12HttpResponseE49_EPT_RS6_
FNDA:0,_ZSt11__addressofIKZ4mainEUlP11HttpRequestP12HttpResponseE49_EPT_RS6_
FN:49,_ZSt11__addressofIKZ4mainEUlP11HttpRequestP12HttpResponseE21_EPT_RS6_
FNDA:0,_ZSt11__addressofIKZ4mainEUlP11HttpRequestP12HttpResponseE21_EPT_RS6_
FN:49,_ZSt11__addressofIKZ4mainEUlP11HttpRequestP12HttpResponseE50_EPT_RS6_
FNDA:0,_ZSt11__addressofIKZ4mainEUlP11HttpRequestP12HttpResponseE50_EPT_RS6_
FN:49,_ZSt11__addressofIKZ4mainEUlP11HttpRequestP12HttpResponseE22_EPT_RS6_
FNDA:0,_ZSt11__addressofIKZ4mainEUlP11HttpRequestP12HttpResponseE22_EPT_RS6_
FN:49,_ZSt11__addressofIKZ4mainEUlP11HttpRequestP12HttpResponseE51_EPT_RS6_
FNDA:0,_ZSt11__addressofIKZ4mainEUlP11HttpRequestP12HttpResponseE51_EPT_RS6_
FN:49,_ZSt11__addressofIKZ4mainEUlP11HttpRequestP12HttpResponseE20_EPT_RS6_
FNDA:0,_ZSt11__addressofIKZ4mainEUlP11HttpRequestP12HttpResponseE20_EPT_RS6_
FN:49,_ZSt11__addressofIKZ4mainEUlP11HttpRequestP12HttpResponseE52_EPT_RS6_
FNDA:0,_ZSt11__addressofIKZ4mainEUlP11HttpRequestP12HttpResponseE52_EPT_RS6_
FN:49,_ZSt11__addressofIKZ4mainEUlP11HttpRequestP12HttpResponseE47_EPT_RS6_
FNDA:0,_ZSt11__addressofIKZ4mainEUlP11HttpRequestP12HttpResponseE47_EPT_RS6_
FN:49,_ZSt11__addressofIKZ4mainEUlP11HttpRequestP12HttpResponseE53_EPT_RS6_
FNDA:0,_ZSt11__addressofIKZ4mainEUlP11HttpRequestP12HttpResponseE53_EPT_RS6_
FN:49,_ZSt11__addressofIKZ4mainEUlP11HttpRequestP12HttpResponseE19_EPT_RS6_
FNDA:0,_ZSt11__addressofIKZ4mainEUlP11HttpRequestP12HttpResponseE19_EPT_RS6_
FN:49,_ZSt11__addressofIKZ4mainEUlP11HttpRequestP12HttpResponseE73_EPT_RS6_
FNDA:0,_ZSt11__addressofIKZ4mainEUlP11HttpRequestP12HttpResponseE73_EPT_RS6_
FN:49,_ZSt11__addressofIKZ4mainEUlP11HttpRequestP12HttpResponseE55_EPT_RS6_
FNDA:0,_ZSt11__addressofIKZ4mainEUlP11HttpRequestP12HttpResponseE55_EPT_RS6_
FN:49,_ZSt11__addressofIKZ4mainEUlP11HttpRequestP12HttpResponseE18_EPT_RS6_
FNDA:0,_ZSt11__addressofIKZ4mainEUlP11HttpRequestP12HttpResponseE18_EPT_RS6_
FN:49,_ZSt11__addressofIKZ4mainEUlP11HttpRequestP12HttpResponseE56_EPT_RS6_
FNDA:0,_ZSt11__addressofIKZ4mainEUlP11HttpRequestP12HttpResponseE56_EPT_RS6_
FN:49,_ZSt11__addressofIKZ4mainEUlP11HttpRequestP12HttpResponseE46_EPT_RS6_
FNDA:0,_ZSt11__addressofIKZ4mainEUlP11HttpRequestP12HttpResponseE46_EPT_RS6_
FN:49,_ZSt11__addressofIKZ4mainEUlP11HttpRequestP12HttpResponseE57_EPT_RS6_
FNDA:0,_ZSt11__addressofIKZ4mainEUlP11HttpRequestP12HttpResponseE57_EPT_RS6_
FN:49,_ZSt11__addressofIKZ4mainEUlP11HttpRequestP12HttpResponseE17_EPT_RS6_
FNDA:0,_ZSt11__addressofIKZ4mainEUlP11HttpRequestP12HttpResponseE17_EPT_RS6_
FN:49,_ZSt11__addressofIKZ4mainEUlP11HttpRequestP12HttpResponseE58_EPT_RS6_
FNDA:0,_ZSt11__addressofIKZ4mainEUlP11HttpRequestP12HttpResponseE58_EPT_RS6_
FN:49,_ZSt11__addressofIKZ4mainEUlP11HttpRequestP12HttpResponseE23_EPT_RS6_
FNDA:0,_ZSt11__addressofIKZ4mainEUlP11HttpRequestP12HttpResponseE23_EPT_RS6_
FN:49,_ZSt11__addressofIKZ4mainEUlP11HttpRequestP12HttpResponseE59_EPT_RS6_
FNDA:0,_ZSt11__addressofIKZ4mainEUlP11HttpRequestP12HttpResponseE59_EPT_RS6_
FN:49,_ZSt11__addressofIKZ4mainEUlP11HttpRequestP12HttpResponseE16_EPT_RS6_
FNDA:0,_ZSt11__addressofIKZ4mainEUlP11HttpRequestP12HttpResponseE16_EPT_RS6_
FN:49,_ZSt11__addressofIKZ4mainEUlP11HttpRequestP12HttpResponseE60_EPT_RS6_
FNDA:0,_ZSt11__addressofIKZ4mainEUlP11HttpRequestP12HttpResponseE60_EPT_RS6_
FN:49,_ZSt11__addressofIKZ4mainEUlP11HttpRequestP12HttpResponseE0_EPT_RS6_
FNDA:0,_ZSt11__addressofIKZ4mainEUlP11HttpRequestP12HttpResponseE0_EPT_RS6_
FN:49,_ZSt11__addressofIKZ4mainEUlP11HttpRequestP12HttpResponseE4_EPT_RS6_
FNDA:0,_ZSt11__addressofIKZ4mainEUlP11HttpRequestP12HttpResponseE4_EPT_RS6_
FN:49,_ZSt11__addressofIKZ4mainEUlP11HttpRequestP12HttpResponseE85_EPT_RS6_
FNDA:0,_ZSt11__addressofIKZ4mainEUlP11HttpRequestP12HttpResponseE85_EPT_RS6_
FN:49,_ZSt11__addressofISt6vectorIN8nlohmann10basic_jsonISt3mapS0_NSt7__cxx1112basic_stringIcSt11char_traitsIcESaIcEEEblmdSaNS1_14adl_serializerES0_IhSaIhEEEESaISD_EEEPT_RSG_
FNDA:0,_ZSt11__addressofISt6vectorIN8nlohmann10basic_jsonISt3mapS0_NSt7__cxx1112basic_stringIcSt11char_traitsIcESaIcEEEblmdSaNS1_14adl_serializerES0_IhSaIhEEEESaISD_EEEPT_RSG_
FN:49,_ZSt11__addressofIKZ4mainEUlP11HttpRequestP12HttpResponseE3_EPT_RS6_
FNDA:0,_ZSt11__addressofIKZ4mainEUlP11HttpRequestP12HttpResponseE3_EPT_RS6_
FN:49,_ZSt11__addressofINSt7__cxx1112basic_stringIcSt11char_traitsIcESaIcEEEEPT_RS6_
FNDA:0,_ZSt11__addressofINSt7__cxx1112basic_stringIcSt11char_traitsIcESaIcEEEEPT_RS6_
FN:49,_ZSt11__addressofIKZ4mainEUlP11HttpRequestP12HttpResponseE38_EPT_RS6_
FNDA:0,_ZSt11__addressofIKZ4mainEUlP11HttpRequestP12HttpResponseE38_EPT_RS6_
FN:49,_ZSt11__addressofISaISt10_List_nodeI10OrderClassEEEPT_RS4_
FNDA:0,_ZSt11__addressofISaISt10_List_nodeI10OrderClassEEEPT_RS4_
FN:49,_ZSt11__addressofIKZ4mainEUlP11HttpRequestP12HttpResponseE2_EPT_RS6_
FNDA:0,_ZSt11__addressofIKZ4mainEUlP11HttpRequestP12HttpResponseE2_EPT_RS6_
FN:49,_ZSt11__addressofIKZ4mainEUlP11HttpRequestP12HttpResponseE27_EPT_RS6_
FNDA:0,_ZSt11__addressofIKZ4mainEUlP11HttpRequestP12HttpResponseE27_EPT_RS6_
FN:49,_ZSt11__addressofIKZ4mainEUlP11HttpRequestP12HttpResponseE1_EPT_RS6_
FNDA:0,_ZSt11__addressofIKZ4mainEUlP11HttpRequestP12HttpResponseE1_EPT_RS6_
FN:49,_ZSt11__addressofIKZ4mainEUlP11HttpRequestP12HttpResponseE37_EPT_RS6_
FNDA:0,_ZSt11__addressofIKZ4mainEUlP11HttpRequestP12HttpResponseE37_EPT_RS6_
FN:49,_ZSt11__addressofIKZ4mainEUlP11HttpRequestP12HttpResponseE25_EPT_RS6_
FNDA:0,_ZSt11__addressofIKZ4mainEUlP11HttpRequestP12HttpResponseE25_EPT_RS6_
FN:49,_ZSt11__addressofIKZ4mainEUlP11HttpRequestP12HttpResponseE_EPT_RS6_
FNDA:0,_ZSt11__addressofIKZ4mainEUlP11HttpRequestP12HttpResponseE_EPT_RS6_
FN:49,_ZSt11__addressofIKZ4mainEUlP11HttpRequestP12HttpResponseE36_EPT_RS6_
FNDA:0,_ZSt11__addressofIKZ4mainEUlP11HttpRequestP12HttpResponseE36_EPT_RS6_
FN:49,_ZSt11__addressofIKZ4mainEUlP11HttpRequestP12HttpResponseE28_EPT_RS6_
FNDA:0,_ZSt11__addressofIKZ4mainEUlP11HttpRequestP12HttpResponseE28_EPT_RS6_
FN:49,_ZSt11__addressofIN8nlohmann10basic_jsonISt3mapSt6vectorNSt7__cxx1112basic_stringIcSt11char_traitsIcESaIcEEEblmdSaNS0_14adl_serializerES3_IhSaIhEEEEEPT_RSE_
FNDA:0,_ZSt11__addressofIN8nlohmann10basic_jsonISt3mapSt6vectorNSt7__cxx1112basic_stringIcSt11char_traitsIcESaIcEEEblmdSaNS0_14adl_serializerES3_IhSaIhEEEEEPT_RSE_
FN:49,_ZSt11__addressofIKZ4mainEUlP11HttpRequestP12HttpResponseE35_EPT_RS6_
FNDA:0,_ZSt11__addressofIKZ4mainEUlP11HttpRequestP12HttpResponseE35_EPT_RS6_
FN:49,_ZSt11__addressofIKZ4mainEUlP11HttpRequestP12HttpResponseE34_EPT_RS6_
FNDA:0,_ZSt11__addressofIKZ4mainEUlP11HttpRequestP12HttpResponseE34_EPT_RS6_
FN:49,_ZSt11__addressofIKZ4mainEUlP11HttpRequestP12HttpResponseE29_EPT_RS6_
FNDA:0,_ZSt11__addressofIKZ4mainEUlP11HttpRequestP12HttpResponseE29_EPT_RS6_
FN:49,_ZSt11__addressofIKZ4mainEUlP11HttpRequestP12HttpResponseE33_EPT_RS6_
FNDA:0,_ZSt11__addressofIKZ4mainEUlP11HttpRequestP12HttpResponseE33_EPT_RS6_
FN:49,_ZSt11__addressofIKZ4mainEUlP11HttpRequestP12HttpResponseE32_EPT_RS6_
FNDA:0,_ZSt11__addressofIKZ4mainEUlP11HttpRequestP12HttpResponseE32_EPT_RS6_
FN:49,_ZSt11__addressofIKZ4mainEUlP11HttpRequestP12HttpResponseE30_EPT_RS6_
FNDA:0,_ZSt11__addressofIKZ4mainEUlP11HttpRequestP12HttpResponseE30_EPT_RS6_
FN:49,_ZSt11__addressofIKZ4mainEUlP11HttpRequestP12HttpResponseE31_EPT_RS6_
FNDA:0,_ZSt11__addressofIKZ4mainEUlP11HttpRequestP12HttpResponseE31_EPT_RS6_
FN:49,_ZSt11__addressofIKZ4mainEUlP11HttpRequestP12HttpResponseE7_EPT_RS6_
FNDA:0,_ZSt11__addressofIKZ4mainEUlP11HttpRequestP12HttpResponseE7_EPT_RS6_
FN:49,_ZSt11__addressofIKZ4mainEUlP11HttpRequestP12HttpResponseE74_EPT_RS6_
FNDA:0,_ZSt11__addressofIKZ4mainEUlP11HttpRequestP12HttpResponseE74_EPT_RS6_
FN:49,_ZSt11__addressofIKZ4mainEUlP11HttpRequestP12HttpResponseE75_EPT_RS6_
FNDA:0,_ZSt11__addressofIKZ4mainEUlP11HttpRequestP12HttpResponseE75_EPT_RS6_
FN:49,_ZSt11__addressofIKZ4mainEUlP11HttpRequestP12HttpResponseE41_EPT_RS6_
FNDA:0,_ZSt11__addressofIKZ4mainEUlP11HttpRequestP12HttpResponseE41_EPT_RS6_
FN:49,_ZSt11__addressofIKZ4mainEUlP11HttpRequestP12HttpResponseE76_EPT_RS6_
FNDA:0,_ZSt11__addressofIKZ4mainEUlP11HttpRequestP12HttpResponseE76_EPT_RS6_
FN:49,_ZSt11__addressofIKZ4mainEUlP11HttpRequestP12HttpResponseE8_EPT_RS6_
FNDA:0,_ZSt11__addressofIKZ4mainEUlP11HttpRequestP12HttpResponseE8_EPT_RS6_
FN:49,_ZSt11__addressofIKZ4mainEUlP11HttpRequestP12HttpResponseE77_EPT_RS6_
FNDA:0,_ZSt11__addressofIKZ4mainEUlP11HttpRequestP12HttpResponseE77_EPT_RS6_
FN:49,_ZSt11__addressofIKZ4mainEUlP11HttpRequestP12HttpResponseE78_EPT_RS6_
FNDA:0,_ZSt11__addressofIKZ4mainEUlP11HttpRequestP12HttpResponseE78_EPT_RS6_
FN:49,_ZSt11__addressofIKZ4mainEUlP11HttpRequestP12HttpResponseE79_EPT_RS6_
FNDA:0,_ZSt11__addressofIKZ4mainEUlP11HttpRequestP12HttpResponseE79_EPT_RS6_
FN:49,_ZSt11__addressofIKZ4mainEUlP11HttpRequestP12HttpResponseE40_EPT_RS6_
FNDA:0,_ZSt11__addressofIKZ4mainEUlP11HttpRequestP12HttpResponseE40_EPT_RS6_
FN:49,_ZSt11__addressofIKZ4mainEUlP11HttpRequestP12HttpResponseE6_EPT_RS6_
FNDA:0,_ZSt11__addressofIKZ4mainEUlP11HttpRequestP12HttpResponseE6_EPT_RS6_
FN:49,_ZSt11__addressofIKZ4mainEUlP11HttpRequestP12HttpResponseE84_EPT_RS6_
FNDA:0,_ZSt11__addressofIKZ4mainEUlP11HttpRequestP12HttpResponseE84_EPT_RS6_
FN:49,_ZSt11__addressofIKZ4mainEUlP11HttpRequestP12HttpResponseE39_EPT_RS6_
FNDA:0,_ZSt11__addressofIKZ4mainEUlP11HttpRequestP12HttpResponseE39_EPT_RS6_
FN:49,_ZSt11__addressofIKZ4mainEUlP11HttpRequestP12HttpResponseE83_EPT_RS6_
FNDA:0,_ZSt11__addressofIKZ4mainEUlP11HttpRequestP12HttpResponseE83_EPT_RS6_
FN:49,_ZSt11__addressofIKZ4mainEUlP11HttpRequestP12HttpResponseE5_EPT_RS6_
FNDA:0,_ZSt11__addressofIKZ4mainEUlP11HttpRequestP12HttpResponseE5_EPT_RS6_
FN:49,_ZSt11__addressofIKZ4mainEUlP11HttpRequestP12HttpResponseE82_EPT_RS6_
FNDA:0,_ZSt11__addressofIKZ4mainEUlP11HttpRequestP12HttpResponseE82_EPT_RS6_
FN:49,_ZSt11__addressofIKZ4mainEUlP11HttpRequestP12HttpResponseE26_EPT_RS6_
FNDA:0,_ZSt11__addressofIKZ4mainEUlP11HttpRequestP12HttpResponseE26_EPT_RS6_
FN:49,_ZSt11__addressofIKZ4mainEUlP11HttpRequestP12HttpResponseE81_EPT_RS6_
FNDA:0,_ZSt11__addressofIKZ4mainEUlP11HttpRequestP12HttpResponseE81_EPT_RS6_
FN:49,_ZSt11__addressofIKZ4mainEUlP11HttpRequestP12HttpResponseE80_EPT_RS6_
FNDA:0,_ZSt11__addressofIKZ4mainEUlP11HttpRequestP12HttpResponseE80_EPT_RS6_
FN:76,_ZSt7forwardIRZ4mainEUlP11HttpRequestP12HttpResponseE25_EOT_RNSt16remove_referenceIS6_E4typeE
FNDA:0,_ZSt7forwardIRZ4mainEUlP11HttpRequestP12HttpResponseE25_EOT_RNSt16remove_referenceIS6_E4typeE
FN:76,_ZSt7forwardIRZ4mainEUlP11HttpRequestP12HttpResponseE22_EOT_RNSt16remove_referenceIS6_E4typeE
FNDA:0,_ZSt7forwardIRZ4mainEUlP11HttpRequestP12HttpResponseE22_EOT_RNSt16remove_referenceIS6_E4typeE
FN:76,_ZSt7forwardIRZ4mainEUlP11HttpRequestP12HttpResponseE24_EOT_RNSt16remove_referenceIS6_E4typeE
FNDA:0,_ZSt7forwardIRZ4mainEUlP11HttpRequestP12HttpResponseE24_EOT_RNSt16remove_referenceIS6_E4typeE
FN:76,_ZSt7forwardIRZ4mainEUlP11HttpRequestP12HttpResponseE28_EOT_RNSt16remove_referenceIS6_E4typeE
FNDA:0,_ZSt7forwardIRZ4mainEUlP11HttpRequestP12HttpResponseE28_EOT_RNSt16remove_referenceIS6_E4typeE
FN:76,_ZSt7forwardIRZ4mainEUlP11HttpRequestP12HttpResponseE23_EOT_RNSt16remove_referenceIS6_E4typeE
FNDA:0,_ZSt7forwardIRZ4mainEUlP11HttpRequestP12HttpResponseE23_EOT_RNSt16remove_referenceIS6_E4typeE
FN:76,_ZSt7forwardIRZ4mainEUlP11HttpRequestP12HttpResponseE27_EOT_RNSt16remove_referenceIS6_E4typeE
FNDA:0,_ZSt7forwardIRZ4mainEUlP11HttpRequestP12HttpResponseE27_EOT_RNSt16remove_referenceIS6_E4typeE
FN:76,_ZSt7forwardIRZ4mainEUlP11HttpRequestP12HttpResponseE29_EOT_RNSt16remove_referenceIS6_E4typeE
FNDA:0,_ZSt7forwardIRZ4mainEUlP11HttpRequestP12HttpResponseE29_EOT_RNSt16remove_referenceIS6_E4typeE
FN:76,_ZSt7forwardIRZ4mainEUlP11HttpRequestP12HttpResponseE26_EOT_RNSt16remove_referenceIS6_E4typeE
FNDA:0,_ZSt7forwardIRZ4mainEUlP11HttpRequestP12HttpResponseE26_EOT_RNSt16remove_referenceIS6_E4typeE
FN:76,_ZSt7forwardIRZ4mainEUlP11HttpRequestP12HttpResponseE13_EOT_RNSt16remove_referenceIS6_E4typeE
FNDA:0,_ZSt7forwardIRZ4mainEUlP11HttpRequestP12HttpResponseE13_EOT_RNSt16remove_referenceIS6_E4typeE
FN:76,_ZSt7forwardIP12HttpResponseEOT_RNSt16remove_referenceIS2_E4typeE
FNDA:0,_ZSt7forwardIP12HttpResponseEOT_RNSt16remove_referenceIS2_E4typeE
FN:76,_ZSt7forwardIRZ4mainEUlP11HttpRequestP12HttpResponseE4_EOT_RNSt16remove_referenceIS6_E4typeE
FNDA:0,_ZSt7forwardIRZ4mainEUlP11HttpRequestP12HttpResponseE4_EOT_RNSt16remove_referenceIS6_E4typeE
FN:76,_ZSt7forwardIRZ4mainEUlP11HttpRequestP12HttpResponseE3_EOT_RNSt16remove_referenceIS6_E4typeE
FNDA:0,_ZSt7forwardIRZ4mainEUlP11HttpRequestP12HttpResponseE3_EOT_RNSt16remove_referenceIS6_E4typeE
FN:76,_ZSt7forwardIRZ4mainEUlP11HttpRequestP12HttpResponseE2_EOT_RNSt16remove_referenceIS6_E4typeE
FNDA:0,_ZSt7forwardIRZ4mainEUlP11HttpRequestP12HttpResponseE2_EOT_RNSt16remove_referenceIS6_E4typeE
FN:76,_ZSt7forwardIRZ4mainEUlP11HttpRequestP12HttpResponseE1_EOT_RNSt16remove_referenceIS6_E4typeE
FNDA:0,_ZSt7forwardIRZ4mainEUlP11HttpRequestP12HttpResponseE1_EOT_RNSt16remove_referenceIS6_E4typeE
FN:76,_ZSt7forwardIRZ4mainEUlP11HttpRequestP12HttpResponseE0_EOT_RNSt16remove_referenceIS6_E4typeE
FNDA:0,_ZSt7forwardIRZ4mainEUlP11HttpRequestP12HttpResponseE0_EOT_RNSt16remove_referenceIS6_E4typeE
FN:76,_ZSt7forwardIRZ4mainEUlP11HttpRequestP12HttpResponseE_EOT_RNSt16remove_referenceIS6_E4typeE
FNDA:0,_ZSt7forwardIRZ4mainEUlP11HttpRequestP12HttpResponseE_EOT_RNSt16remove_referenceIS6_E4typeE
FN:76,_ZSt7forwardIONSt7__cxx1112basic_stringIcSt11char_traitsIcESaIcEEEEOT_RNSt16remove_referenceIS7_E4typeE
FNDA:170,_ZSt7forwardIONSt7__cxx1112basic_stringIcSt11char_traitsIcESaIcEEEEOT_RNSt16remove_referenceIS7_E4typeE
FN:76,_ZSt7forwardIRKSt6vectorINSt7__cxx1112basic_stringIcSt11char_traitsIcESaIcEEESaIS6_EEEOT_RNSt16remove_referenceISB_E4typeE
FNDA:0,_ZSt7forwardIRKSt6vectorINSt7__cxx1112basic_stringIcSt11char_traitsIcESaIcEEESaIS6_EEEOT_RNSt16remove_referenceISB_E4typeE
FN:76,_ZSt7forwardIRZ4mainEUlP11HttpRequestP12HttpResponseE5_EOT_RNSt16remove_referenceIS6_E4typeE
FNDA:0,_ZSt7forwardIRZ4mainEUlP11HttpRequestP12HttpResponseE5_EOT_RNSt16remove_referenceIS6_E4typeE
FN:76,_ZSt7forwardIP11HttpRequestEOT_RNSt16remove_referenceIS2_E4typeE
FNDA:0,_ZSt7forwardIP11HttpRequestEOT_RNSt16remove_referenceIS2_E4typeE
FN:76,_ZSt7forwardIRK10OrderClassEOT_RNSt16remove_referenceIS3_E4typeE
FNDA:0,_ZSt7forwardIRK10OrderClassEOT_RNSt16remove_referenceIS3_E4typeE
FN:76,_ZSt7forwardISt5tupleIJEEEOT_RNSt16remove_referenceIS2_E4typeE
FNDA:425,_ZSt7forwardISt5tupleIJEEEOT_RNSt16remove_referenceIS2_E4typeE
FN:76,_ZSt7forwardISt5tupleIJONSt7__cxx1112basic_stringIcSt11char_traitsIcESaIcEEEEEEOT_RNSt16remove_referenceIS9_E4typeE
FNDA:425,_ZSt7forwardISt5tupleIJONSt7__cxx1112basic_stringIcSt11char_traitsIcESaIcEEEEEEOT_RNSt16remove_referenceIS9_E4typeE
FN:76,_ZSt7forwardIRKSt21piecewise_construct_tEOT_RNSt16remove_referenceIS3_E4typeE
FNDA:425,_ZSt7forwardIRKSt21piecewise_construct_tEOT_RNSt16remove_referenceIS3_E4typeE
FN:76,_ZSt7forwardINSt7__cxx1112basic_stringIcSt11char_traitsIcESaIcEEEEOT_RNSt16remove_referenceIS6_E4typeE
FNDA:279201,_ZSt7forwardINSt7__cxx1112basic_stringIcSt11char_traitsIcESaIcEEEEOT_RNSt16remove_referenceIS6_E4typeE
FN:76,_ZSt7forwardIRPcEOT_RNSt16remove_referenceIS2_E4typeE
FNDA:0,_ZSt7forwardIRPcEOT_RNSt16remove_referenceIS2_E4typeE
FN:76,_ZSt7forwardIRKNSt7__cxx1112basic_stringIcSt11char_traitsIcESaIcEEEEOT_RNSt16remove_referenceIS8_E4typeE
FNDA:0,_ZSt7forwardIRKNSt7__cxx1112basic_stringIcSt11char_traitsIcESaIcEEEEOT_RNSt16remove_referenceIS8_E4typeE
FN:76,_ZSt7forwardIRZ4mainEUlP11HttpRequestP12HttpResponseE12_EOT_RNSt16remove_referenceIS6_E4typeE
FNDA:0,_ZSt7forwardIRZ4mainEUlP11HttpRequestP12HttpResponseE12_EOT_RNSt16remove_referenceIS6_E4typeE
FN:76,_ZSt7forwardIRZ4mainEUlP11HttpRequestP12HttpResponseE20_EOT_RNSt16remove_referenceIS6_E4typeE
FNDA:0,_ZSt7forwardIRZ4mainEUlP11HttpRequestP12HttpResponseE20_EOT_RNSt16remove_referenceIS6_E4typeE
FN:76,_ZSt7forwardIRZ4mainEUlP11HttpRequestP12HttpResponseE19_EOT_RNSt16remove_referenceIS6_E4typeE
FNDA:0,_ZSt7forwardIRZ4mainEUlP11HttpRequestP12HttpResponseE19_EOT_RNSt16remove_referenceIS6_E4typeE
FN:76,_ZSt7forwardIRZ4mainEUlP11HttpRequestP12HttpResponseE18_EOT_RNSt16remove_referenceIS6_E4typeE
FNDA:0,_ZSt7forwardIRZ4mainEUlP11HttpRequestP12HttpResponseE18_EOT_RNSt16remove_referenceIS6_E4typeE
FN:76,_ZSt7forwardIRZ4mainEUlP11HttpRequestP12HttpResponseE17_EOT_RNSt16remove_referenceIS6_E4typeE
FNDA:0,_ZSt7forwardIRZ4mainEUlP11HttpRequestP12HttpResponseE17_EOT_RNSt16remove_referenceIS6_E4typeE
FN:76,_ZSt7forwardIRZ4mainEUlP11HttpRequestP12HttpResponseE16_EOT_RNSt16remove_referenceIS6_E4typeE
FNDA:0,_ZSt7forwardIRZ4mainEUlP11HttpRequestP12HttpResponseE16_EOT_RNSt16remove_referenceIS6_E4typeE
FN:76,_ZSt7forwardIRZ4mainEUlP11HttpRequestP12HttpResponseE15_EOT_RNSt16remove_referenceIS6_E4typeE
FNDA:0,_ZSt7forwardIRZ4mainEUlP11HttpRequestP12HttpResponseE15_EOT_RNSt16remove_referenceIS6_E4typeE
FN:76,_ZSt7forwardIRZ4mainEUlP11HttpRequestP12HttpResponseE14_EOT_RNSt16remove_referenceIS6_E4typeE
FNDA:0,_ZSt7forwardIRZ4mainEUlP11HttpRequestP12HttpResponseE14_EOT_RNSt16remove_referenceIS6_E4typeE
FN:76,_ZSt7forwardIRKZN8nlohmann10basic_jsonISt3mapSt6vectorNSt7__cxx1112basic_stringIcSt11char_traitsIcESaIcEEEblmdSaNS0_14adl_serializerES3_IhSaIhEEE6createIS9_JRKS9_EEEPT_DpOT0_EUlPS9_E_EOSH_RNSt16remove_referenceISH_E4typeE
FNDA:0,_ZSt7forwardIRKZN8nlohmann10basic_jsonISt3mapSt6vectorNSt7__cxx1112basic_stringIcSt11char_traitsIcESaIcEEEblmdSaNS0_14adl_serializerES3_IhSaIhEEE6createIS9_JRKS9_EEEPT_DpOT0_EUlPS9_E_EOSH_RNSt16remove_referenceISH_E4typeE
FN:76,_ZSt7forwardIRZ4mainEUlP11HttpRequestP12HttpResponseE21_EOT_RNSt16remove_referenceIS6_E4typeE
FNDA:0,_ZSt7forwardIRZ4mainEUlP11HttpRequestP12HttpResponseE21_EOT_RNSt16remove_referenceIS6_E4typeE
FN:76,_ZSt7forwardIRZ4mainEUlP11HttpRequestP12HttpResponseE11_EOT_RNSt16remove_referenceIS6_E4typeE
FNDA:0,_ZSt7forwardIRZ4mainEUlP11HttpRequestP12HttpResponseE11_EOT_RNSt16remove_referenceIS6_E4typeE
FN:76,_ZSt7forwardIRZ4mainEUlP11HttpRequestP12HttpResponseE10_EOT_RNSt16remove_referenceIS6_E4typeE
FNDA:0,_ZSt7forwardIRZ4mainEUlP11HttpRequestP12HttpResponseE10_EOT_RNSt16remove_referenceIS6_E4typeE
FN:76,_ZSt7forwardIRZ4mainEUlP11HttpRequestP12HttpResponseE9_EOT_RNSt16remove_referenceIS6_E4typeE
FNDA:0,_ZSt7forwardIRZ4mainEUlP11HttpRequestP12HttpResponseE9_EOT_RNSt16remove_referenceIS6_E4typeE
FN:76,_ZSt7forwardIRA1_KcEOT_RNSt16remove_referenceIS3_E4typeE
FNDA:0,_ZSt7forwardIRA1_KcEOT_RNSt16remove_referenceIS3_E4typeE
FN:76,_ZSt7forwardIRZ4mainEUlP11HttpRequestP12HttpResponseE8_EOT_RNSt16remove_referenceIS6_E4typeE
FNDA:0,_ZSt7forwardIRZ4mainEUlP11HttpRequestP12HttpResponseE8_EOT_RNSt16remove_referenceIS6_E4typeE
FN:76,_ZSt7forwardIRZ4mainEUlP11HttpRequestP12HttpResponseE7_EOT_RNSt16remove_referenceIS6_E4typeE
FNDA:0,_ZSt7forwardIRZ4mainEUlP11HttpRequestP12HttpResponseE7_EOT_RNSt16remove_referenceIS6_E4typeE
FN:76,_ZSt7forwardIRZ4mainEUlP11HttpRequestP12HttpResponseE6_EOT_RNSt16remove_referenceIS6_E4typeE
FNDA:0,_ZSt7forwardIRZ4mainEUlP11HttpRequestP12HttpResponseE6_EOT_RNSt16remove_referenceIS6_E4typeE
FN:76,_ZSt7forwardIRZ4mainEUlP11HttpRequestP12HttpResponseE75_EOT_RNSt16remove_referenceIS6_E4typeE
FNDA:0,_ZSt7forwardIRZ4mainEUlP11HttpRequestP12HttpResponseE75_EOT_RNSt16remove_referenceIS6_E4typeE
FN:76,_ZSt7forwardIRZ4mainEUlP11HttpRequestP12HttpResponseE83_EOT_RNSt16remove_referenceIS6_E4typeE
FNDA:0,_ZSt7forwardIRZ4mainEUlP11HttpRequestP12HttpResponseE83_EOT_RNSt16remove_referenceIS6_E4typeE
FN:76,_ZSt7forwardIRZ4mainEUlP11HttpRequestP12HttpResponseE82_EOT_RNSt16remove_referenceIS6_E4typeE
FNDA:0,_ZSt7forwardIRZ4mainEUlP11HttpRequestP12HttpResponseE82_EOT_RNSt16remove_referenceIS6_E4typeE
FN:76,_ZSt7forwardIRZ4mainEUlP11HttpRequestP12HttpResponseE81_EOT_RNSt16remove_referenceIS6_E4typeE
FNDA:0,_ZSt7forwardIRZ4mainEUlP11HttpRequestP12HttpResponseE81_EOT_RNSt16remove_referenceIS6_E4typeE
FN:76,_ZSt7forwardIRZ4mainEUlP11HttpRequestP12HttpResponseE80_EOT_RNSt16remove_referenceIS6_E4typeE
FNDA:0,_ZSt7forwardIRZ4mainEUlP11HttpRequestP12HttpResponseE80_EOT_RNSt16remove_referenceIS6_E4typeE
FN:76,_ZSt7forwardIRZ4mainEUlP11HttpRequestP12HttpResponseE79_EOT_RNSt16remove_referenceIS6_E4typeE
FNDA:0,_ZSt7forwardIRZ4mainEUlP11HttpRequestP12HttpResponseE79_EOT_RNSt16remove_referenceIS6_E4typeE
FN:76,_ZSt7forwardIRZ4mainEUlP11HttpRequestP12HttpResponseE78_EOT_RNSt16remove_referenceIS6_E4typeE
FNDA:0,_ZSt7forwardIRZ4mainEUlP11HttpRequestP12HttpResponseE78_EOT_RNSt16remove_referenceIS6_E4typeE
FN:76,_ZSt7forwardIRZ4mainEUlP11HttpRequestP12HttpResponseE77_EOT_RNSt16remove_referenceIS6_E4typeE
FNDA:0,_ZSt7forwardIRZ4mainEUlP11HttpRequestP12HttpResponseE77_EOT_RNSt16remove_referenceIS6_E4typeE
FN:76,_ZSt7forwardIRZ4mainEUlP11HttpRequestP12HttpResponseE76_EOT_RNSt16remove_referenceIS6_E4typeE
FNDA:0,_ZSt7forwardIRZ4mainEUlP11HttpRequestP12HttpResponseE76_EOT_RNSt16remove_referenceIS6_E4typeE
FN:76,_ZSt7forwardIRZ4mainEUlP11HttpRequestP12HttpResponseE84_EOT_RNSt16remove_referenceIS6_E4typeE
FNDA:0,_ZSt7forwardIRZ4mainEUlP11HttpRequestP12HttpResponseE84_EOT_RNSt16remove_referenceIS6_E4typeE
FN:76,_ZSt7forwardIRZ4mainEUlP11HttpRequestP12HttpResponseE74_EOT_RNSt16remove_referenceIS6_E4typeE
FNDA:0,_ZSt7forwardIRZ4mainEUlP11HttpRequestP12HttpResponseE74_EOT_RNSt16remove_referenceIS6_E4typeE
FN:76,_ZSt7forwardIRZ4mainEUlP11HttpRequestP12HttpResponseE73_EOT_RNSt16remove_referenceIS6_E4typeE
FNDA:0,_ZSt7forwardIRZ4mainEUlP11HttpRequestP12HttpResponseE73_EOT_RNSt16remove_referenceIS6_E4typeE
FN:76,_ZSt7forwardIRZ4mainEUlP11HttpRequestP12HttpResponseE72_EOT_RNSt16remove_referenceIS6_E4typeE
FNDA:0,_ZSt7forwardIRZ4mainEUlP11HttpRequestP12HttpResponseE72_EOT_RNSt16remove_referenceIS6_E4typeE
FN:76,_ZSt7forwardIRZ4mainEUlP11HttpRequestP12HttpResponseE71_EOT_RNSt16remove_referenceIS6_E4typeE
FNDA:0,_ZSt7forwardIRZ4mainEUlP11HttpRequestP12HttpResponseE71_EOT_RNSt16remove_referenceIS6_E4typeE
FN:76,_ZSt7forwardIRZ4mainEUlP11HttpRequestP12HttpResponseE70_EOT_RNSt16remove_referenceIS6_E4typeE
FNDA:0,_ZSt7forwardIRZ4mainEUlP11HttpRequestP12HttpResponseE70_EOT_RNSt16remove_referenceIS6_E4typeE
FN:76,_ZSt7forwardIRZ4mainEUlP11HttpRequestP12HttpResponseE69_EOT_RNSt16remove_referenceIS6_E4typeE
FNDA:0,_ZSt7forwardIRZ4mainEUlP11HttpRequestP12HttpResponseE69_EOT_RNSt16remove_referenceIS6_E4typeE
FN:76,_ZSt7forwardIRZ4mainEUlP11HttpRequestP12HttpResponseE68_EOT_RNSt16remove_referenceIS6_E4typeE
FNDA:0,_ZSt7forwardIRZ4mainEUlP11HttpRequestP12HttpResponseE68_EOT_RNSt16remove_referenceIS6_E4typeE
FN:76,_ZSt7forwardIRZ4mainEUlP11HttpRequestP12HttpResponseE67_EOT_RNSt16remove_referenceIS6_E4typeE
FNDA:0,_ZSt7forwardIRZ4mainEUlP11HttpRequestP12HttpResponseE67_EOT_RNSt16remove_referenceIS6_E4typeE
FN:76,_ZSt7forwardIRKZN8nlohmann10basic_jsonISt3mapSt6vectorNSt7__cxx1112basic_stringIcSt11char_traitsIcESaIcEEEblmdSaNS0_14adl_serializerES3_IhSaIhEEE6createINS0_27byte_container_with_subtypeISC_EEJEEEPT_DpOT0_EUlPSG_E_EOSH_RNSt16remove_referenceISH_E4typeE
FNDA:0,_ZSt7forwardIRKZN8nlohmann10basic_jsonISt3mapSt6vectorNSt7__cxx1112basic_stringIcSt11char_traitsIcESaIcEEEblmdSaNS0_14adl_serializerES3_IhSaIhEEE6createINS0_27byte_container_with_subtypeISC_EEJEEEPT_DpOT0_EUlPSG_E_EOSH_RNSt16remove_referenceISH_E4typeE
FN:76,_ZSt7forwardIRKZN8nlohmann10basic_jsonISt3mapSt6vectorNSt7__cxx1112basic_stringIcSt11char_traitsIcESaIcEEEblmdSaNS0_14adl_serializerES3_IhSaIhEEE6createIS9_JRKPcEEEPT_DpOT0_EUlPS9_E_EOSI_RNSt16remove_referenceISI_E4typeE
FNDA:0,_ZSt7forwardIRKZN8nlohmann10basic_jsonISt3mapSt6vectorNSt7__cxx1112basic_stringIcSt11char_traitsIcESaIcEEEblmdSaNS0_14adl_serializerES3_IhSaIhEEE6createIS9_JRKPcEEEPT_DpOT0_EUlPS9_E_EOSI_RNSt16remove_referenceISI_E4typeE
FN:76,_ZSt7forwardIN9__gnu_cxx17__normal_iteratorIPKNSt7__cxx1112basic_stringIcSt11char_traitsIcESaIcEEESt6vectorIS7_SaIS7_EEEEEOT_RNSt16remove_referenceISE_E4typeE
FNDA:0,_ZSt7forwardIN9__gnu_cxx17__normal_iteratorIPKNSt7__cxx1112basic_stringIcSt11char_traitsIcESaIcEEESt6vectorIS7_SaIS7_EEEEEOT_RNSt16remove_referenceISE_E4typeE
FN:76,_ZSt7forwardIRKPcEOT_RNSt16remove_referenceIS3_E4typeE
FNDA:0,_ZSt7forwardIRKPcEOT_RNSt16remove_referenceIS3_E4typeE
FN:76,_ZSt7forwardIRPSt13_Rb_tree_nodeISt4pairIKNSt7__cxx1112basic_stringIcSt11char_traitsIcESaIcEEEN8nlohmann10basic_jsonISt3mapSt6vectorS7_blmdSaNS9_14adl_serializerESC_IhSaIhEEEEEEEOT_RNSt16remove_referenceISL_E4typeE
FNDA:0,_ZSt7forwardIRPSt13_Rb_tree_nodeISt4pairIKNSt7__cxx1112basic_stringIcSt11char_traitsIcESaIcEEEN8nlohmann10basic_jsonISt3mapSt6vectorS7_blmdSaNS9_14adl_serializerESC_IhSaIhEEEEEEEOT_RNSt16remove_referenceISL_E4typeE
FN:76,_ZSt7forwardIRPN8nlohmann27byte_container_with_subtypeISt6vectorIhSaIhEEEEEOT_RNSt16remove_referenceIS8_E4typeE
FNDA:0,_ZSt7forwardIRPN8nlohmann27byte_container_with_subtypeISt6vectorIhSaIhEEEEEOT_RNSt16remove_referenceIS8_E4typeE
FN:76,_ZSt7forwardIRPNSt7__cxx1112basic_stringIcSt11char_traitsIcESaIcEEEEOT_RNSt16remove_referenceIS8_E4typeE
FNDA:0,_ZSt7forwardIRPNSt7__cxx1112basic_stringIcSt11char_traitsIcESaIcEEEEOT_RNSt16remove_referenceIS8_E4typeE
